ARM GAS  C:\Users\Tim\AppData\Local\Temp\ccEK2rHG.s 			page 1


   1              		.cpu cortex-m0
   2              		.fpu softvfp
   3              		.eabi_attribute 20, 1
   4              		.eabi_attribute 21, 1
   5              		.eabi_attribute 23, 3
   6              		.eabi_attribute 24, 1
   7              		.eabi_attribute 25, 1
   8              		.eabi_attribute 26, 1
   9              		.eabi_attribute 30, 1
  10              		.eabi_attribute 34, 0
  11              		.eabi_attribute 18, 4
  12              		.code	16
  13              		.file	"CyDMA.c"
  14              		.text
  15              	.Ltext0:
  16              		.cfi_sections	.debug_frame
  17              		.section	.text.CyDmaInterrupt,"ax",%progbits
  18              		.align	2
  19              		.global	CyDmaInterrupt
  20              		.code	16
  21              		.thumb_func
  22              		.type	CyDmaInterrupt, %function
  23              	CyDmaInterrupt:
  24              	.LFB16:
  25              		.file 1 ".\\Generated_Source\\PSoC4\\CyDMA.c"
   1:.\Generated_Source\PSoC4/CyDMA.c **** /*******************************************************************************
   2:.\Generated_Source\PSoC4/CyDMA.c **** * File Name: CyDMA.c
   3:.\Generated_Source\PSoC4/CyDMA.c **** * Version 1.10
   4:.\Generated_Source\PSoC4/CyDMA.c **** *
   5:.\Generated_Source\PSoC4/CyDMA.c **** * Description:
   6:.\Generated_Source\PSoC4/CyDMA.c **** *  This file contains all of the global DMA API functions.
   7:.\Generated_Source\PSoC4/CyDMA.c **** *
   8:.\Generated_Source\PSoC4/CyDMA.c **** ********************************************************************************
   9:.\Generated_Source\PSoC4/CyDMA.c **** * Copyright 2015, Cypress Semiconductor Corporation. All rights reserved.
  10:.\Generated_Source\PSoC4/CyDMA.c **** * You may use this file only in accordance with the license, terms, conditions,
  11:.\Generated_Source\PSoC4/CyDMA.c **** * disclaimers, and limitations in the end user license agreement accompanying
  12:.\Generated_Source\PSoC4/CyDMA.c **** * the software package with which this file was provided.
  13:.\Generated_Source\PSoC4/CyDMA.c **** *******************************************************************************/
  14:.\Generated_Source\PSoC4/CyDMA.c **** 
  15:.\Generated_Source\PSoC4/CyDMA.c **** #include "CyDMA.h"
  16:.\Generated_Source\PSoC4/CyDMA.c **** #include "CyLib.h"
  17:.\Generated_Source\PSoC4/CyDMA.c **** 
  18:.\Generated_Source\PSoC4/CyDMA.c **** /* Default callback function. It is invoked if the user callback function is
  19:.\Generated_Source\PSoC4/CyDMA.c **** * undefined.
  20:.\Generated_Source\PSoC4/CyDMA.c **** */
  21:.\Generated_Source\PSoC4/CyDMA.c **** static void CyDmaDefaultInterruptCallback(void);
  22:.\Generated_Source\PSoC4/CyDMA.c **** 
  23:.\Generated_Source\PSoC4/CyDMA.c **** /* Array of pointers to user defined callback functions to be called
  24:.\Generated_Source\PSoC4/CyDMA.c **** * from DMA interrupt.
  25:.\Generated_Source\PSoC4/CyDMA.c **** */
  26:.\Generated_Source\PSoC4/CyDMA.c **** static cydma_callback_t CyDmaInterruptCallback[CYDMA_CH_NR] = {
  27:.\Generated_Source\PSoC4/CyDMA.c ****     &CyDmaDefaultInterruptCallback, &CyDmaDefaultInterruptCallback,
  28:.\Generated_Source\PSoC4/CyDMA.c ****     &CyDmaDefaultInterruptCallback, &CyDmaDefaultInterruptCallback,
  29:.\Generated_Source\PSoC4/CyDMA.c ****     &CyDmaDefaultInterruptCallback, &CyDmaDefaultInterruptCallback,
  30:.\Generated_Source\PSoC4/CyDMA.c ****     &CyDmaDefaultInterruptCallback, &CyDmaDefaultInterruptCallback,
  31:.\Generated_Source\PSoC4/CyDMA.c ****     &CyDmaDefaultInterruptCallback, &CyDmaDefaultInterruptCallback,
  32:.\Generated_Source\PSoC4/CyDMA.c ****     &CyDmaDefaultInterruptCallback, &CyDmaDefaultInterruptCallback,
ARM GAS  C:\Users\Tim\AppData\Local\Temp\ccEK2rHG.s 			page 2


  33:.\Generated_Source\PSoC4/CyDMA.c ****     &CyDmaDefaultInterruptCallback, &CyDmaDefaultInterruptCallback,
  34:.\Generated_Source\PSoC4/CyDMA.c ****     &CyDmaDefaultInterruptCallback, &CyDmaDefaultInterruptCallback,
  35:.\Generated_Source\PSoC4/CyDMA.c ****     &CyDmaDefaultInterruptCallback, &CyDmaDefaultInterruptCallback,
  36:.\Generated_Source\PSoC4/CyDMA.c ****     &CyDmaDefaultInterruptCallback, &CyDmaDefaultInterruptCallback,
  37:.\Generated_Source\PSoC4/CyDMA.c ****     &CyDmaDefaultInterruptCallback, &CyDmaDefaultInterruptCallback,
  38:.\Generated_Source\PSoC4/CyDMA.c ****     &CyDmaDefaultInterruptCallback, &CyDmaDefaultInterruptCallback,
  39:.\Generated_Source\PSoC4/CyDMA.c ****     &CyDmaDefaultInterruptCallback, &CyDmaDefaultInterruptCallback,
  40:.\Generated_Source\PSoC4/CyDMA.c ****     &CyDmaDefaultInterruptCallback, &CyDmaDefaultInterruptCallback,
  41:.\Generated_Source\PSoC4/CyDMA.c ****     &CyDmaDefaultInterruptCallback, &CyDmaDefaultInterruptCallback,
  42:.\Generated_Source\PSoC4/CyDMA.c ****     &CyDmaDefaultInterruptCallback, &CyDmaDefaultInterruptCallback
  43:.\Generated_Source\PSoC4/CyDMA.c **** };
  44:.\Generated_Source\PSoC4/CyDMA.c **** 
  45:.\Generated_Source\PSoC4/CyDMA.c **** /* The live status of all DMA channels usage. Bit i is associated to channel i,
  46:.\Generated_Source\PSoC4/CyDMA.c **** * with i = 0..CYDMA_CH_NR-1. '0' - channel is free. '1' - channel is in use.
  47:.\Generated_Source\PSoC4/CyDMA.c **** * All the channels allocated for DMA instances placed on a schematic are in use
  48:.\Generated_Source\PSoC4/CyDMA.c **** * by default and cannot be freed. 
  49:.\Generated_Source\PSoC4/CyDMA.c **** * DMA_CHANNELS_USED__MASK is generated during the build time and is a bit field
  50:.\Generated_Source\PSoC4/CyDMA.c **** * corresponding to the DMA channels placed on a design schematic.
  51:.\Generated_Source\PSoC4/CyDMA.c **** */
  52:.\Generated_Source\PSoC4/CyDMA.c **** static uint32 CyDmaChannelUsedMask = DMA_CHANNELS_USED__MASK;
  53:.\Generated_Source\PSoC4/CyDMA.c **** 
  54:.\Generated_Source\PSoC4/CyDMA.c **** 
  55:.\Generated_Source\PSoC4/CyDMA.c **** /*******************************************************************************
  56:.\Generated_Source\PSoC4/CyDMA.c **** * Function Name: CyDmaEnable
  57:.\Generated_Source\PSoC4/CyDMA.c **** ********************************************************************************
  58:.\Generated_Source\PSoC4/CyDMA.c **** *
  59:.\Generated_Source\PSoC4/CyDMA.c **** * Summary:
  60:.\Generated_Source\PSoC4/CyDMA.c **** *  Sets the default ISR to be called by the DMA interrupt and enables the DMA
  61:.\Generated_Source\PSoC4/CyDMA.c **** *  transfer engine.
  62:.\Generated_Source\PSoC4/CyDMA.c **** *
  63:.\Generated_Source\PSoC4/CyDMA.c **** * Parameters:
  64:.\Generated_Source\PSoC4/CyDMA.c **** *  None.
  65:.\Generated_Source\PSoC4/CyDMA.c **** *                   
  66:.\Generated_Source\PSoC4/CyDMA.c **** * Return:
  67:.\Generated_Source\PSoC4/CyDMA.c **** *  None.
  68:.\Generated_Source\PSoC4/CyDMA.c **** *
  69:.\Generated_Source\PSoC4/CyDMA.c **** * Side effect:
  70:.\Generated_Source\PSoC4/CyDMA.c **** *  Does not affect the channel enable status. Overrides the interrupt vector
  71:.\Generated_Source\PSoC4/CyDMA.c **** *  set prior the first time CyDmaEnable() is called.
  72:.\Generated_Source\PSoC4/CyDMA.c **** *
  73:.\Generated_Source\PSoC4/CyDMA.c **** *******************************************************************************/
  74:.\Generated_Source\PSoC4/CyDMA.c **** void CyDmaEnable(void)
  75:.\Generated_Source\PSoC4/CyDMA.c **** {
  76:.\Generated_Source\PSoC4/CyDMA.c ****     static uint8 initIntrVector = 0u;
  77:.\Generated_Source\PSoC4/CyDMA.c **** 
  78:.\Generated_Source\PSoC4/CyDMA.c ****     if(0u == initIntrVector)
  79:.\Generated_Source\PSoC4/CyDMA.c ****     {
  80:.\Generated_Source\PSoC4/CyDMA.c ****         CyDmaSetInterruptVector(&CyDmaInterrupt);
  81:.\Generated_Source\PSoC4/CyDMA.c ****         CyIntSetPriority(CYDMA_INTR_NUMBER, CYDMA_INTR_PRIO);
  82:.\Generated_Source\PSoC4/CyDMA.c ****         initIntrVector = 1u;
  83:.\Generated_Source\PSoC4/CyDMA.c ****     }
  84:.\Generated_Source\PSoC4/CyDMA.c ****     CYDMA_CTL_REG = CYDMA_ENABLED;
  85:.\Generated_Source\PSoC4/CyDMA.c **** }
  86:.\Generated_Source\PSoC4/CyDMA.c **** 
  87:.\Generated_Source\PSoC4/CyDMA.c **** 
  88:.\Generated_Source\PSoC4/CyDMA.c **** /*******************************************************************************
  89:.\Generated_Source\PSoC4/CyDMA.c **** * Function Name: CyDmaDisable
ARM GAS  C:\Users\Tim\AppData\Local\Temp\ccEK2rHG.s 			page 3


  90:.\Generated_Source\PSoC4/CyDMA.c **** ********************************************************************************
  91:.\Generated_Source\PSoC4/CyDMA.c **** *
  92:.\Generated_Source\PSoC4/CyDMA.c **** * Summary:
  93:.\Generated_Source\PSoC4/CyDMA.c **** *  Disables the DMA transfer engine.
  94:.\Generated_Source\PSoC4/CyDMA.c **** *
  95:.\Generated_Source\PSoC4/CyDMA.c **** * Parameters:
  96:.\Generated_Source\PSoC4/CyDMA.c **** *  None.
  97:.\Generated_Source\PSoC4/CyDMA.c **** *                   
  98:.\Generated_Source\PSoC4/CyDMA.c **** * Return:
  99:.\Generated_Source\PSoC4/CyDMA.c **** *  None.
 100:.\Generated_Source\PSoC4/CyDMA.c **** *
 101:.\Generated_Source\PSoC4/CyDMA.c **** * Side effect:
 102:.\Generated_Source\PSoC4/CyDMA.c **** *  Does not affect the channel enable status.
 103:.\Generated_Source\PSoC4/CyDMA.c **** *
 104:.\Generated_Source\PSoC4/CyDMA.c **** *******************************************************************************/
 105:.\Generated_Source\PSoC4/CyDMA.c **** void CyDmaDisable(void)
 106:.\Generated_Source\PSoC4/CyDMA.c **** {
 107:.\Generated_Source\PSoC4/CyDMA.c ****     CYDMA_CTL_REG = (uint32)~CYDMA_ENABLED;
 108:.\Generated_Source\PSoC4/CyDMA.c **** }
 109:.\Generated_Source\PSoC4/CyDMA.c **** 
 110:.\Generated_Source\PSoC4/CyDMA.c **** 
 111:.\Generated_Source\PSoC4/CyDMA.c **** /*******************************************************************************
 112:.\Generated_Source\PSoC4/CyDMA.c **** * Function Name: CyDmaGetStatus
 113:.\Generated_Source\PSoC4/CyDMA.c **** ********************************************************************************
 114:.\Generated_Source\PSoC4/CyDMA.c **** *
 115:.\Generated_Source\PSoC4/CyDMA.c **** * Summary:
 116:.\Generated_Source\PSoC4/CyDMA.c **** *  Returns the status of the DMA transfer engine.
 117:.\Generated_Source\PSoC4/CyDMA.c **** *
 118:.\Generated_Source\PSoC4/CyDMA.c **** * Parameters:
 119:.\Generated_Source\PSoC4/CyDMA.c **** *  None.
 120:.\Generated_Source\PSoC4/CyDMA.c **** *                   
 121:.\Generated_Source\PSoC4/CyDMA.c **** * Return:
 122:.\Generated_Source\PSoC4/CyDMA.c **** *  The contents of the DMA status register. Refer to the status register bit
 123:.\Generated_Source\PSoC4/CyDMA.c **** *  definitions in CyDMA_P4.h or the API description in the DMA channel
 124:.\Generated_Source\PSoC4/CyDMA.c **** *  datasheet.
 125:.\Generated_Source\PSoC4/CyDMA.c **** *
 126:.\Generated_Source\PSoC4/CyDMA.c **** * Side effect:
 127:.\Generated_Source\PSoC4/CyDMA.c **** *  The series of function calls CyDmaGetActiveSrcAddress(),
 128:.\Generated_Source\PSoC4/CyDMA.c **** *  CyDmaGetActiveDstAddress(), CyDmaGetStatus() are not atomic, the DMA
 129:.\Generated_Source\PSoC4/CyDMA.c **** *  engine may have advanced after one or more of these function calls. Meaning
 130:.\Generated_Source\PSoC4/CyDMA.c **** *  the returns from these three functions may not be related to each other.
 131:.\Generated_Source\PSoC4/CyDMA.c **** *
 132:.\Generated_Source\PSoC4/CyDMA.c **** *******************************************************************************/
 133:.\Generated_Source\PSoC4/CyDMA.c **** uint32 CyDmaGetStatus(void)
 134:.\Generated_Source\PSoC4/CyDMA.c **** {
 135:.\Generated_Source\PSoC4/CyDMA.c ****     return (CYDMA_STATUS_REG);
 136:.\Generated_Source\PSoC4/CyDMA.c **** }
 137:.\Generated_Source\PSoC4/CyDMA.c **** 
 138:.\Generated_Source\PSoC4/CyDMA.c **** 
 139:.\Generated_Source\PSoC4/CyDMA.c **** /*******************************************************************************
 140:.\Generated_Source\PSoC4/CyDMA.c **** * Function Name: CyDmaGetActiveChannels
 141:.\Generated_Source\PSoC4/CyDMA.c **** ********************************************************************************
 142:.\Generated_Source\PSoC4/CyDMA.c **** *
 143:.\Generated_Source\PSoC4/CyDMA.c **** * Summary:
 144:.\Generated_Source\PSoC4/CyDMA.c **** *  Returns a bit field of all the DMA channels that are either active or
 145:.\Generated_Source\PSoC4/CyDMA.c **** *  pending.
 146:.\Generated_Source\PSoC4/CyDMA.c **** *
ARM GAS  C:\Users\Tim\AppData\Local\Temp\ccEK2rHG.s 			page 4


 147:.\Generated_Source\PSoC4/CyDMA.c **** * Parameters:
 148:.\Generated_Source\PSoC4/CyDMA.c **** *  None.
 149:.\Generated_Source\PSoC4/CyDMA.c **** *                   
 150:.\Generated_Source\PSoC4/CyDMA.c **** * Return:
 151:.\Generated_Source\PSoC4/CyDMA.c **** *  Bit field of active and pending channels. 
 152:.\Generated_Source\PSoC4/CyDMA.c **** *
 153:.\Generated_Source\PSoC4/CyDMA.c **** *******************************************************************************/
 154:.\Generated_Source\PSoC4/CyDMA.c **** uint32 CyDmaGetActiveChannels(void)
 155:.\Generated_Source\PSoC4/CyDMA.c **** {
 156:.\Generated_Source\PSoC4/CyDMA.c ****     return (CYDMA_STATUS_CH_ACT_REG);
 157:.\Generated_Source\PSoC4/CyDMA.c **** }
 158:.\Generated_Source\PSoC4/CyDMA.c **** 
 159:.\Generated_Source\PSoC4/CyDMA.c **** 
 160:.\Generated_Source\PSoC4/CyDMA.c **** /*******************************************************************************
 161:.\Generated_Source\PSoC4/CyDMA.c **** * Function Name: CyDmaGetActiveSrcAddress
 162:.\Generated_Source\PSoC4/CyDMA.c **** ********************************************************************************
 163:.\Generated_Source\PSoC4/CyDMA.c **** *
 164:.\Generated_Source\PSoC4/CyDMA.c **** * Summary:
 165:.\Generated_Source\PSoC4/CyDMA.c **** *  Returns the source address currently being used by the DMA transfer engine.
 166:.\Generated_Source\PSoC4/CyDMA.c **** *  This function can be used to debug the DMA, or observe where it is at in a
 167:.\Generated_Source\PSoC4/CyDMA.c **** *  transfer. It will not be used in normal DMA operation.
 168:.\Generated_Source\PSoC4/CyDMA.c **** *
 169:.\Generated_Source\PSoC4/CyDMA.c **** * Parameters:
 170:.\Generated_Source\PSoC4/CyDMA.c **** *  None.
 171:.\Generated_Source\PSoC4/CyDMA.c **** *                   
 172:.\Generated_Source\PSoC4/CyDMA.c **** * Return:
 173:.\Generated_Source\PSoC4/CyDMA.c **** *  Source address currently being used by the DMA transfer engine.
 174:.\Generated_Source\PSoC4/CyDMA.c **** *
 175:.\Generated_Source\PSoC4/CyDMA.c **** * Side effect:
 176:.\Generated_Source\PSoC4/CyDMA.c **** *  The series of function calls CyDmaGetActiveSrcAddress(),
 177:.\Generated_Source\PSoC4/CyDMA.c **** *  CyDmaGetActiveDstAddress(), CyDmaGetStatus() are not atomic, the DMA
 178:.\Generated_Source\PSoC4/CyDMA.c **** *  engine may have advanced after one or more of these function calls. Meaning
 179:.\Generated_Source\PSoC4/CyDMA.c **** *  the returns from these three functions may not be related to each other.
 180:.\Generated_Source\PSoC4/CyDMA.c **** *
 181:.\Generated_Source\PSoC4/CyDMA.c **** *******************************************************************************/
 182:.\Generated_Source\PSoC4/CyDMA.c **** void * CyDmaGetActiveSrcAddress(void)
 183:.\Generated_Source\PSoC4/CyDMA.c **** {
 184:.\Generated_Source\PSoC4/CyDMA.c ****     return ((void *)CYDMA_STATUS_SRC_ADDR_REG);
 185:.\Generated_Source\PSoC4/CyDMA.c **** }
 186:.\Generated_Source\PSoC4/CyDMA.c **** 
 187:.\Generated_Source\PSoC4/CyDMA.c **** 
 188:.\Generated_Source\PSoC4/CyDMA.c **** /*******************************************************************************
 189:.\Generated_Source\PSoC4/CyDMA.c **** * Function Name: CyDmaGetActiveDstAddress
 190:.\Generated_Source\PSoC4/CyDMA.c **** ********************************************************************************
 191:.\Generated_Source\PSoC4/CyDMA.c **** *
 192:.\Generated_Source\PSoC4/CyDMA.c **** * Summary:
 193:.\Generated_Source\PSoC4/CyDMA.c **** *  Returns the destination address currently being used by the DMA transfer
 194:.\Generated_Source\PSoC4/CyDMA.c **** *  engine. This function can be used to debug the DMA, or observe where it is at
 195:.\Generated_Source\PSoC4/CyDMA.c **** *  in a transfer. It will not be used in normal DMA operation.
 196:.\Generated_Source\PSoC4/CyDMA.c **** *
 197:.\Generated_Source\PSoC4/CyDMA.c **** * Parameters:
 198:.\Generated_Source\PSoC4/CyDMA.c **** *  None.
 199:.\Generated_Source\PSoC4/CyDMA.c **** *                   
 200:.\Generated_Source\PSoC4/CyDMA.c **** * Return:
 201:.\Generated_Source\PSoC4/CyDMA.c **** *  Destination address currently being used by the DMA transfer engine.
 202:.\Generated_Source\PSoC4/CyDMA.c **** *
 203:.\Generated_Source\PSoC4/CyDMA.c **** * Side effect:
ARM GAS  C:\Users\Tim\AppData\Local\Temp\ccEK2rHG.s 			page 5


 204:.\Generated_Source\PSoC4/CyDMA.c **** *  The series of function calls CyDmaGetActiveSrcAddress(),
 205:.\Generated_Source\PSoC4/CyDMA.c **** *  CyDmaGetActiveDstAddress(), CyDmaGetStatus() are not atomic, the DMA
 206:.\Generated_Source\PSoC4/CyDMA.c **** *  engine may have advanced after one or more of these function calls. Meaning
 207:.\Generated_Source\PSoC4/CyDMA.c **** *  the returns from these three functions may not be related to each other.
 208:.\Generated_Source\PSoC4/CyDMA.c **** *
 209:.\Generated_Source\PSoC4/CyDMA.c **** *******************************************************************************/
 210:.\Generated_Source\PSoC4/CyDMA.c **** void * CyDmaGetActiveDstAddress(void)
 211:.\Generated_Source\PSoC4/CyDMA.c **** {
 212:.\Generated_Source\PSoC4/CyDMA.c ****     return ((void *)CYDMA_STATUS_DST_ADDR_REG);
 213:.\Generated_Source\PSoC4/CyDMA.c **** }
 214:.\Generated_Source\PSoC4/CyDMA.c **** 
 215:.\Generated_Source\PSoC4/CyDMA.c **** 
 216:.\Generated_Source\PSoC4/CyDMA.c **** /*******************************************************************************
 217:.\Generated_Source\PSoC4/CyDMA.c **** * Function Name: CyDmaSetInterruptVector
 218:.\Generated_Source\PSoC4/CyDMA.c **** ********************************************************************************
 219:.\Generated_Source\PSoC4/CyDMA.c **** *
 220:.\Generated_Source\PSoC4/CyDMA.c **** * Summary:
 221:.\Generated_Source\PSoC4/CyDMA.c **** *  Sets the function that will be called by the DMA interrupt. Note, calling
 222:.\Generated_Source\PSoC4/CyDMA.c **** *  CyDmaEnable() for the first time overrides any effect this API could have.
 223:.\Generated_Source\PSoC4/CyDMA.c **** *  Call CyDmaSetInterruptVector() after calling CyDmaEnable() to change
 224:.\Generated_Source\PSoC4/CyDMA.c **** *  the default ISR.
 225:.\Generated_Source\PSoC4/CyDMA.c **** *
 226:.\Generated_Source\PSoC4/CyDMA.c **** * Parameters:
 227:.\Generated_Source\PSoC4/CyDMA.c **** *  interruptVector: Address of the function that will be called by the DMA
 228:.\Generated_Source\PSoC4/CyDMA.c **** *                   interrupt.
 229:.\Generated_Source\PSoC4/CyDMA.c **** * Return:
 230:.\Generated_Source\PSoC4/CyDMA.c **** *  None.
 231:.\Generated_Source\PSoC4/CyDMA.c **** *
 232:.\Generated_Source\PSoC4/CyDMA.c **** * Side effect:
 233:.\Generated_Source\PSoC4/CyDMA.c **** *  Other components that use DMA may register their callback functions to be
 234:.\Generated_Source\PSoC4/CyDMA.c **** *  called from the default DMA ISR. Therefore, changing the DMA ISR to a user
 235:.\Generated_Source\PSoC4/CyDMA.c **** *  defined ISR using this API may prevent these other components from
 236:.\Generated_Source\PSoC4/CyDMA.c **** *  functioning correctly.
 237:.\Generated_Source\PSoC4/CyDMA.c **** *
 238:.\Generated_Source\PSoC4/CyDMA.c **** *******************************************************************************/
 239:.\Generated_Source\PSoC4/CyDMA.c **** void CyDmaSetInterruptVector(cyisraddress interruptVector)
 240:.\Generated_Source\PSoC4/CyDMA.c **** {
 241:.\Generated_Source\PSoC4/CyDMA.c ****     (void)CyIntSetVector(CYDMA_INTR_NUMBER, interruptVector);
 242:.\Generated_Source\PSoC4/CyDMA.c **** }
 243:.\Generated_Source\PSoC4/CyDMA.c **** 
 244:.\Generated_Source\PSoC4/CyDMA.c **** 
 245:.\Generated_Source\PSoC4/CyDMA.c **** /*******************************************************************************
 246:.\Generated_Source\PSoC4/CyDMA.c **** * Function Name: CyDmaGetInterruptSource
 247:.\Generated_Source\PSoC4/CyDMA.c **** ********************************************************************************
 248:.\Generated_Source\PSoC4/CyDMA.c **** *
 249:.\Generated_Source\PSoC4/CyDMA.c **** * Summary:
 250:.\Generated_Source\PSoC4/CyDMA.c **** *  Returns the bit field of which channels generated an interrupt request.
 251:.\Generated_Source\PSoC4/CyDMA.c **** *
 252:.\Generated_Source\PSoC4/CyDMA.c **** * Parameters:
 253:.\Generated_Source\PSoC4/CyDMA.c **** *  None.
 254:.\Generated_Source\PSoC4/CyDMA.c **** *                   
 255:.\Generated_Source\PSoC4/CyDMA.c **** * Return:
 256:.\Generated_Source\PSoC4/CyDMA.c **** *  Bit filed of which channels generated an interrupt request.
 257:.\Generated_Source\PSoC4/CyDMA.c **** *
 258:.\Generated_Source\PSoC4/CyDMA.c **** *******************************************************************************/
 259:.\Generated_Source\PSoC4/CyDMA.c **** uint32 CyDmaGetInterruptSource(void)
 260:.\Generated_Source\PSoC4/CyDMA.c **** {
ARM GAS  C:\Users\Tim\AppData\Local\Temp\ccEK2rHG.s 			page 6


 261:.\Generated_Source\PSoC4/CyDMA.c ****     return (CYDMA_INTR_REG);
 262:.\Generated_Source\PSoC4/CyDMA.c **** }
 263:.\Generated_Source\PSoC4/CyDMA.c **** 
 264:.\Generated_Source\PSoC4/CyDMA.c **** 
 265:.\Generated_Source\PSoC4/CyDMA.c **** /*******************************************************************************
 266:.\Generated_Source\PSoC4/CyDMA.c **** * Function Name: CyDmaClearInterruptSource
 267:.\Generated_Source\PSoC4/CyDMA.c **** ********************************************************************************
 268:.\Generated_Source\PSoC4/CyDMA.c **** *
 269:.\Generated_Source\PSoC4/CyDMA.c **** * Summary:
 270:.\Generated_Source\PSoC4/CyDMA.c **** *  Clears the pending interrupts.
 271:.\Generated_Source\PSoC4/CyDMA.c **** *
 272:.\Generated_Source\PSoC4/CyDMA.c **** * Parameters:
 273:.\Generated_Source\PSoC4/CyDMA.c **** *  interruptMask: Bit field of interrupts to clear.
 274:.\Generated_Source\PSoC4/CyDMA.c **** *                   
 275:.\Generated_Source\PSoC4/CyDMA.c **** * Return:
 276:.\Generated_Source\PSoC4/CyDMA.c **** *  None.
 277:.\Generated_Source\PSoC4/CyDMA.c **** *
 278:.\Generated_Source\PSoC4/CyDMA.c **** *******************************************************************************/
 279:.\Generated_Source\PSoC4/CyDMA.c **** void CyDmaClearInterruptSource(uint32 interruptMask)
 280:.\Generated_Source\PSoC4/CyDMA.c **** {
 281:.\Generated_Source\PSoC4/CyDMA.c ****     CYDMA_INTR_REG = interruptMask;
 282:.\Generated_Source\PSoC4/CyDMA.c **** }
 283:.\Generated_Source\PSoC4/CyDMA.c **** 
 284:.\Generated_Source\PSoC4/CyDMA.c **** 
 285:.\Generated_Source\PSoC4/CyDMA.c **** /*******************************************************************************
 286:.\Generated_Source\PSoC4/CyDMA.c **** * Function Name: CyDmaSetInterruptSourceMask
 287:.\Generated_Source\PSoC4/CyDMA.c **** ********************************************************************************
 288:.\Generated_Source\PSoC4/CyDMA.c **** *
 289:.\Generated_Source\PSoC4/CyDMA.c **** * Summary:
 290:.\Generated_Source\PSoC4/CyDMA.c **** *  Sets mask for interrupt source.
 291:.\Generated_Source\PSoC4/CyDMA.c **** *
 292:.\Generated_Source\PSoC4/CyDMA.c **** * Parameters:
 293:.\Generated_Source\PSoC4/CyDMA.c **** *  interruptmask: Mask corresponding to interrupt bit field.
 294:.\Generated_Source\PSoC4/CyDMA.c **** *                   
 295:.\Generated_Source\PSoC4/CyDMA.c **** * Return:
 296:.\Generated_Source\PSoC4/CyDMA.c **** *  None.
 297:.\Generated_Source\PSoC4/CyDMA.c **** *
 298:.\Generated_Source\PSoC4/CyDMA.c **** *******************************************************************************/
 299:.\Generated_Source\PSoC4/CyDMA.c **** void CyDmaSetInterruptSourceMask(uint32 interruptMask)
 300:.\Generated_Source\PSoC4/CyDMA.c **** {
 301:.\Generated_Source\PSoC4/CyDMA.c ****     CYDMA_INTR_MASK_REG = interruptMask;
 302:.\Generated_Source\PSoC4/CyDMA.c **** }
 303:.\Generated_Source\PSoC4/CyDMA.c **** 
 304:.\Generated_Source\PSoC4/CyDMA.c **** 
 305:.\Generated_Source\PSoC4/CyDMA.c **** /*******************************************************************************
 306:.\Generated_Source\PSoC4/CyDMA.c **** * Function Name: CyDmaGetInterruptSourceMask
 307:.\Generated_Source\PSoC4/CyDMA.c **** ********************************************************************************
 308:.\Generated_Source\PSoC4/CyDMA.c **** *
 309:.\Generated_Source\PSoC4/CyDMA.c **** * Summary:
 310:.\Generated_Source\PSoC4/CyDMA.c **** *  Returns mask for interrupt source.
 311:.\Generated_Source\PSoC4/CyDMA.c **** *
 312:.\Generated_Source\PSoC4/CyDMA.c **** * Parameters:
 313:.\Generated_Source\PSoC4/CyDMA.c **** *  None.
 314:.\Generated_Source\PSoC4/CyDMA.c **** *                   
 315:.\Generated_Source\PSoC4/CyDMA.c **** * Return:
 316:.\Generated_Source\PSoC4/CyDMA.c **** *  Mask corresponding to interrupt bit field.
 317:.\Generated_Source\PSoC4/CyDMA.c **** *
ARM GAS  C:\Users\Tim\AppData\Local\Temp\ccEK2rHG.s 			page 7


 318:.\Generated_Source\PSoC4/CyDMA.c **** *******************************************************************************/
 319:.\Generated_Source\PSoC4/CyDMA.c **** uint32 CyDmaGetInterruptSourceMask(void)
 320:.\Generated_Source\PSoC4/CyDMA.c **** {
 321:.\Generated_Source\PSoC4/CyDMA.c ****     return (CYDMA_INTR_MASK_REG);
 322:.\Generated_Source\PSoC4/CyDMA.c **** }
 323:.\Generated_Source\PSoC4/CyDMA.c **** 
 324:.\Generated_Source\PSoC4/CyDMA.c **** 
 325:.\Generated_Source\PSoC4/CyDMA.c **** /*******************************************************************************
 326:.\Generated_Source\PSoC4/CyDMA.c **** * Function Name: CyDmaGetInterruptSourceMasked
 327:.\Generated_Source\PSoC4/CyDMA.c **** ********************************************************************************
 328:.\Generated_Source\PSoC4/CyDMA.c **** *
 329:.\Generated_Source\PSoC4/CyDMA.c **** * Summary:
 330:.\Generated_Source\PSoC4/CyDMA.c **** *  Returns the bitwise AND of the interrupt source and the interrupt mask.
 331:.\Generated_Source\PSoC4/CyDMA.c **** *
 332:.\Generated_Source\PSoC4/CyDMA.c **** * Parameters:
 333:.\Generated_Source\PSoC4/CyDMA.c **** *  None.
 334:.\Generated_Source\PSoC4/CyDMA.c **** *                   
 335:.\Generated_Source\PSoC4/CyDMA.c **** * Return:
 336:.\Generated_Source\PSoC4/CyDMA.c **** *  Bitwise AND of the interrupt source and the interrupt mask.
 337:.\Generated_Source\PSoC4/CyDMA.c **** *
 338:.\Generated_Source\PSoC4/CyDMA.c **** *******************************************************************************/
 339:.\Generated_Source\PSoC4/CyDMA.c **** uint32 CyDmaGetInterruptSourceMasked(void)
 340:.\Generated_Source\PSoC4/CyDMA.c **** {
 341:.\Generated_Source\PSoC4/CyDMA.c ****     return (CYDMA_INTR_MASKED_REG);
 342:.\Generated_Source\PSoC4/CyDMA.c **** }
 343:.\Generated_Source\PSoC4/CyDMA.c **** 
 344:.\Generated_Source\PSoC4/CyDMA.c **** 
 345:.\Generated_Source\PSoC4/CyDMA.c **** /*******************************************************************************
 346:.\Generated_Source\PSoC4/CyDMA.c **** * Function Name: CyDmaSetInterruptCallback
 347:.\Generated_Source\PSoC4/CyDMA.c **** ********************************************************************************
 348:.\Generated_Source\PSoC4/CyDMA.c **** *
 349:.\Generated_Source\PSoC4/CyDMA.c **** * Summary:
 350:.\Generated_Source\PSoC4/CyDMA.c **** *  Sets a user defined callback function to be called by the DMA interrupt. The
 351:.\Generated_Source\PSoC4/CyDMA.c **** *  function should contain code to process the interrupt request for the 
 352:.\Generated_Source\PSoC4/CyDMA.c **** *  associated DMA channel.
 353:.\Generated_Source\PSoC4/CyDMA.c **** *
 354:.\Generated_Source\PSoC4/CyDMA.c **** * Parameters:
 355:.\Generated_Source\PSoC4/CyDMA.c **** *  channel:  Channel used by this function.
 356:.\Generated_Source\PSoC4/CyDMA.c **** *  callback: Pointer to the user defined callback function.
 357:.\Generated_Source\PSoC4/CyDMA.c **** *
 358:.\Generated_Source\PSoC4/CyDMA.c **** * Return:
 359:.\Generated_Source\PSoC4/CyDMA.c **** *  Pointer to the function previously set for the specified channel. 
 360:.\Generated_Source\PSoC4/CyDMA.c **** *
 361:.\Generated_Source\PSoC4/CyDMA.c **** *******************************************************************************/
 362:.\Generated_Source\PSoC4/CyDMA.c **** cydma_callback_t CyDmaSetInterruptCallback(int32 channel, cydma_callback_t callback)
 363:.\Generated_Source\PSoC4/CyDMA.c **** {
 364:.\Generated_Source\PSoC4/CyDMA.c ****     cydma_callback_t prevCallback;
 365:.\Generated_Source\PSoC4/CyDMA.c **** 
 366:.\Generated_Source\PSoC4/CyDMA.c ****     CYASSERT((channel >= 0) && (channel < CYDMA_CH_NR));
 367:.\Generated_Source\PSoC4/CyDMA.c **** 
 368:.\Generated_Source\PSoC4/CyDMA.c ****     prevCallback = CyDmaInterruptCallback[channel];
 369:.\Generated_Source\PSoC4/CyDMA.c ****     CyDmaInterruptCallback[channel] = callback;
 370:.\Generated_Source\PSoC4/CyDMA.c ****     return (prevCallback);
 371:.\Generated_Source\PSoC4/CyDMA.c **** }
 372:.\Generated_Source\PSoC4/CyDMA.c **** 
 373:.\Generated_Source\PSoC4/CyDMA.c **** 
 374:.\Generated_Source\PSoC4/CyDMA.c **** /*******************************************************************************
ARM GAS  C:\Users\Tim\AppData\Local\Temp\ccEK2rHG.s 			page 8


 375:.\Generated_Source\PSoC4/CyDMA.c **** * Function Name: CyDmaGetInterruptCallback
 376:.\Generated_Source\PSoC4/CyDMA.c **** ********************************************************************************
 377:.\Generated_Source\PSoC4/CyDMA.c **** *
 378:.\Generated_Source\PSoC4/CyDMA.c **** * Summary:
 379:.\Generated_Source\PSoC4/CyDMA.c **** *  Returns the pointer to the interrupt callback function for the specified DMA
 380:.\Generated_Source\PSoC4/CyDMA.c **** *  channel.
 381:.\Generated_Source\PSoC4/CyDMA.c **** *
 382:.\Generated_Source\PSoC4/CyDMA.c **** * Parameters:
 383:.\Generated_Source\PSoC4/CyDMA.c **** *  channel: Channel used by this function.
 384:.\Generated_Source\PSoC4/CyDMA.c **** *
 385:.\Generated_Source\PSoC4/CyDMA.c **** * Return:
 386:.\Generated_Source\PSoC4/CyDMA.c **** *  Callback function pointer for the specified channel.
 387:.\Generated_Source\PSoC4/CyDMA.c **** *
 388:.\Generated_Source\PSoC4/CyDMA.c **** *******************************************************************************/
 389:.\Generated_Source\PSoC4/CyDMA.c **** cydma_callback_t CyDmaGetInterruptCallback(int32 channel)
 390:.\Generated_Source\PSoC4/CyDMA.c **** {
 391:.\Generated_Source\PSoC4/CyDMA.c ****     CYASSERT((channel >= 0) && (channel < CYDMA_CH_NR));
 392:.\Generated_Source\PSoC4/CyDMA.c ****     
 393:.\Generated_Source\PSoC4/CyDMA.c ****     return (CyDmaInterruptCallback[channel]);
 394:.\Generated_Source\PSoC4/CyDMA.c **** }
 395:.\Generated_Source\PSoC4/CyDMA.c **** 
 396:.\Generated_Source\PSoC4/CyDMA.c **** 
 397:.\Generated_Source\PSoC4/CyDMA.c **** /*******************************************************************************
 398:.\Generated_Source\PSoC4/CyDMA.c **** * Function Name: CyDmaInterrupt
 399:.\Generated_Source\PSoC4/CyDMA.c **** ********************************************************************************
 400:.\Generated_Source\PSoC4/CyDMA.c **** *
 401:.\Generated_Source\PSoC4/CyDMA.c **** * Summary:
 402:.\Generated_Source\PSoC4/CyDMA.c **** *  The default ISR for DMA interrupts. The handler checks which DMA channel has
 403:.\Generated_Source\PSoC4/CyDMA.c **** *  triggered the interrupt and calls the user defined callback function.
 404:.\Generated_Source\PSoC4/CyDMA.c **** *  The callback function is set using CyDmaSetInteruptCallback() API.
 405:.\Generated_Source\PSoC4/CyDMA.c **** *
 406:.\Generated_Source\PSoC4/CyDMA.c **** * Parameters:
 407:.\Generated_Source\PSoC4/CyDMA.c **** *  None.
 408:.\Generated_Source\PSoC4/CyDMA.c **** *
 409:.\Generated_Source\PSoC4/CyDMA.c **** * Return:
 410:.\Generated_Source\PSoC4/CyDMA.c **** *  None.
 411:.\Generated_Source\PSoC4/CyDMA.c **** *
 412:.\Generated_Source\PSoC4/CyDMA.c **** * Side Effects:
 413:.\Generated_Source\PSoC4/CyDMA.c **** *  This function clears the pending interrupts.
 414:.\Generated_Source\PSoC4/CyDMA.c **** *
 415:.\Generated_Source\PSoC4/CyDMA.c **** *******************************************************************************/
 416:.\Generated_Source\PSoC4/CyDMA.c **** CY_ISR(CyDmaInterrupt)
 417:.\Generated_Source\PSoC4/CyDMA.c **** {
  26              		.loc 1 417 0
  27              		.cfi_startproc
  28 0000 38B5     		push	{r3, r4, r5, lr}
  29              		.cfi_def_cfa_offset 16
  30              		.cfi_offset 3, -16
  31              		.cfi_offset 4, -12
  32              		.cfi_offset 5, -8
  33              		.cfi_offset 14, -4
  34              	.LVL0:
 418:.\Generated_Source\PSoC4/CyDMA.c ****     uint32 intr;
 419:.\Generated_Source\PSoC4/CyDMA.c ****     uint32 cbIdx = 0u;
 420:.\Generated_Source\PSoC4/CyDMA.c **** 
 421:.\Generated_Source\PSoC4/CyDMA.c ****     /* Get interrupt source. */
 422:.\Generated_Source\PSoC4/CyDMA.c ****     intr = CYDMA_INTR_MASKED_REG;
ARM GAS  C:\Users\Tim\AppData\Local\Temp\ccEK2rHG.s 			page 9


  35              		.loc 1 422 0
  36 0002 084B     		ldr	r3, .L5
  37 0004 1C68     		ldr	r4, [r3]
  38              	.LVL1:
 423:.\Generated_Source\PSoC4/CyDMA.c **** 
 424:.\Generated_Source\PSoC4/CyDMA.c ****     /* Clear pending interrupts. */
 425:.\Generated_Source\PSoC4/CyDMA.c ****     CYDMA_INTR_REG = intr;
  39              		.loc 1 425 0
  40 0006 084B     		ldr	r3, .L5+4
  41 0008 1C60     		str	r4, [r3]
 419:.\Generated_Source\PSoC4/CyDMA.c **** 
  42              		.loc 1 419 0
  43 000a 0025     		mov	r5, #0
 426:.\Generated_Source\PSoC4/CyDMA.c **** 
 427:.\Generated_Source\PSoC4/CyDMA.c ****     /* Call user defined callback functions for triggered interrupt sources. */
 428:.\Generated_Source\PSoC4/CyDMA.c ****     while(0u != intr)
  44              		.loc 1 428 0
  45 000c 07E0     		b	.L2
  46              	.LVL2:
  47              	.L4:
 429:.\Generated_Source\PSoC4/CyDMA.c ****     {
 430:.\Generated_Source\PSoC4/CyDMA.c ****         if(0u != (intr & 0x1u))
  48              		.loc 1 430 0
  49 000e E307     		lsl	r3, r4, #31
  50 0010 03D5     		bpl	.L3
 431:.\Generated_Source\PSoC4/CyDMA.c ****         {
 432:.\Generated_Source\PSoC4/CyDMA.c ****             CyDmaInterruptCallback[cbIdx]();
  51              		.loc 1 432 0
  52 0012 AB00     		lsl	r3, r5, #2
  53 0014 054A     		ldr	r2, .L5+8
  54 0016 9B58     		ldr	r3, [r3, r2]
  55 0018 9847     		blx	r3
  56              	.LVL3:
  57              	.L3:
 433:.\Generated_Source\PSoC4/CyDMA.c ****         }
 434:.\Generated_Source\PSoC4/CyDMA.c ****         intr >>= 1;
  58              		.loc 1 434 0
  59 001a 6408     		lsr	r4, r4, #1
  60              	.LVL4:
 435:.\Generated_Source\PSoC4/CyDMA.c ****         ++cbIdx;
  61              		.loc 1 435 0
  62 001c 0135     		add	r5, r5, #1
  63              	.LVL5:
  64              	.L2:
 428:.\Generated_Source\PSoC4/CyDMA.c ****     {
  65              		.loc 1 428 0
  66 001e 002C     		cmp	r4, #0
  67 0020 F5D1     		bne	.L4
 436:.\Generated_Source\PSoC4/CyDMA.c ****     }
 437:.\Generated_Source\PSoC4/CyDMA.c **** }
  68              		.loc 1 437 0
  69              		@ sp needed
  70              	.LVL6:
  71              	.LVL7:
  72 0022 38BD     		pop	{r3, r4, r5, pc}
  73              	.L6:
  74              		.align	2
ARM GAS  C:\Users\Tim\AppData\Local\Temp\ccEK2rHG.s 			page 10


  75              	.L5:
  76 0024 FC171040 		.word	1074796540
  77 0028 F0171040 		.word	1074796528
  78 002c 00000000 		.word	.LANCHOR0
  79              		.cfi_endproc
  80              	.LFE16:
  81              		.size	CyDmaInterrupt, .-CyDmaInterrupt
  82              		.section	.text.CyDmaDefaultInterruptCallback,"ax",%progbits
  83              		.align	2
  84              		.code	16
  85              		.thumb_func
  86              		.type	CyDmaDefaultInterruptCallback, %function
  87              	CyDmaDefaultInterruptCallback:
  88              	.LFB17:
 438:.\Generated_Source\PSoC4/CyDMA.c **** 
 439:.\Generated_Source\PSoC4/CyDMA.c **** 
 440:.\Generated_Source\PSoC4/CyDMA.c **** /*******************************************************************************
 441:.\Generated_Source\PSoC4/CyDMA.c **** * Function Name: CyDmaDefaultInterruptCallback
 442:.\Generated_Source\PSoC4/CyDMA.c **** ********************************************************************************
 443:.\Generated_Source\PSoC4/CyDMA.c **** *
 444:.\Generated_Source\PSoC4/CyDMA.c **** * Summary:
 445:.\Generated_Source\PSoC4/CyDMA.c **** *  This function is invoked when the user defined callback function is undefined
 446:.\Generated_Source\PSoC4/CyDMA.c **** *  for the interrupt source.
 447:.\Generated_Source\PSoC4/CyDMA.c **** *
 448:.\Generated_Source\PSoC4/CyDMA.c **** * Parameters:
 449:.\Generated_Source\PSoC4/CyDMA.c **** *  None.
 450:.\Generated_Source\PSoC4/CyDMA.c **** *
 451:.\Generated_Source\PSoC4/CyDMA.c **** * Return:
 452:.\Generated_Source\PSoC4/CyDMA.c **** *  None.
 453:.\Generated_Source\PSoC4/CyDMA.c **** *
 454:.\Generated_Source\PSoC4/CyDMA.c **** *******************************************************************************/
 455:.\Generated_Source\PSoC4/CyDMA.c **** static void CyDmaDefaultInterruptCallback(void)
 456:.\Generated_Source\PSoC4/CyDMA.c **** {
  89              		.loc 1 456 0
  90              		.cfi_startproc
  91 0000 08B5     		push	{r3, lr}
  92              		.cfi_def_cfa_offset 8
  93              		.cfi_offset 3, -8
  94              		.cfi_offset 14, -4
 457:.\Generated_Source\PSoC4/CyDMA.c ****     /* Halt CPU in debug mode. We get here because there is no user defined
 458:.\Generated_Source\PSoC4/CyDMA.c ****     * callback function for the interrupt source. You should either set a
 459:.\Generated_Source\PSoC4/CyDMA.c ****     * callback function or disable generating an interrupt from this
 460:.\Generated_Source\PSoC4/CyDMA.c ****     * interrupt source.
 461:.\Generated_Source\PSoC4/CyDMA.c ****     * To set a callback, use the CyDmaSetInterruptCallback() API function.
 462:.\Generated_Source\PSoC4/CyDMA.c ****     * To disable interrupt generation, write '0' to the corresponding bit
 463:.\Generated_Source\PSoC4/CyDMA.c ****     * in the interrupt mask by calling CyDmaSetInterruptSourceMask().
 464:.\Generated_Source\PSoC4/CyDMA.c ****     */
 465:.\Generated_Source\PSoC4/CyDMA.c ****     CYASSERT(0 != 0);
  95              		.loc 1 465 0
  96 0002 0020     		mov	r0, #0
  97 0004 FFF7FEFF 		bl	CyHalt
  98              	.LVL8:
 466:.\Generated_Source\PSoC4/CyDMA.c **** }
  99              		.loc 1 466 0
 100              		@ sp needed
 101 0008 08BD     		pop	{r3, pc}
 102              		.cfi_endproc
ARM GAS  C:\Users\Tim\AppData\Local\Temp\ccEK2rHG.s 			page 11


 103              	.LFE17:
 104              		.size	CyDmaDefaultInterruptCallback, .-CyDmaDefaultInterruptCallback
 105 000a C046     		.section	.text.CyDmaDisable,"ax",%progbits
 106              		.align	2
 107              		.global	CyDmaDisable
 108              		.code	16
 109              		.thumb_func
 110              		.type	CyDmaDisable, %function
 111              	CyDmaDisable:
 112              	.LFB3:
 106:.\Generated_Source\PSoC4/CyDMA.c ****     CYDMA_CTL_REG = (uint32)~CYDMA_ENABLED;
 113              		.loc 1 106 0
 114              		.cfi_startproc
 107:.\Generated_Source\PSoC4/CyDMA.c **** }
 115              		.loc 1 107 0
 116 0000 014A     		ldr	r2, .L9
 117 0002 024B     		ldr	r3, .L9+4
 118 0004 1A60     		str	r2, [r3]
 108:.\Generated_Source\PSoC4/CyDMA.c **** 
 119              		.loc 1 108 0
 120              		@ sp needed
 121 0006 7047     		bx	lr
 122              	.L10:
 123              		.align	2
 124              	.L9:
 125 0008 FFFFFF7F 		.word	2147483647
 126 000c 00101040 		.word	1074794496
 127              		.cfi_endproc
 128              	.LFE3:
 129              		.size	CyDmaDisable, .-CyDmaDisable
 130              		.section	.text.CyDmaGetStatus,"ax",%progbits
 131              		.align	2
 132              		.global	CyDmaGetStatus
 133              		.code	16
 134              		.thumb_func
 135              		.type	CyDmaGetStatus, %function
 136              	CyDmaGetStatus:
 137              	.LFB4:
 134:.\Generated_Source\PSoC4/CyDMA.c ****     return (CYDMA_STATUS_REG);
 138              		.loc 1 134 0
 139              		.cfi_startproc
 135:.\Generated_Source\PSoC4/CyDMA.c **** }
 140              		.loc 1 135 0
 141 0000 014B     		ldr	r3, .L12
 142 0002 1868     		ldr	r0, [r3]
 136:.\Generated_Source\PSoC4/CyDMA.c **** 
 143              		.loc 1 136 0
 144              		@ sp needed
 145 0004 7047     		bx	lr
 146              	.L13:
 147 0006 C046     		.align	2
 148              	.L12:
 149 0008 10101040 		.word	1074794512
 150              		.cfi_endproc
 151              	.LFE4:
 152              		.size	CyDmaGetStatus, .-CyDmaGetStatus
 153              		.section	.text.CyDmaGetActiveChannels,"ax",%progbits
ARM GAS  C:\Users\Tim\AppData\Local\Temp\ccEK2rHG.s 			page 12


 154              		.align	2
 155              		.global	CyDmaGetActiveChannels
 156              		.code	16
 157              		.thumb_func
 158              		.type	CyDmaGetActiveChannels, %function
 159              	CyDmaGetActiveChannels:
 160              	.LFB5:
 155:.\Generated_Source\PSoC4/CyDMA.c ****     return (CYDMA_STATUS_CH_ACT_REG);
 161              		.loc 1 155 0
 162              		.cfi_startproc
 156:.\Generated_Source\PSoC4/CyDMA.c **** }
 163              		.loc 1 156 0
 164 0000 014B     		ldr	r3, .L15
 165 0002 1868     		ldr	r0, [r3]
 157:.\Generated_Source\PSoC4/CyDMA.c **** 
 166              		.loc 1 157 0
 167              		@ sp needed
 168 0004 7047     		bx	lr
 169              	.L16:
 170 0006 C046     		.align	2
 171              	.L15:
 172 0008 1C101040 		.word	1074794524
 173              		.cfi_endproc
 174              	.LFE5:
 175              		.size	CyDmaGetActiveChannels, .-CyDmaGetActiveChannels
 176              		.section	.text.CyDmaGetActiveSrcAddress,"ax",%progbits
 177              		.align	2
 178              		.global	CyDmaGetActiveSrcAddress
 179              		.code	16
 180              		.thumb_func
 181              		.type	CyDmaGetActiveSrcAddress, %function
 182              	CyDmaGetActiveSrcAddress:
 183              	.LFB6:
 183:.\Generated_Source\PSoC4/CyDMA.c ****     return ((void *)CYDMA_STATUS_SRC_ADDR_REG);
 184              		.loc 1 183 0
 185              		.cfi_startproc
 184:.\Generated_Source\PSoC4/CyDMA.c **** }
 186              		.loc 1 184 0
 187 0000 014B     		ldr	r3, .L18
 188 0002 1868     		ldr	r0, [r3]
 185:.\Generated_Source\PSoC4/CyDMA.c **** 
 189              		.loc 1 185 0
 190              		@ sp needed
 191 0004 7047     		bx	lr
 192              	.L19:
 193 0006 C046     		.align	2
 194              	.L18:
 195 0008 14101040 		.word	1074794516
 196              		.cfi_endproc
 197              	.LFE6:
 198              		.size	CyDmaGetActiveSrcAddress, .-CyDmaGetActiveSrcAddress
 199              		.section	.text.CyDmaGetActiveDstAddress,"ax",%progbits
 200              		.align	2
 201              		.global	CyDmaGetActiveDstAddress
 202              		.code	16
 203              		.thumb_func
 204              		.type	CyDmaGetActiveDstAddress, %function
ARM GAS  C:\Users\Tim\AppData\Local\Temp\ccEK2rHG.s 			page 13


 205              	CyDmaGetActiveDstAddress:
 206              	.LFB7:
 211:.\Generated_Source\PSoC4/CyDMA.c ****     return ((void *)CYDMA_STATUS_DST_ADDR_REG);
 207              		.loc 1 211 0
 208              		.cfi_startproc
 212:.\Generated_Source\PSoC4/CyDMA.c **** }
 209              		.loc 1 212 0
 210 0000 014B     		ldr	r3, .L21
 211 0002 1868     		ldr	r0, [r3]
 213:.\Generated_Source\PSoC4/CyDMA.c **** 
 212              		.loc 1 213 0
 213              		@ sp needed
 214 0004 7047     		bx	lr
 215              	.L22:
 216 0006 C046     		.align	2
 217              	.L21:
 218 0008 18101040 		.word	1074794520
 219              		.cfi_endproc
 220              	.LFE7:
 221              		.size	CyDmaGetActiveDstAddress, .-CyDmaGetActiveDstAddress
 222              		.section	.text.CyDmaSetInterruptVector,"ax",%progbits
 223              		.align	2
 224              		.global	CyDmaSetInterruptVector
 225              		.code	16
 226              		.thumb_func
 227              		.type	CyDmaSetInterruptVector, %function
 228              	CyDmaSetInterruptVector:
 229              	.LFB8:
 240:.\Generated_Source\PSoC4/CyDMA.c ****     (void)CyIntSetVector(CYDMA_INTR_NUMBER, interruptVector);
 230              		.loc 1 240 0
 231              		.cfi_startproc
 232              	.LVL9:
 233 0000 08B5     		push	{r3, lr}
 234              		.cfi_def_cfa_offset 8
 235              		.cfi_offset 3, -8
 236              		.cfi_offset 14, -4
 237 0002 011C     		mov	r1, r0
 241:.\Generated_Source\PSoC4/CyDMA.c **** }
 238              		.loc 1 241 0
 239 0004 0E20     		mov	r0, #14
 240              	.LVL10:
 241 0006 FFF7FEFF 		bl	CyIntSetVector
 242              	.LVL11:
 242:.\Generated_Source\PSoC4/CyDMA.c **** 
 243              		.loc 1 242 0
 244              		@ sp needed
 245 000a 08BD     		pop	{r3, pc}
 246              		.cfi_endproc
 247              	.LFE8:
 248              		.size	CyDmaSetInterruptVector, .-CyDmaSetInterruptVector
 249              		.section	.text.CyDmaEnable,"ax",%progbits
 250              		.align	2
 251              		.global	CyDmaEnable
 252              		.code	16
 253              		.thumb_func
 254              		.type	CyDmaEnable, %function
 255              	CyDmaEnable:
ARM GAS  C:\Users\Tim\AppData\Local\Temp\ccEK2rHG.s 			page 14


 256              	.LFB2:
  75:.\Generated_Source\PSoC4/CyDMA.c ****     static uint8 initIntrVector = 0u;
 257              		.loc 1 75 0
 258              		.cfi_startproc
 259 0000 08B5     		push	{r3, lr}
 260              		.cfi_def_cfa_offset 8
 261              		.cfi_offset 3, -8
 262              		.cfi_offset 14, -4
  78:.\Generated_Source\PSoC4/CyDMA.c ****     {
 263              		.loc 1 78 0
 264 0002 094B     		ldr	r3, .L26
 265 0004 1B78     		ldrb	r3, [r3]
 266 0006 002B     		cmp	r3, #0
 267 0008 09D1     		bne	.L25
  80:.\Generated_Source\PSoC4/CyDMA.c ****         CyIntSetPriority(CYDMA_INTR_NUMBER, CYDMA_INTR_PRIO);
 268              		.loc 1 80 0
 269 000a 0848     		ldr	r0, .L26+4
 270 000c FFF7FEFF 		bl	CyDmaSetInterruptVector
 271              	.LVL12:
  81:.\Generated_Source\PSoC4/CyDMA.c ****         initIntrVector = 1u;
 272              		.loc 1 81 0
 273 0010 0E20     		mov	r0, #14
 274 0012 0321     		mov	r1, #3
 275 0014 FFF7FEFF 		bl	CyIntSetPriority
 276              	.LVL13:
  82:.\Generated_Source\PSoC4/CyDMA.c ****     }
 277              		.loc 1 82 0
 278 0018 0122     		mov	r2, #1
 279 001a 034B     		ldr	r3, .L26
 280 001c 1A70     		strb	r2, [r3]
 281              	.L25:
  84:.\Generated_Source\PSoC4/CyDMA.c **** }
 282              		.loc 1 84 0
 283 001e 8022     		mov	r2, #128
 284 0020 1206     		lsl	r2, r2, #24
 285 0022 034B     		ldr	r3, .L26+8
 286 0024 1A60     		str	r2, [r3]
  85:.\Generated_Source\PSoC4/CyDMA.c **** 
 287              		.loc 1 85 0
 288              		@ sp needed
 289 0026 08BD     		pop	{r3, pc}
 290              	.L27:
 291              		.align	2
 292              	.L26:
 293 0028 00000000 		.word	.LANCHOR1
 294 002c 00000000 		.word	CyDmaInterrupt
 295 0030 00101040 		.word	1074794496
 296              		.cfi_endproc
 297              	.LFE2:
 298              		.size	CyDmaEnable, .-CyDmaEnable
 299              		.section	.text.CyDmaGetInterruptSource,"ax",%progbits
 300              		.align	2
 301              		.global	CyDmaGetInterruptSource
 302              		.code	16
 303              		.thumb_func
 304              		.type	CyDmaGetInterruptSource, %function
 305              	CyDmaGetInterruptSource:
ARM GAS  C:\Users\Tim\AppData\Local\Temp\ccEK2rHG.s 			page 15


 306              	.LFB9:
 260:.\Generated_Source\PSoC4/CyDMA.c ****     return (CYDMA_INTR_REG);
 307              		.loc 1 260 0
 308              		.cfi_startproc
 261:.\Generated_Source\PSoC4/CyDMA.c **** }
 309              		.loc 1 261 0
 310 0000 014B     		ldr	r3, .L29
 311 0002 1868     		ldr	r0, [r3]
 262:.\Generated_Source\PSoC4/CyDMA.c **** 
 312              		.loc 1 262 0
 313              		@ sp needed
 314 0004 7047     		bx	lr
 315              	.L30:
 316 0006 C046     		.align	2
 317              	.L29:
 318 0008 F0171040 		.word	1074796528
 319              		.cfi_endproc
 320              	.LFE9:
 321              		.size	CyDmaGetInterruptSource, .-CyDmaGetInterruptSource
 322              		.section	.text.CyDmaClearInterruptSource,"ax",%progbits
 323              		.align	2
 324              		.global	CyDmaClearInterruptSource
 325              		.code	16
 326              		.thumb_func
 327              		.type	CyDmaClearInterruptSource, %function
 328              	CyDmaClearInterruptSource:
 329              	.LFB10:
 280:.\Generated_Source\PSoC4/CyDMA.c ****     CYDMA_INTR_REG = interruptMask;
 330              		.loc 1 280 0
 331              		.cfi_startproc
 332              	.LVL14:
 281:.\Generated_Source\PSoC4/CyDMA.c **** }
 333              		.loc 1 281 0
 334 0000 014B     		ldr	r3, .L32
 335 0002 1860     		str	r0, [r3]
 282:.\Generated_Source\PSoC4/CyDMA.c **** 
 336              		.loc 1 282 0
 337              		@ sp needed
 338 0004 7047     		bx	lr
 339              	.L33:
 340 0006 C046     		.align	2
 341              	.L32:
 342 0008 F0171040 		.word	1074796528
 343              		.cfi_endproc
 344              	.LFE10:
 345              		.size	CyDmaClearInterruptSource, .-CyDmaClearInterruptSource
 346              		.section	.text.CyDmaSetInterruptSourceMask,"ax",%progbits
 347              		.align	2
 348              		.global	CyDmaSetInterruptSourceMask
 349              		.code	16
 350              		.thumb_func
 351              		.type	CyDmaSetInterruptSourceMask, %function
 352              	CyDmaSetInterruptSourceMask:
 353              	.LFB11:
 300:.\Generated_Source\PSoC4/CyDMA.c ****     CYDMA_INTR_MASK_REG = interruptMask;
 354              		.loc 1 300 0
 355              		.cfi_startproc
ARM GAS  C:\Users\Tim\AppData\Local\Temp\ccEK2rHG.s 			page 16


 356              	.LVL15:
 301:.\Generated_Source\PSoC4/CyDMA.c **** }
 357              		.loc 1 301 0
 358 0000 014B     		ldr	r3, .L35
 359 0002 1860     		str	r0, [r3]
 302:.\Generated_Source\PSoC4/CyDMA.c **** 
 360              		.loc 1 302 0
 361              		@ sp needed
 362 0004 7047     		bx	lr
 363              	.L36:
 364 0006 C046     		.align	2
 365              	.L35:
 366 0008 F8171040 		.word	1074796536
 367              		.cfi_endproc
 368              	.LFE11:
 369              		.size	CyDmaSetInterruptSourceMask, .-CyDmaSetInterruptSourceMask
 370              		.section	.text.CyDmaGetInterruptSourceMask,"ax",%progbits
 371              		.align	2
 372              		.global	CyDmaGetInterruptSourceMask
 373              		.code	16
 374              		.thumb_func
 375              		.type	CyDmaGetInterruptSourceMask, %function
 376              	CyDmaGetInterruptSourceMask:
 377              	.LFB12:
 320:.\Generated_Source\PSoC4/CyDMA.c ****     return (CYDMA_INTR_MASK_REG);
 378              		.loc 1 320 0
 379              		.cfi_startproc
 321:.\Generated_Source\PSoC4/CyDMA.c **** }
 380              		.loc 1 321 0
 381 0000 014B     		ldr	r3, .L38
 382 0002 1868     		ldr	r0, [r3]
 322:.\Generated_Source\PSoC4/CyDMA.c **** 
 383              		.loc 1 322 0
 384              		@ sp needed
 385 0004 7047     		bx	lr
 386              	.L39:
 387 0006 C046     		.align	2
 388              	.L38:
 389 0008 F8171040 		.word	1074796536
 390              		.cfi_endproc
 391              	.LFE12:
 392              		.size	CyDmaGetInterruptSourceMask, .-CyDmaGetInterruptSourceMask
 393              		.section	.text.CyDmaGetInterruptSourceMasked,"ax",%progbits
 394              		.align	2
 395              		.global	CyDmaGetInterruptSourceMasked
 396              		.code	16
 397              		.thumb_func
 398              		.type	CyDmaGetInterruptSourceMasked, %function
 399              	CyDmaGetInterruptSourceMasked:
 400              	.LFB13:
 340:.\Generated_Source\PSoC4/CyDMA.c ****     return (CYDMA_INTR_MASKED_REG);
 401              		.loc 1 340 0
 402              		.cfi_startproc
 341:.\Generated_Source\PSoC4/CyDMA.c **** }
 403              		.loc 1 341 0
 404 0000 014B     		ldr	r3, .L41
 405 0002 1868     		ldr	r0, [r3]
ARM GAS  C:\Users\Tim\AppData\Local\Temp\ccEK2rHG.s 			page 17


 342:.\Generated_Source\PSoC4/CyDMA.c **** 
 406              		.loc 1 342 0
 407              		@ sp needed
 408 0004 7047     		bx	lr
 409              	.L42:
 410 0006 C046     		.align	2
 411              	.L41:
 412 0008 FC171040 		.word	1074796540
 413              		.cfi_endproc
 414              	.LFE13:
 415              		.size	CyDmaGetInterruptSourceMasked, .-CyDmaGetInterruptSourceMasked
 416              		.section	.text.CyDmaSetInterruptCallback,"ax",%progbits
 417              		.align	2
 418              		.global	CyDmaSetInterruptCallback
 419              		.code	16
 420              		.thumb_func
 421              		.type	CyDmaSetInterruptCallback, %function
 422              	CyDmaSetInterruptCallback:
 423              	.LFB14:
 363:.\Generated_Source\PSoC4/CyDMA.c ****     cydma_callback_t prevCallback;
 424              		.loc 1 363 0
 425              		.cfi_startproc
 426              	.LVL16:
 427 0000 38B5     		push	{r3, r4, r5, lr}
 428              		.cfi_def_cfa_offset 16
 429              		.cfi_offset 3, -16
 430              		.cfi_offset 4, -12
 431              		.cfi_offset 5, -8
 432              		.cfi_offset 14, -4
 433 0002 041C     		mov	r4, r0
 434 0004 0D1C     		mov	r5, r1
 366:.\Generated_Source\PSoC4/CyDMA.c **** 
 435              		.loc 1 366 0
 436 0006 1F28     		cmp	r0, #31
 437 0008 02D9     		bls	.L44
 366:.\Generated_Source\PSoC4/CyDMA.c **** 
 438              		.loc 1 366 0 is_stmt 0 discriminator 1
 439 000a 0020     		mov	r0, #0
 440              	.LVL17:
 441 000c FFF7FEFF 		bl	CyHalt
 442              	.LVL18:
 443              	.L44:
 368:.\Generated_Source\PSoC4/CyDMA.c ****     CyDmaInterruptCallback[channel] = callback;
 444              		.loc 1 368 0 is_stmt 1
 445 0010 024B     		ldr	r3, .L45
 446 0012 A400     		lsl	r4, r4, #2
 447              	.LVL19:
 448 0014 E058     		ldr	r0, [r4, r3]
 449              	.LVL20:
 369:.\Generated_Source\PSoC4/CyDMA.c ****     return (prevCallback);
 450              		.loc 1 369 0
 451 0016 E550     		str	r5, [r4, r3]
 371:.\Generated_Source\PSoC4/CyDMA.c **** 
 452              		.loc 1 371 0
 453              		@ sp needed
 454              	.LVL21:
 455 0018 38BD     		pop	{r3, r4, r5, pc}
ARM GAS  C:\Users\Tim\AppData\Local\Temp\ccEK2rHG.s 			page 18


 456              	.L46:
 457 001a C046     		.align	2
 458              	.L45:
 459 001c 00000000 		.word	.LANCHOR0
 460              		.cfi_endproc
 461              	.LFE14:
 462              		.size	CyDmaSetInterruptCallback, .-CyDmaSetInterruptCallback
 463              		.section	.text.CyDmaGetInterruptCallback,"ax",%progbits
 464              		.align	2
 465              		.global	CyDmaGetInterruptCallback
 466              		.code	16
 467              		.thumb_func
 468              		.type	CyDmaGetInterruptCallback, %function
 469              	CyDmaGetInterruptCallback:
 470              	.LFB15:
 390:.\Generated_Source\PSoC4/CyDMA.c ****     CYASSERT((channel >= 0) && (channel < CYDMA_CH_NR));
 471              		.loc 1 390 0
 472              		.cfi_startproc
 473              	.LVL22:
 474 0000 10B5     		push	{r4, lr}
 475              		.cfi_def_cfa_offset 8
 476              		.cfi_offset 4, -8
 477              		.cfi_offset 14, -4
 478 0002 041E     		sub	r4, r0, #0
 391:.\Generated_Source\PSoC4/CyDMA.c ****     
 479              		.loc 1 391 0
 480 0004 1F2C     		cmp	r4, #31
 481 0006 02D9     		bls	.L48
 391:.\Generated_Source\PSoC4/CyDMA.c ****     
 482              		.loc 1 391 0 is_stmt 0 discriminator 1
 483 0008 0020     		mov	r0, #0
 484              	.LVL23:
 485 000a FFF7FEFF 		bl	CyHalt
 486              	.LVL24:
 487              	.L48:
 393:.\Generated_Source\PSoC4/CyDMA.c **** }
 488              		.loc 1 393 0 is_stmt 1
 489 000e A400     		lsl	r4, r4, #2
 490              	.LVL25:
 491 0010 014B     		ldr	r3, .L49
 492 0012 E058     		ldr	r0, [r4, r3]
 394:.\Generated_Source\PSoC4/CyDMA.c **** 
 493              		.loc 1 394 0
 494              		@ sp needed
 495 0014 10BD     		pop	{r4, pc}
 496              	.L50:
 497 0016 C046     		.align	2
 498              	.L49:
 499 0018 00000000 		.word	.LANCHOR0
 500              		.cfi_endproc
 501              	.LFE15:
 502              		.size	CyDmaGetInterruptCallback, .-CyDmaGetInterruptCallback
 503              		.section	.text.CyDmaChAlloc,"ax",%progbits
 504              		.align	2
 505              		.global	CyDmaChAlloc
 506              		.code	16
 507              		.thumb_func
ARM GAS  C:\Users\Tim\AppData\Local\Temp\ccEK2rHG.s 			page 19


 508              		.type	CyDmaChAlloc, %function
 509              	CyDmaChAlloc:
 510              	.LFB18:
 467:.\Generated_Source\PSoC4/CyDMA.c **** 
 468:.\Generated_Source\PSoC4/CyDMA.c **** 
 469:.\Generated_Source\PSoC4/CyDMA.c **** /*******************************************************************************
 470:.\Generated_Source\PSoC4/CyDMA.c **** * Function Name: CyDmaChAlloc
 471:.\Generated_Source\PSoC4/CyDMA.c **** ********************************************************************************
 472:.\Generated_Source\PSoC4/CyDMA.c **** *
 473:.\Generated_Source\PSoC4/CyDMA.c **** * Summary:
 474:.\Generated_Source\PSoC4/CyDMA.c **** *  Allocates a channel number to use with later DMA functions.
 475:.\Generated_Source\PSoC4/CyDMA.c **** *
 476:.\Generated_Source\PSoC4/CyDMA.c **** * Parameters:
 477:.\Generated_Source\PSoC4/CyDMA.c **** *  None.
 478:.\Generated_Source\PSoC4/CyDMA.c **** *                   
 479:.\Generated_Source\PSoC4/CyDMA.c **** * Return:
 480:.\Generated_Source\PSoC4/CyDMA.c **** *  The allocated channel number. Zero is a valid channel number.
 481:.\Generated_Source\PSoC4/CyDMA.c **** *  CYDMA_INVALID_CHANNEL is returned if there are no channels available.
 482:.\Generated_Source\PSoC4/CyDMA.c **** *
 483:.\Generated_Source\PSoC4/CyDMA.c **** *******************************************************************************/
 484:.\Generated_Source\PSoC4/CyDMA.c **** int32 CyDmaChAlloc(void)
 485:.\Generated_Source\PSoC4/CyDMA.c **** {
 511              		.loc 1 485 0
 512              		.cfi_startproc
 513              	.LVL26:
 486:.\Generated_Source\PSoC4/CyDMA.c ****     int32  channel = CYDMA_CH_NR-1;
 487:.\Generated_Source\PSoC4/CyDMA.c ****     uint32 channelMask = (uint32)(1UL << (CYDMA_CH_NR-1));
 514              		.loc 1 487 0
 515 0000 8023     		mov	r3, #128
 516 0002 1B06     		lsl	r3, r3, #24
 486:.\Generated_Source\PSoC4/CyDMA.c ****     int32  channel = CYDMA_CH_NR-1;
 517              		.loc 1 486 0
 518 0004 1F20     		mov	r0, #31
 488:.\Generated_Source\PSoC4/CyDMA.c ****     
 489:.\Generated_Source\PSoC4/CyDMA.c ****     while (channel >= 0)
 519              		.loc 1 489 0
 520 0006 09E0     		b	.L52
 521              	.LVL27:
 522              	.L55:
 490:.\Generated_Source\PSoC4/CyDMA.c ****     {
 491:.\Generated_Source\PSoC4/CyDMA.c ****         if(0u == (CyDmaChannelUsedMask & channelMask))
 523              		.loc 1 491 0
 524 0008 064A     		ldr	r2, .L56
 525 000a 5268     		ldr	r2, [r2, #4]
 526 000c 1342     		tst	r3, r2
 527 000e 03D1     		bne	.L53
 492:.\Generated_Source\PSoC4/CyDMA.c ****         {
 493:.\Generated_Source\PSoC4/CyDMA.c ****             /* Mark channel as used and exit loop. */ 
 494:.\Generated_Source\PSoC4/CyDMA.c ****             CyDmaChannelUsedMask |= channelMask;
 528              		.loc 1 494 0
 529 0010 1343     		orr	r3, r2
 530              	.LVL28:
 531 0012 044A     		ldr	r2, .L56
 532 0014 5360     		str	r3, [r2, #4]
 495:.\Generated_Source\PSoC4/CyDMA.c ****             break;
 533              		.loc 1 495 0
 534 0016 03E0     		b	.L54
ARM GAS  C:\Users\Tim\AppData\Local\Temp\ccEK2rHG.s 			page 20


 535              	.LVL29:
 536              	.L53:
 496:.\Generated_Source\PSoC4/CyDMA.c ****         }
 497:.\Generated_Source\PSoC4/CyDMA.c ****         channelMask >>= 1;
 537              		.loc 1 497 0
 538 0018 5B08     		lsr	r3, r3, #1
 539              	.LVL30:
 498:.\Generated_Source\PSoC4/CyDMA.c ****         --channel;
 540              		.loc 1 498 0
 541 001a 0138     		sub	r0, r0, #1
 542              	.LVL31:
 543              	.L52:
 489:.\Generated_Source\PSoC4/CyDMA.c ****     {
 544              		.loc 1 489 0
 545 001c 0028     		cmp	r0, #0
 546 001e F3DA     		bge	.L55
 547              	.LVL32:
 548              	.L54:
 499:.\Generated_Source\PSoC4/CyDMA.c ****     }
 500:.\Generated_Source\PSoC4/CyDMA.c ****     return (channel);
 501:.\Generated_Source\PSoC4/CyDMA.c **** }
 549              		.loc 1 501 0
 550              		@ sp needed
 551 0020 7047     		bx	lr
 552              	.L57:
 553 0022 C046     		.align	2
 554              	.L56:
 555 0024 00000000 		.word	.LANCHOR1
 556              		.cfi_endproc
 557              	.LFE18:
 558              		.size	CyDmaChAlloc, .-CyDmaChAlloc
 559              		.section	.text.CyDmaChFree,"ax",%progbits
 560              		.align	2
 561              		.global	CyDmaChFree
 562              		.code	16
 563              		.thumb_func
 564              		.type	CyDmaChFree, %function
 565              	CyDmaChFree:
 566              	.LFB19:
 502:.\Generated_Source\PSoC4/CyDMA.c **** 
 503:.\Generated_Source\PSoC4/CyDMA.c **** 
 504:.\Generated_Source\PSoC4/CyDMA.c **** /*******************************************************************************
 505:.\Generated_Source\PSoC4/CyDMA.c **** * Function Name: CyDmaChFree
 506:.\Generated_Source\PSoC4/CyDMA.c **** ********************************************************************************
 507:.\Generated_Source\PSoC4/CyDMA.c **** *
 508:.\Generated_Source\PSoC4/CyDMA.c **** * Summary:
 509:.\Generated_Source\PSoC4/CyDMA.c **** *  Frees a channel handle allocated by CyDmaChAlloc(). Channels allocated for
 510:.\Generated_Source\PSoC4/CyDMA.c **** *  DMA instances placed on a schematic cannot be freed.
 511:.\Generated_Source\PSoC4/CyDMA.c **** *
 512:.\Generated_Source\PSoC4/CyDMA.c **** * Parameters:
 513:.\Generated_Source\PSoC4/CyDMA.c **** *  channel: The handle previously returned by CyDmaChAlloc().
 514:.\Generated_Source\PSoC4/CyDMA.c **** *                   
 515:.\Generated_Source\PSoC4/CyDMA.c **** * Return:
 516:.\Generated_Source\PSoC4/CyDMA.c **** *  CYRET_SUCCESS if successful.
 517:.\Generated_Source\PSoC4/CyDMA.c **** *  CYRET_BAD_PARAM if channel is invalid.
 518:.\Generated_Source\PSoC4/CyDMA.c **** *
 519:.\Generated_Source\PSoC4/CyDMA.c **** *******************************************************************************/
ARM GAS  C:\Users\Tim\AppData\Local\Temp\ccEK2rHG.s 			page 21


 520:.\Generated_Source\PSoC4/CyDMA.c **** cystatus CyDmaChFree(int32 channel)
 521:.\Generated_Source\PSoC4/CyDMA.c **** {
 567              		.loc 1 521 0
 568              		.cfi_startproc
 569              	.LVL33:
 570 0000 10B5     		push	{r4, lr}
 571              		.cfi_def_cfa_offset 8
 572              		.cfi_offset 4, -8
 573              		.cfi_offset 14, -4
 574 0002 041E     		sub	r4, r0, #0
 575              	.LVL34:
 522:.\Generated_Source\PSoC4/CyDMA.c ****     uint32   channelMask;
 523:.\Generated_Source\PSoC4/CyDMA.c ****     cystatus result = CYRET_BAD_PARAM;
 524:.\Generated_Source\PSoC4/CyDMA.c **** 
 525:.\Generated_Source\PSoC4/CyDMA.c ****     CYASSERT((channel >= 0) && (channel < CYDMA_CH_NR));
 576              		.loc 1 525 0
 577 0004 1F2C     		cmp	r4, #31
 578 0006 02D9     		bls	.L59
 579              		.loc 1 525 0 is_stmt 0 discriminator 1
 580 0008 0020     		mov	r0, #0
 581              	.LVL35:
 582 000a FFF7FEFF 		bl	CyHalt
 583              	.LVL36:
 584              	.L59:
 526:.\Generated_Source\PSoC4/CyDMA.c ****     
 527:.\Generated_Source\PSoC4/CyDMA.c ****     channelMask = (uint32)(1UL << channel);
 585              		.loc 1 527 0 is_stmt 1
 586 000e 0120     		mov	r0, #1
 587 0010 A040     		lsl	r0, r0, r4
 588              	.LVL37:
 528:.\Generated_Source\PSoC4/CyDMA.c **** 
 529:.\Generated_Source\PSoC4/CyDMA.c ****     /* Check against attempt to free channel allocated for DMA instance
 530:.\Generated_Source\PSoC4/CyDMA.c ****     * placed on schematic.
 531:.\Generated_Source\PSoC4/CyDMA.c ****     */
 532:.\Generated_Source\PSoC4/CyDMA.c ****     if(0u == (channelMask & DMA_CHANNELS_USED__MASK))
 533:.\Generated_Source\PSoC4/CyDMA.c ****     {
 534:.\Generated_Source\PSoC4/CyDMA.c ****         CyDmaChannelUsedMask &= (uint32)~channelMask;
 589              		.loc 1 534 0
 590 0012 034A     		ldr	r2, .L60
 591 0014 5368     		ldr	r3, [r2, #4]
 592 0016 8343     		bic	r3, r0
 593 0018 5360     		str	r3, [r2, #4]
 594              	.LVL38:
 535:.\Generated_Source\PSoC4/CyDMA.c ****         result = CYRET_SUCCESS;
 536:.\Generated_Source\PSoC4/CyDMA.c ****     }
 537:.\Generated_Source\PSoC4/CyDMA.c ****     
 538:.\Generated_Source\PSoC4/CyDMA.c ****     return (result);
 539:.\Generated_Source\PSoC4/CyDMA.c **** }
 595              		.loc 1 539 0
 596 001a 0020     		mov	r0, #0
 597              	.LVL39:
 598              		@ sp needed
 599              	.LVL40:
 600 001c 10BD     		pop	{r4, pc}
 601              	.L61:
 602 001e C046     		.align	2
 603              	.L60:
ARM GAS  C:\Users\Tim\AppData\Local\Temp\ccEK2rHG.s 			page 22


 604 0020 00000000 		.word	.LANCHOR1
 605              		.cfi_endproc
 606              	.LFE19:
 607              		.size	CyDmaChFree, .-CyDmaChFree
 608              		.section	.text.CyDmaChEnable,"ax",%progbits
 609              		.align	2
 610              		.global	CyDmaChEnable
 611              		.code	16
 612              		.thumb_func
 613              		.type	CyDmaChEnable, %function
 614              	CyDmaChEnable:
 615              	.LFB20:
 540:.\Generated_Source\PSoC4/CyDMA.c **** 
 541:.\Generated_Source\PSoC4/CyDMA.c **** 
 542:.\Generated_Source\PSoC4/CyDMA.c **** /*******************************************************************************
 543:.\Generated_Source\PSoC4/CyDMA.c **** * Function Name: CyDmaChEnable
 544:.\Generated_Source\PSoC4/CyDMA.c **** ********************************************************************************
 545:.\Generated_Source\PSoC4/CyDMA.c **** *
 546:.\Generated_Source\PSoC4/CyDMA.c **** * Summary:
 547:.\Generated_Source\PSoC4/CyDMA.c **** *  Enables the DMA channel.
 548:.\Generated_Source\PSoC4/CyDMA.c **** *
 549:.\Generated_Source\PSoC4/CyDMA.c **** * Parameters:
 550:.\Generated_Source\PSoC4/CyDMA.c **** *  channel: Channel used by this function.
 551:.\Generated_Source\PSoC4/CyDMA.c **** *                   
 552:.\Generated_Source\PSoC4/CyDMA.c **** * Return:
 553:.\Generated_Source\PSoC4/CyDMA.c **** *  None.
 554:.\Generated_Source\PSoC4/CyDMA.c **** *
 555:.\Generated_Source\PSoC4/CyDMA.c **** * Side effect:
 556:.\Generated_Source\PSoC4/CyDMA.c **** *  If this function is called before CyDmaSetConfiguration(), and
 557:.\Generated_Source\PSoC4/CyDMA.c **** *  CyDmaSetSrcAddress() and CyDmaSetDstAddress(), the operation of
 558:.\Generated_Source\PSoC4/CyDMA.c **** *  the DMA is undefined and could result in system data corruption. 
 559:.\Generated_Source\PSoC4/CyDMA.c **** *
 560:.\Generated_Source\PSoC4/CyDMA.c **** *******************************************************************************/
 561:.\Generated_Source\PSoC4/CyDMA.c **** void CyDmaChEnable(int32 channel)
 562:.\Generated_Source\PSoC4/CyDMA.c **** {
 616              		.loc 1 562 0
 617              		.cfi_startproc
 618              	.LVL41:
 619 0000 10B5     		push	{r4, lr}
 620              		.cfi_def_cfa_offset 8
 621              		.cfi_offset 4, -8
 622              		.cfi_offset 14, -4
 623 0002 041E     		sub	r4, r0, #0
 563:.\Generated_Source\PSoC4/CyDMA.c ****     CYASSERT((channel >= 0) && (channel < CYDMA_CH_NR));
 624              		.loc 1 563 0
 625 0004 1F2C     		cmp	r4, #31
 626 0006 02D9     		bls	.L63
 627              		.loc 1 563 0 is_stmt 0 discriminator 1
 628 0008 0020     		mov	r0, #0
 629              	.LVL42:
 630 000a FFF7FEFF 		bl	CyHalt
 631              	.LVL43:
 632              	.L63:
 564:.\Generated_Source\PSoC4/CyDMA.c **** 
 565:.\Generated_Source\PSoC4/CyDMA.c ****     CYDMA_CH_CTL_BASE.ctl[channel] |= CYDMA_ENABLED;
 633              		.loc 1 565 0 is_stmt 1
 634 000e 044A     		ldr	r2, .L64
ARM GAS  C:\Users\Tim\AppData\Local\Temp\ccEK2rHG.s 			page 23


 635 0010 A400     		lsl	r4, r4, #2
 636              	.LVL44:
 637 0012 A358     		ldr	r3, [r4, r2]
 638 0014 8021     		mov	r1, #128
 639 0016 0906     		lsl	r1, r1, #24
 640 0018 0B43     		orr	r3, r1
 641 001a A350     		str	r3, [r4, r2]
 566:.\Generated_Source\PSoC4/CyDMA.c **** }
 642              		.loc 1 566 0
 643              		@ sp needed
 644 001c 10BD     		pop	{r4, pc}
 645              	.L65:
 646 001e C046     		.align	2
 647              	.L64:
 648 0020 80101040 		.word	1074794624
 649              		.cfi_endproc
 650              	.LFE20:
 651              		.size	CyDmaChEnable, .-CyDmaChEnable
 652              		.section	.text.CyDmaChDisable,"ax",%progbits
 653              		.align	2
 654              		.global	CyDmaChDisable
 655              		.code	16
 656              		.thumb_func
 657              		.type	CyDmaChDisable, %function
 658              	CyDmaChDisable:
 659              	.LFB21:
 567:.\Generated_Source\PSoC4/CyDMA.c **** 
 568:.\Generated_Source\PSoC4/CyDMA.c **** 
 569:.\Generated_Source\PSoC4/CyDMA.c **** /*******************************************************************************
 570:.\Generated_Source\PSoC4/CyDMA.c **** * Function Name: CyDmaChDisable
 571:.\Generated_Source\PSoC4/CyDMA.c **** ********************************************************************************
 572:.\Generated_Source\PSoC4/CyDMA.c **** *
 573:.\Generated_Source\PSoC4/CyDMA.c **** * Summary:
 574:.\Generated_Source\PSoC4/CyDMA.c **** *  Disables the DMA channel.
 575:.\Generated_Source\PSoC4/CyDMA.c **** *
 576:.\Generated_Source\PSoC4/CyDMA.c **** * Parameters:
 577:.\Generated_Source\PSoC4/CyDMA.c **** *  channel: Channel used by this function.
 578:.\Generated_Source\PSoC4/CyDMA.c **** *                   
 579:.\Generated_Source\PSoC4/CyDMA.c **** * Return:
 580:.\Generated_Source\PSoC4/CyDMA.c **** *  None.
 581:.\Generated_Source\PSoC4/CyDMA.c **** *
 582:.\Generated_Source\PSoC4/CyDMA.c **** * Side effect:
 583:.\Generated_Source\PSoC4/CyDMA.c **** *  If this function is called during a DMA transfer the transfer is aborted. 
 584:.\Generated_Source\PSoC4/CyDMA.c **** *
 585:.\Generated_Source\PSoC4/CyDMA.c **** *******************************************************************************/
 586:.\Generated_Source\PSoC4/CyDMA.c **** void CyDmaChDisable(int32 channel)
 587:.\Generated_Source\PSoC4/CyDMA.c **** {
 660              		.loc 1 587 0
 661              		.cfi_startproc
 662              	.LVL45:
 663 0000 10B5     		push	{r4, lr}
 664              		.cfi_def_cfa_offset 8
 665              		.cfi_offset 4, -8
 666              		.cfi_offset 14, -4
 667 0002 041E     		sub	r4, r0, #0
 588:.\Generated_Source\PSoC4/CyDMA.c ****     CYASSERT((channel >= 0) && (channel < CYDMA_CH_NR));
 668              		.loc 1 588 0
ARM GAS  C:\Users\Tim\AppData\Local\Temp\ccEK2rHG.s 			page 24


 669 0004 1F2C     		cmp	r4, #31
 670 0006 02D9     		bls	.L67
 671              		.loc 1 588 0 is_stmt 0 discriminator 1
 672 0008 0020     		mov	r0, #0
 673              	.LVL46:
 674 000a FFF7FEFF 		bl	CyHalt
 675              	.LVL47:
 676              	.L67:
 589:.\Generated_Source\PSoC4/CyDMA.c **** 
 590:.\Generated_Source\PSoC4/CyDMA.c ****     CYDMA_CH_CTL_BASE.ctl[channel] &= (uint32)~CYDMA_ENABLED;
 677              		.loc 1 590 0 is_stmt 1
 678 000e 034A     		ldr	r2, .L68
 679 0010 A400     		lsl	r4, r4, #2
 680              	.LVL48:
 681 0012 A358     		ldr	r3, [r4, r2]
 682 0014 5B00     		lsl	r3, r3, #1
 683 0016 5B08     		lsr	r3, r3, #1
 684 0018 A350     		str	r3, [r4, r2]
 591:.\Generated_Source\PSoC4/CyDMA.c **** }
 685              		.loc 1 591 0
 686              		@ sp needed
 687 001a 10BD     		pop	{r4, pc}
 688              	.L69:
 689              		.align	2
 690              	.L68:
 691 001c 80101040 		.word	1074794624
 692              		.cfi_endproc
 693              	.LFE21:
 694              		.size	CyDmaChDisable, .-CyDmaChDisable
 695              		.section	.text.CyDmaTrigger,"ax",%progbits
 696              		.align	2
 697              		.global	CyDmaTrigger
 698              		.code	16
 699              		.thumb_func
 700              		.type	CyDmaTrigger, %function
 701              	CyDmaTrigger:
 702              	.LFB22:
 592:.\Generated_Source\PSoC4/CyDMA.c **** 
 593:.\Generated_Source\PSoC4/CyDMA.c **** 
 594:.\Generated_Source\PSoC4/CyDMA.c **** /*******************************************************************************
 595:.\Generated_Source\PSoC4/CyDMA.c **** * Function Name: CyDmaTrigger
 596:.\Generated_Source\PSoC4/CyDMA.c **** ********************************************************************************
 597:.\Generated_Source\PSoC4/CyDMA.c **** *
 598:.\Generated_Source\PSoC4/CyDMA.c **** * Summary:
 599:.\Generated_Source\PSoC4/CyDMA.c **** *  Triggers the DMA channel, this is useful only for software triggers. This is
 600:.\Generated_Source\PSoC4/CyDMA.c **** *  not needed when hardware triggers are used.
 601:.\Generated_Source\PSoC4/CyDMA.c **** *
 602:.\Generated_Source\PSoC4/CyDMA.c **** * Parameters:
 603:.\Generated_Source\PSoC4/CyDMA.c **** *  channel: Channel used by this function.
 604:.\Generated_Source\PSoC4/CyDMA.c **** *                   
 605:.\Generated_Source\PSoC4/CyDMA.c **** * Return:
 606:.\Generated_Source\PSoC4/CyDMA.c **** *  None. 
 607:.\Generated_Source\PSoC4/CyDMA.c **** *
 608:.\Generated_Source\PSoC4/CyDMA.c **** *******************************************************************************/
 609:.\Generated_Source\PSoC4/CyDMA.c **** void CyDmaTrigger(int32 channel)
 610:.\Generated_Source\PSoC4/CyDMA.c **** {
 703              		.loc 1 610 0
ARM GAS  C:\Users\Tim\AppData\Local\Temp\ccEK2rHG.s 			page 25


 704              		.cfi_startproc
 705              	.LVL49:
 706 0000 10B5     		push	{r4, lr}
 707              		.cfi_def_cfa_offset 8
 708              		.cfi_offset 4, -8
 709              		.cfi_offset 14, -4
 710 0002 041E     		sub	r4, r0, #0
 611:.\Generated_Source\PSoC4/CyDMA.c ****     /* The LUT is device-dependent, thus it is generated during the build process. */
 612:.\Generated_Source\PSoC4/CyDMA.c ****     static const uint32 trCtlLut[] = {0xC0020000U, 0xC0020100U, 0xC0020200U, 0xC0020208U};
 613:.\Generated_Source\PSoC4/CyDMA.c **** 
 614:.\Generated_Source\PSoC4/CyDMA.c ****     CYASSERT((channel >= 0) && (channel < CYDMA_CH_NR));
 711              		.loc 1 614 0
 712 0004 1F2C     		cmp	r4, #31
 713 0006 02D9     		bls	.L71
 714              		.loc 1 614 0 is_stmt 0 discriminator 1
 715 0008 0020     		mov	r0, #0
 716              	.LVL50:
 717 000a FFF7FEFF 		bl	CyHalt
 718              	.LVL51:
 719              	.L71:
 615:.\Generated_Source\PSoC4/CyDMA.c **** 
 616:.\Generated_Source\PSoC4/CyDMA.c ****     CYDMA_TR_CTL_REG = trCtlLut[(uint32)channel >> CYDMA_TR_GROUP_SHR] | ((uint32)channel & CYDMA_T
 720              		.loc 1 616 0 is_stmt 1
 721 000e E308     		lsr	r3, r4, #3
 722 0010 9B00     		lsl	r3, r3, #2
 723 0012 044A     		ldr	r2, .L72
 724 0014 9B58     		ldr	r3, [r3, r2]
 725 0016 0722     		mov	r2, #7
 726 0018 1440     		and	r4, r2
 727              	.LVL52:
 728 001a 1C43     		orr	r4, r3
 729 001c 024B     		ldr	r3, .L72+4
 730 001e 1C60     		str	r4, [r3]
 617:.\Generated_Source\PSoC4/CyDMA.c **** }
 731              		.loc 1 617 0
 732              		@ sp needed
 733 0020 10BD     		pop	{r4, pc}
 734              	.L73:
 735 0022 C046     		.align	2
 736              	.L72:
 737 0024 00000000 		.word	.LANCHOR2
 738 0028 00060140 		.word	1073808896
 739              		.cfi_endproc
 740              	.LFE22:
 741              		.size	CyDmaTrigger, .-CyDmaTrigger
 742              		.section	.text.CyDmaSetPriority,"ax",%progbits
 743              		.align	2
 744              		.global	CyDmaSetPriority
 745              		.code	16
 746              		.thumb_func
 747              		.type	CyDmaSetPriority, %function
 748              	CyDmaSetPriority:
 749              	.LFB23:
 618:.\Generated_Source\PSoC4/CyDMA.c **** 
 619:.\Generated_Source\PSoC4/CyDMA.c **** 
 620:.\Generated_Source\PSoC4/CyDMA.c **** /*******************************************************************************
 621:.\Generated_Source\PSoC4/CyDMA.c **** * Function Name: CyDmaSetPriority
ARM GAS  C:\Users\Tim\AppData\Local\Temp\ccEK2rHG.s 			page 26


 622:.\Generated_Source\PSoC4/CyDMA.c **** ********************************************************************************
 623:.\Generated_Source\PSoC4/CyDMA.c **** *
 624:.\Generated_Source\PSoC4/CyDMA.c **** * Summary:
 625:.\Generated_Source\PSoC4/CyDMA.c **** *  Sets the priority for the channel.
 626:.\Generated_Source\PSoC4/CyDMA.c **** *
 627:.\Generated_Source\PSoC4/CyDMA.c **** * Parameters:
 628:.\Generated_Source\PSoC4/CyDMA.c **** *  channel:  Channel used by this function
 629:.\Generated_Source\PSoC4/CyDMA.c **** *  priority: Priority for channel. Priority can be 0,1,2, or 3.
 630:.\Generated_Source\PSoC4/CyDMA.c **** *            0 is the highest priority.
 631:.\Generated_Source\PSoC4/CyDMA.c **** *                   
 632:.\Generated_Source\PSoC4/CyDMA.c **** * Return:
 633:.\Generated_Source\PSoC4/CyDMA.c **** *  None.
 634:.\Generated_Source\PSoC4/CyDMA.c **** *
 635:.\Generated_Source\PSoC4/CyDMA.c **** * Side effect:
 636:.\Generated_Source\PSoC4/CyDMA.c **** *  This function should not be called while the channel is enabled.
 637:.\Generated_Source\PSoC4/CyDMA.c **** *
 638:.\Generated_Source\PSoC4/CyDMA.c **** *******************************************************************************/
 639:.\Generated_Source\PSoC4/CyDMA.c **** void CyDmaSetPriority(int32 channel, int32 priority)
 640:.\Generated_Source\PSoC4/CyDMA.c **** {
 750              		.loc 1 640 0
 751              		.cfi_startproc
 752              	.LVL53:
 753 0000 38B5     		push	{r3, r4, r5, lr}
 754              		.cfi_def_cfa_offset 16
 755              		.cfi_offset 3, -16
 756              		.cfi_offset 4, -12
 757              		.cfi_offset 5, -8
 758              		.cfi_offset 14, -4
 759 0002 041C     		mov	r4, r0
 760 0004 0D1C     		mov	r5, r1
 641:.\Generated_Source\PSoC4/CyDMA.c ****     uint32 regValue;
 642:.\Generated_Source\PSoC4/CyDMA.c **** 
 643:.\Generated_Source\PSoC4/CyDMA.c ****     CYASSERT((channel  >= 0) && (channel  <  CYDMA_CH_NR));
 761              		.loc 1 643 0
 762 0006 1F28     		cmp	r0, #31
 763 0008 02D9     		bls	.L75
 764              		.loc 1 643 0 is_stmt 0 discriminator 1
 765 000a 0020     		mov	r0, #0
 766              	.LVL54:
 767 000c FFF7FEFF 		bl	CyHalt
 768              	.LVL55:
 769              	.L75:
 644:.\Generated_Source\PSoC4/CyDMA.c ****     CYASSERT((priority >= 0) && (priority <= CY_DMA_MAX_PRIO));
 770              		.loc 1 644 0 is_stmt 1
 771 0010 032D     		cmp	r5, #3
 772 0012 02D9     		bls	.L76
 773              		.loc 1 644 0 is_stmt 0 discriminator 1
 774 0014 0020     		mov	r0, #0
 775 0016 FFF7FEFF 		bl	CyHalt
 776              	.LVL56:
 777              	.L76:
 645:.\Generated_Source\PSoC4/CyDMA.c **** 
 646:.\Generated_Source\PSoC4/CyDMA.c ****     regValue = CYDMA_CH_CTL_BASE.ctl[channel] & (uint32)~CYDMA_PRIO;
 778              		.loc 1 646 0 is_stmt 1
 779 001a 044A     		ldr	r2, .L77
 780 001c A400     		lsl	r4, r4, #2
 781              	.LVL57:
ARM GAS  C:\Users\Tim\AppData\Local\Temp\ccEK2rHG.s 			page 27


 782 001e A158     		ldr	r1, [r4, r2]
 783 0020 034B     		ldr	r3, .L77+4
 784 0022 0B40     		and	r3, r1
 785              	.LVL58:
 647:.\Generated_Source\PSoC4/CyDMA.c ****     CYDMA_CH_CTL_BASE.ctl[channel] = regValue | (uint32)((uint32)priority << CYDMA_PRIO_POS);
 786              		.loc 1 647 0
 787 0024 2907     		lsl	r1, r5, #28
 788 0026 1943     		orr	r1, r3
 789 0028 A150     		str	r1, [r4, r2]
 648:.\Generated_Source\PSoC4/CyDMA.c **** }
 790              		.loc 1 648 0
 791              		@ sp needed
 792              	.LVL59:
 793 002a 38BD     		pop	{r3, r4, r5, pc}
 794              	.L78:
 795              		.align	2
 796              	.L77:
 797 002c 80101040 		.word	1074794624
 798 0030 FFFFFFCF 		.word	-805306369
 799              		.cfi_endproc
 800              	.LFE23:
 801              		.size	CyDmaSetPriority, .-CyDmaSetPriority
 802              		.section	.text.CyDmaGetPriority,"ax",%progbits
 803              		.align	2
 804              		.global	CyDmaGetPriority
 805              		.code	16
 806              		.thumb_func
 807              		.type	CyDmaGetPriority, %function
 808              	CyDmaGetPriority:
 809              	.LFB24:
 649:.\Generated_Source\PSoC4/CyDMA.c **** 
 650:.\Generated_Source\PSoC4/CyDMA.c **** 
 651:.\Generated_Source\PSoC4/CyDMA.c **** /*******************************************************************************
 652:.\Generated_Source\PSoC4/CyDMA.c **** * Function Name: CyDmaGetPriority
 653:.\Generated_Source\PSoC4/CyDMA.c **** ********************************************************************************
 654:.\Generated_Source\PSoC4/CyDMA.c **** *
 655:.\Generated_Source\PSoC4/CyDMA.c **** * Summary:
 656:.\Generated_Source\PSoC4/CyDMA.c **** *  Gets the priority for the channel.
 657:.\Generated_Source\PSoC4/CyDMA.c **** *
 658:.\Generated_Source\PSoC4/CyDMA.c **** * Parameters:
 659:.\Generated_Source\PSoC4/CyDMA.c **** *  channel: Channel used by this function.
 660:.\Generated_Source\PSoC4/CyDMA.c **** *                   
 661:.\Generated_Source\PSoC4/CyDMA.c **** * Return:
 662:.\Generated_Source\PSoC4/CyDMA.c **** *  Priority for channel. Priority can be 0,1,2, or 3. 0 is the highest priority.
 663:.\Generated_Source\PSoC4/CyDMA.c **** *
 664:.\Generated_Source\PSoC4/CyDMA.c **** *******************************************************************************/
 665:.\Generated_Source\PSoC4/CyDMA.c **** int32 CyDmaGetPriority(int32 channel)
 666:.\Generated_Source\PSoC4/CyDMA.c **** {
 810              		.loc 1 666 0
 811              		.cfi_startproc
 812              	.LVL60:
 813 0000 10B5     		push	{r4, lr}
 814              		.cfi_def_cfa_offset 8
 815              		.cfi_offset 4, -8
 816              		.cfi_offset 14, -4
 817 0002 041E     		sub	r4, r0, #0
 667:.\Generated_Source\PSoC4/CyDMA.c ****     uint32 priority;
ARM GAS  C:\Users\Tim\AppData\Local\Temp\ccEK2rHG.s 			page 28


 668:.\Generated_Source\PSoC4/CyDMA.c **** 
 669:.\Generated_Source\PSoC4/CyDMA.c ****     CYASSERT((channel >= 0) && (channel < CYDMA_CH_NR));
 818              		.loc 1 669 0
 819 0004 1F2C     		cmp	r4, #31
 820 0006 02D9     		bls	.L80
 821              		.loc 1 669 0 is_stmt 0 discriminator 1
 822 0008 0020     		mov	r0, #0
 823              	.LVL61:
 824 000a FFF7FEFF 		bl	CyHalt
 825              	.LVL62:
 826              	.L80:
 670:.\Generated_Source\PSoC4/CyDMA.c **** 
 671:.\Generated_Source\PSoC4/CyDMA.c ****     priority = (CYDMA_CH_CTL_BASE.ctl[channel] & CYDMA_PRIO) >> CYDMA_PRIO_POS;
 827              		.loc 1 671 0 is_stmt 1
 828 000e A400     		lsl	r4, r4, #2
 829              	.LVL63:
 830 0010 024B     		ldr	r3, .L81
 831 0012 E058     		ldr	r0, [r4, r3]
 832 0014 8000     		lsl	r0, r0, #2
 833 0016 800F     		lsr	r0, r0, #30
 834              	.LVL64:
 672:.\Generated_Source\PSoC4/CyDMA.c ****     return ((int32)priority);
 673:.\Generated_Source\PSoC4/CyDMA.c **** }
 835              		.loc 1 673 0
 836              		@ sp needed
 837 0018 10BD     		pop	{r4, pc}
 838              	.L82:
 839 001a C046     		.align	2
 840              	.L81:
 841 001c 80101040 		.word	1074794624
 842              		.cfi_endproc
 843              	.LFE24:
 844              		.size	CyDmaGetPriority, .-CyDmaGetPriority
 845              		.section	.text.CyDmaSetNextDescriptor,"ax",%progbits
 846              		.align	2
 847              		.global	CyDmaSetNextDescriptor
 848              		.code	16
 849              		.thumb_func
 850              		.type	CyDmaSetNextDescriptor, %function
 851              	CyDmaSetNextDescriptor:
 852              	.LFB25:
 674:.\Generated_Source\PSoC4/CyDMA.c **** 
 675:.\Generated_Source\PSoC4/CyDMA.c **** 
 676:.\Generated_Source\PSoC4/CyDMA.c **** /*******************************************************************************
 677:.\Generated_Source\PSoC4/CyDMA.c **** * Function Name: CyDmaSetNextDescriptor
 678:.\Generated_Source\PSoC4/CyDMA.c **** ********************************************************************************
 679:.\Generated_Source\PSoC4/CyDMA.c **** *
 680:.\Generated_Source\PSoC4/CyDMA.c **** * Summary:
 681:.\Generated_Source\PSoC4/CyDMA.c **** *  Sets the descriptor that should be run the next time the channel is
 682:.\Generated_Source\PSoC4/CyDMA.c **** *  triggered.
 683:.\Generated_Source\PSoC4/CyDMA.c **** *
 684:.\Generated_Source\PSoC4/CyDMA.c **** * Parameters:
 685:.\Generated_Source\PSoC4/CyDMA.c **** *  channel:    Channel used by this function.
 686:.\Generated_Source\PSoC4/CyDMA.c **** *  descriptor: Next Descriptor to run (0 or 1).
 687:.\Generated_Source\PSoC4/CyDMA.c **** *
 688:.\Generated_Source\PSoC4/CyDMA.c **** * Return:
 689:.\Generated_Source\PSoC4/CyDMA.c **** *  None.
ARM GAS  C:\Users\Tim\AppData\Local\Temp\ccEK2rHG.s 			page 29


 690:.\Generated_Source\PSoC4/CyDMA.c **** *                   
 691:.\Generated_Source\PSoC4/CyDMA.c **** * Side effect:
 692:.\Generated_Source\PSoC4/CyDMA.c **** *  This function should not be called while the channel is enabled.
 693:.\Generated_Source\PSoC4/CyDMA.c **** *
 694:.\Generated_Source\PSoC4/CyDMA.c **** *******************************************************************************/
 695:.\Generated_Source\PSoC4/CyDMA.c **** void CyDmaSetNextDescriptor(int32 channel, int32 descriptor)
 696:.\Generated_Source\PSoC4/CyDMA.c **** {
 853              		.loc 1 696 0
 854              		.cfi_startproc
 855              	.LVL65:
 856 0000 38B5     		push	{r3, r4, r5, lr}
 857              		.cfi_def_cfa_offset 16
 858              		.cfi_offset 3, -16
 859              		.cfi_offset 4, -12
 860              		.cfi_offset 5, -8
 861              		.cfi_offset 14, -4
 862 0002 041C     		mov	r4, r0
 863 0004 0D1C     		mov	r5, r1
 697:.\Generated_Source\PSoC4/CyDMA.c ****     uint32 regValue;
 698:.\Generated_Source\PSoC4/CyDMA.c **** 
 699:.\Generated_Source\PSoC4/CyDMA.c ****     CYASSERT((channel    >= 0) && (channel    < CYDMA_CH_NR));
 864              		.loc 1 699 0
 865 0006 1F28     		cmp	r0, #31
 866 0008 02D9     		bls	.L84
 867              		.loc 1 699 0 is_stmt 0 discriminator 1
 868 000a 0020     		mov	r0, #0
 869              	.LVL66:
 870 000c FFF7FEFF 		bl	CyHalt
 871              	.LVL67:
 872              	.L84:
 700:.\Generated_Source\PSoC4/CyDMA.c ****     CYASSERT((descriptor >= 0) && (descriptor < CYDMA_DESCR_NR));
 873              		.loc 1 700 0 is_stmt 1
 874 0010 012D     		cmp	r5, #1
 875 0012 02D9     		bls	.L85
 876              		.loc 1 700 0 is_stmt 0 discriminator 1
 877 0014 0020     		mov	r0, #0
 878 0016 FFF7FEFF 		bl	CyHalt
 879              	.LVL68:
 880              	.L85:
 701:.\Generated_Source\PSoC4/CyDMA.c **** 
 702:.\Generated_Source\PSoC4/CyDMA.c ****     regValue = CYDMA_CH_CTL_BASE.ctl[channel] & (uint32)~CYDMA_DESCRIPTOR;
 881              		.loc 1 702 0 is_stmt 1
 882 001a 044A     		ldr	r2, .L86
 883 001c A400     		lsl	r4, r4, #2
 884              	.LVL69:
 885 001e A158     		ldr	r1, [r4, r2]
 886 0020 034B     		ldr	r3, .L86+4
 887 0022 0B40     		and	r3, r1
 888              	.LVL70:
 703:.\Generated_Source\PSoC4/CyDMA.c ****     CYDMA_CH_CTL_BASE.ctl[channel] = regValue | (uint32)((uint32)descriptor << CYDMA_DESCRIPTOR_POS
 889              		.loc 1 703 0
 890 0024 A907     		lsl	r1, r5, #30
 891 0026 1943     		orr	r1, r3
 892 0028 A150     		str	r1, [r4, r2]
 704:.\Generated_Source\PSoC4/CyDMA.c **** }
 893              		.loc 1 704 0
 894              		@ sp needed
ARM GAS  C:\Users\Tim\AppData\Local\Temp\ccEK2rHG.s 			page 30


 895              	.LVL71:
 896 002a 38BD     		pop	{r3, r4, r5, pc}
 897              	.L87:
 898              		.align	2
 899              	.L86:
 900 002c 80101040 		.word	1074794624
 901 0030 FFFFFFBF 		.word	-1073741825
 902              		.cfi_endproc
 903              	.LFE25:
 904              		.size	CyDmaSetNextDescriptor, .-CyDmaSetNextDescriptor
 905              		.section	.text.CyDmaGetNextDescriptor,"ax",%progbits
 906              		.align	2
 907              		.global	CyDmaGetNextDescriptor
 908              		.code	16
 909              		.thumb_func
 910              		.type	CyDmaGetNextDescriptor, %function
 911              	CyDmaGetNextDescriptor:
 912              	.LFB26:
 705:.\Generated_Source\PSoC4/CyDMA.c **** 
 706:.\Generated_Source\PSoC4/CyDMA.c **** 
 707:.\Generated_Source\PSoC4/CyDMA.c **** /*******************************************************************************
 708:.\Generated_Source\PSoC4/CyDMA.c **** * Function Name: CyDmaGetNextDescriptor
 709:.\Generated_Source\PSoC4/CyDMA.c **** ********************************************************************************
 710:.\Generated_Source\PSoC4/CyDMA.c **** *
 711:.\Generated_Source\PSoC4/CyDMA.c **** * Summary:
 712:.\Generated_Source\PSoC4/CyDMA.c **** *  Returns the next descriptor that should be run, as set by 
 713:.\Generated_Source\PSoC4/CyDMA.c **** *  CyDmaSetNextDescriptor().
 714:.\Generated_Source\PSoC4/CyDMA.c **** *
 715:.\Generated_Source\PSoC4/CyDMA.c **** * Parameters:
 716:.\Generated_Source\PSoC4/CyDMA.c **** *  channel: channel used by this function.
 717:.\Generated_Source\PSoC4/CyDMA.c **** *                   
 718:.\Generated_Source\PSoC4/CyDMA.c **** * Return:
 719:.\Generated_Source\PSoC4/CyDMA.c **** *  Next Descriptor to run (0 or 1).
 720:.\Generated_Source\PSoC4/CyDMA.c **** *
 721:.\Generated_Source\PSoC4/CyDMA.c **** *******************************************************************************/
 722:.\Generated_Source\PSoC4/CyDMA.c **** int32 CyDmaGetNextDescriptor(int32 channel)
 723:.\Generated_Source\PSoC4/CyDMA.c **** {
 913              		.loc 1 723 0
 914              		.cfi_startproc
 915              	.LVL72:
 916 0000 10B5     		push	{r4, lr}
 917              		.cfi_def_cfa_offset 8
 918              		.cfi_offset 4, -8
 919              		.cfi_offset 14, -4
 920 0002 041E     		sub	r4, r0, #0
 724:.\Generated_Source\PSoC4/CyDMA.c ****     uint32 nextDescriptor;
 725:.\Generated_Source\PSoC4/CyDMA.c **** 
 726:.\Generated_Source\PSoC4/CyDMA.c ****     CYASSERT((channel >= 0) && (channel < CYDMA_CH_NR));
 921              		.loc 1 726 0
 922 0004 1F2C     		cmp	r4, #31
 923 0006 02D9     		bls	.L89
 924              		.loc 1 726 0 is_stmt 0 discriminator 1
 925 0008 0020     		mov	r0, #0
 926              	.LVL73:
 927 000a FFF7FEFF 		bl	CyHalt
 928              	.LVL74:
 929              	.L89:
ARM GAS  C:\Users\Tim\AppData\Local\Temp\ccEK2rHG.s 			page 31


 727:.\Generated_Source\PSoC4/CyDMA.c **** 
 728:.\Generated_Source\PSoC4/CyDMA.c ****     nextDescriptor = (CYDMA_CH_CTL_BASE.ctl[channel] & CYDMA_DESCRIPTOR) >> CYDMA_DESCRIPTOR_POS;
 930              		.loc 1 728 0 is_stmt 1
 931 000e A400     		lsl	r4, r4, #2
 932              	.LVL75:
 933 0010 024B     		ldr	r3, .L90
 934 0012 E058     		ldr	r0, [r4, r3]
 935 0014 4000     		lsl	r0, r0, #1
 936 0016 C00F     		lsr	r0, r0, #31
 937              	.LVL76:
 729:.\Generated_Source\PSoC4/CyDMA.c ****     return ((int32)nextDescriptor);
 730:.\Generated_Source\PSoC4/CyDMA.c **** }
 938              		.loc 1 730 0
 939              		@ sp needed
 940 0018 10BD     		pop	{r4, pc}
 941              	.L91:
 942 001a C046     		.align	2
 943              	.L90:
 944 001c 80101040 		.word	1074794624
 945              		.cfi_endproc
 946              	.LFE26:
 947              		.size	CyDmaGetNextDescriptor, .-CyDmaGetNextDescriptor
 948              		.section	.text.CyDmaSetConfiguration,"ax",%progbits
 949              		.align	2
 950              		.global	CyDmaSetConfiguration
 951              		.code	16
 952              		.thumb_func
 953              		.type	CyDmaSetConfiguration, %function
 954              	CyDmaSetConfiguration:
 955              	.LFB27:
 731:.\Generated_Source\PSoC4/CyDMA.c **** 
 732:.\Generated_Source\PSoC4/CyDMA.c **** 
 733:.\Generated_Source\PSoC4/CyDMA.c **** /*******************************************************************************
 734:.\Generated_Source\PSoC4/CyDMA.c **** * Function Name: CyDmaSetConfiguration
 735:.\Generated_Source\PSoC4/CyDMA.c **** ********************************************************************************
 736:.\Generated_Source\PSoC4/CyDMA.c **** *
 737:.\Generated_Source\PSoC4/CyDMA.c **** * Summary:
 738:.\Generated_Source\PSoC4/CyDMA.c **** *  Sets configuration information for the specified descriptor.
 739:.\Generated_Source\PSoC4/CyDMA.c **** *
 740:.\Generated_Source\PSoC4/CyDMA.c **** * Parameters:
 741:.\Generated_Source\PSoC4/CyDMA.c **** *  channel:    DMA channel modified by this function.
 742:.\Generated_Source\PSoC4/CyDMA.c **** *  descriptor: Descriptor (0 or 1) modified by this function.
 743:.\Generated_Source\PSoC4/CyDMA.c **** *  config:     Pointer to a configuration structure. Refer to cydma_init_struct
 744:.\Generated_Source\PSoC4/CyDMA.c **** *              structure definition in CyDMA_P4.h and/or DMA channel datasheet
 745:.\Generated_Source\PSoC4/CyDMA.c **** *              for more information.
 746:.\Generated_Source\PSoC4/CyDMA.c **** *                   
 747:.\Generated_Source\PSoC4/CyDMA.c **** * Return:
 748:.\Generated_Source\PSoC4/CyDMA.c **** *  None.
 749:.\Generated_Source\PSoC4/CyDMA.c **** *
 750:.\Generated_Source\PSoC4/CyDMA.c **** * Side effect:
 751:.\Generated_Source\PSoC4/CyDMA.c **** *  The status register associated with the specified descriptor is reset to
 752:.\Generated_Source\PSoC4/CyDMA.c **** *  zero after this function call. This function also validates the descriptor.
 753:.\Generated_Source\PSoC4/CyDMA.c **** *  This function should not be called while the descriptor is active.
 754:.\Generated_Source\PSoC4/CyDMA.c **** *  This can be checked by calling CyDmaGetStatus().
 755:.\Generated_Source\PSoC4/CyDMA.c **** *
 756:.\Generated_Source\PSoC4/CyDMA.c **** *******************************************************************************/
 757:.\Generated_Source\PSoC4/CyDMA.c **** void CyDmaSetConfiguration(int32 channel, int32 descriptor, const cydma_init_struct * config)
ARM GAS  C:\Users\Tim\AppData\Local\Temp\ccEK2rHG.s 			page 32


 758:.\Generated_Source\PSoC4/CyDMA.c **** {  
 956              		.loc 1 758 0
 957              		.cfi_startproc
 958              	.LVL77:
 959 0000 70B5     		push	{r4, r5, r6, lr}
 960              		.cfi_def_cfa_offset 16
 961              		.cfi_offset 4, -16
 962              		.cfi_offset 5, -12
 963              		.cfi_offset 6, -8
 964              		.cfi_offset 14, -4
 965 0002 061C     		mov	r6, r0
 966 0004 0D1C     		mov	r5, r1
 967 0006 141C     		mov	r4, r2
 759:.\Generated_Source\PSoC4/CyDMA.c ****     CYASSERT((channel        >= 0) && (channel         < CYDMA_CH_NR));
 968              		.loc 1 759 0
 969 0008 1F28     		cmp	r0, #31
 970 000a 02D9     		bls	.L93
 971              		.loc 1 759 0 is_stmt 0 discriminator 1
 972 000c 0020     		mov	r0, #0
 973              	.LVL78:
 974 000e FFF7FEFF 		bl	CyHalt
 975              	.LVL79:
 976              	.L93:
 760:.\Generated_Source\PSoC4/CyDMA.c ****     CYASSERT((descriptor     >= 0) && (descriptor      < CYDMA_DESCR_NR));
 977              		.loc 1 760 0 is_stmt 1
 978 0012 012D     		cmp	r5, #1
 979 0014 02D9     		bls	.L94
 980              		.loc 1 760 0 is_stmt 0 discriminator 1
 981 0016 0020     		mov	r0, #0
 982 0018 FFF7FEFF 		bl	CyHalt
 983              	.LVL80:
 984              	.L94:
 761:.\Generated_Source\PSoC4/CyDMA.c **** 
 762:.\Generated_Source\PSoC4/CyDMA.c ****     CYASSERT(0u == (config->dataElementSize     & (uint32)~CYDMA_DATA_SIZE));   
 985              		.loc 1 762 0 is_stmt 1
 986 001c 294B     		ldr	r3, .L103
 987 001e 2268     		ldr	r2, [r4]
 988 0020 1A42     		tst	r2, r3
 989 0022 02D0     		beq	.L95
 990              		.loc 1 762 0 is_stmt 0 discriminator 1
 991 0024 0020     		mov	r0, #0
 992 0026 FFF7FEFF 		bl	CyHalt
 993              	.LVL81:
 994              	.L95:
 763:.\Generated_Source\PSoC4/CyDMA.c ****     CYASSERT((config->numDataElements > 0)     && (config->numDataElements <= CYDMA_MAX_DATA_NR));
 995              		.loc 1 763 0 is_stmt 1
 996 002a 6368     		ldr	r3, [r4, #4]
 997 002c 013B     		sub	r3, r3, #1
 998 002e 264A     		ldr	r2, .L103+4
 999 0030 9342     		cmp	r3, r2
 1000 0032 02D9     		bls	.L96
 1001              		.loc 1 763 0 is_stmt 0 discriminator 1
 1002 0034 0020     		mov	r0, #0
 1003 0036 FFF7FEFF 		bl	CyHalt
 1004              	.LVL82:
 1005              	.L96:
 764:.\Generated_Source\PSoC4/CyDMA.c ****     CYASSERT(0u == (config->srcDstTransferWidth & (uint32)~CYDMA_TRANSFER_WIDTH));
ARM GAS  C:\Users\Tim\AppData\Local\Temp\ccEK2rHG.s 			page 33


 1006              		.loc 1 764 0 is_stmt 1
 1007 003a 244B     		ldr	r3, .L103+8
 1008 003c A268     		ldr	r2, [r4, #8]
 1009 003e 1A42     		tst	r2, r3
 1010 0040 02D0     		beq	.L97
 1011              		.loc 1 764 0 is_stmt 0 discriminator 1
 1012 0042 0020     		mov	r0, #0
 1013 0044 FFF7FEFF 		bl	CyHalt
 1014              	.LVL83:
 1015              	.L97:
 765:.\Generated_Source\PSoC4/CyDMA.c ****     CYASSERT(0u == (config->addressIncrement    & (uint32)~CYDMA_ADDR_INCR));
 1016              		.loc 1 765 0 is_stmt 1
 1017 0048 214B     		ldr	r3, .L103+12
 1018 004a E268     		ldr	r2, [r4, #12]
 1019 004c 1A42     		tst	r2, r3
 1020 004e 02D0     		beq	.L98
 1021              		.loc 1 765 0 is_stmt 0 discriminator 1
 1022 0050 0020     		mov	r0, #0
 1023 0052 FFF7FEFF 		bl	CyHalt
 1024              	.LVL84:
 1025              	.L98:
 766:.\Generated_Source\PSoC4/CyDMA.c ****     CYASSERT(0u == (config->triggerType         & (uint32)~CYDMA_TRIGGER_TYPE));
 1026              		.loc 1 766 0 is_stmt 1
 1027 0056 1F4B     		ldr	r3, .L103+16
 1028 0058 2269     		ldr	r2, [r4, #16]
 1029 005a 1A42     		tst	r2, r3
 1030 005c 02D0     		beq	.L99
 1031              		.loc 1 766 0 is_stmt 0 discriminator 1
 1032 005e 0020     		mov	r0, #0
 1033 0060 FFF7FEFF 		bl	CyHalt
 1034              	.LVL85:
 1035              	.L99:
 767:.\Generated_Source\PSoC4/CyDMA.c ****     CYASSERT(0u == (config->transferMode        & (uint32)~CYDMA_TRANSFER_MODE));
 1036              		.loc 1 767 0 is_stmt 1
 1037 0064 6369     		ldr	r3, [r4, #20]
 1038 0066 9B00     		lsl	r3, r3, #2
 1039 0068 02D0     		beq	.L100
 1040              		.loc 1 767 0 is_stmt 0 discriminator 1
 1041 006a 0020     		mov	r0, #0
 1042 006c FFF7FEFF 		bl	CyHalt
 1043              	.LVL86:
 1044              	.L100:
 768:.\Generated_Source\PSoC4/CyDMA.c ****     CYASSERT(0u == (config->preemptable         & (uint32)~CYDMA_PREEMPTABLE));
 1045              		.loc 1 768 0 is_stmt 1
 1046 0070 194B     		ldr	r3, .L103+20
 1047 0072 A269     		ldr	r2, [r4, #24]
 1048 0074 1A42     		tst	r2, r3
 1049 0076 02D0     		beq	.L101
 1050              		.loc 1 768 0 is_stmt 0 discriminator 1
 1051 0078 0020     		mov	r0, #0
 1052 007a FFF7FEFF 		bl	CyHalt
 1053              	.LVL87:
 1054              	.L101:
 769:.\Generated_Source\PSoC4/CyDMA.c ****     CYASSERT(0u == (config->actions             & (uint32)~CYDMA_POST_COMPLETE_ACTIONS));
 1055              		.loc 1 769 0 is_stmt 1
 1056 007e 174B     		ldr	r3, .L103+24
 1057 0080 E269     		ldr	r2, [r4, #28]
ARM GAS  C:\Users\Tim\AppData\Local\Temp\ccEK2rHG.s 			page 34


 1058 0082 1A42     		tst	r2, r3
 1059 0084 02D0     		beq	.L102
 1060              		.loc 1 769 0 is_stmt 0 discriminator 1
 1061 0086 0020     		mov	r0, #0
 1062 0088 FFF7FEFF 		bl	CyHalt
 1063              	.LVL88:
 1064              	.L102:
 770:.\Generated_Source\PSoC4/CyDMA.c ****     
 771:.\Generated_Source\PSoC4/CyDMA.c ****     CYDMA_DESCR_BASE.descriptor[channel][descriptor].ctl = config->dataElementSize     |
 772:.\Generated_Source\PSoC4/CyDMA.c ****                                                   ((uint32)config->numDataElements-1u) |
 1065              		.loc 1 772 0 is_stmt 1
 1066 008c 6368     		ldr	r3, [r4, #4]
 1067 008e 013B     		sub	r3, r3, #1
 771:.\Generated_Source\PSoC4/CyDMA.c ****                                                   ((uint32)config->numDataElements-1u) |
 1068              		.loc 1 771 0
 1069 0090 2268     		ldr	r2, [r4]
 1070 0092 1343     		orr	r3, r2
 1071              		.loc 1 772 0
 1072 0094 A268     		ldr	r2, [r4, #8]
 1073 0096 1343     		orr	r3, r2
 773:.\Generated_Source\PSoC4/CyDMA.c ****                                                            config->srcDstTransferWidth |
 1074              		.loc 1 773 0
 1075 0098 E268     		ldr	r2, [r4, #12]
 1076 009a 1343     		orr	r3, r2
 774:.\Generated_Source\PSoC4/CyDMA.c ****                                                            config->addressIncrement    |
 1077              		.loc 1 774 0
 1078 009c 2269     		ldr	r2, [r4, #16]
 1079 009e 1343     		orr	r3, r2
 775:.\Generated_Source\PSoC4/CyDMA.c ****                                                            config->triggerType         |
 1080              		.loc 1 775 0
 1081 00a0 6269     		ldr	r2, [r4, #20]
 1082 00a2 1343     		orr	r3, r2
 776:.\Generated_Source\PSoC4/CyDMA.c ****                                                            config->transferMode        |
 1083              		.loc 1 776 0
 1084 00a4 A269     		ldr	r2, [r4, #24]
 1085 00a6 1343     		orr	r3, r2
 777:.\Generated_Source\PSoC4/CyDMA.c ****                                                            config->preemptable         |
 778:.\Generated_Source\PSoC4/CyDMA.c ****                                                            config->actions;
 1086              		.loc 1 778 0
 1087 00a8 E269     		ldr	r2, [r4, #28]
 777:.\Generated_Source\PSoC4/CyDMA.c ****                                                            config->preemptable         |
 1088              		.loc 1 777 0
 1089 00aa 1343     		orr	r3, r2
 771:.\Generated_Source\PSoC4/CyDMA.c ****                                                   ((uint32)config->numDataElements-1u) |
 1090              		.loc 1 771 0
 1091 00ac 7600     		lsl	r6, r6, #1
 1092              	.LVL89:
 1093 00ae 7519     		add	r5, r6, r5
 1094              	.LVL90:
 1095 00b0 2D01     		lsl	r5, r5, #4
 1096 00b2 0B4A     		ldr	r2, .L103+28
 1097 00b4 9446     		mov	ip, r2
 1098 00b6 6544     		add	r5, r5, ip
 1099 00b8 AB60     		str	r3, [r5, #8]
 779:.\Generated_Source\PSoC4/CyDMA.c **** 
 780:.\Generated_Source\PSoC4/CyDMA.c ****     CYDMA_DESCR_BASE.descriptor[channel][descriptor].status = CYDMA_VALID;
 1100              		.loc 1 780 0
ARM GAS  C:\Users\Tim\AppData\Local\Temp\ccEK2rHG.s 			page 35


 1101 00ba 8023     		mov	r3, #128
 1102 00bc 1B06     		lsl	r3, r3, #24
 1103 00be EB60     		str	r3, [r5, #12]
 781:.\Generated_Source\PSoC4/CyDMA.c **** }
 1104              		.loc 1 781 0
 1105              		@ sp needed
 1106              	.LVL91:
 1107 00c0 70BD     		pop	{r4, r5, r6, pc}
 1108              	.L104:
 1109 00c2 C046     		.align	2
 1110              	.L103:
 1111 00c4 FFFFFCFF 		.word	-196609
 1112 00c8 FFFF0000 		.word	65535
 1113 00cc FFFFAFFF 		.word	-5242881
 1114 00d0 FFFF5FFF 		.word	-10485761
 1115 00d4 FFFFFFFC 		.word	-50331649
 1116 00d8 FFFFFFEF 		.word	-268435457
 1117 00dc FFFFFFD3 		.word	-738197505
 1118 00e0 00181040 		.word	1074796544
 1119              		.cfi_endproc
 1120              	.LFE27:
 1121              		.size	CyDmaSetConfiguration, .-CyDmaSetConfiguration
 1122              		.section	.text.CyDmaValidateDescriptor,"ax",%progbits
 1123              		.align	2
 1124              		.global	CyDmaValidateDescriptor
 1125              		.code	16
 1126              		.thumb_func
 1127              		.type	CyDmaValidateDescriptor, %function
 1128              	CyDmaValidateDescriptor:
 1129              	.LFB28:
 782:.\Generated_Source\PSoC4/CyDMA.c **** 
 783:.\Generated_Source\PSoC4/CyDMA.c **** 
 784:.\Generated_Source\PSoC4/CyDMA.c **** /*******************************************************************************
 785:.\Generated_Source\PSoC4/CyDMA.c **** * Function Name: CyDmaValidateDescriptor
 786:.\Generated_Source\PSoC4/CyDMA.c **** ********************************************************************************
 787:.\Generated_Source\PSoC4/CyDMA.c **** *
 788:.\Generated_Source\PSoC4/CyDMA.c **** * Summary:
 789:.\Generated_Source\PSoC4/CyDMA.c **** *  Validates the specified descriptor after it has been invalidated.
 790:.\Generated_Source\PSoC4/CyDMA.c **** *
 791:.\Generated_Source\PSoC4/CyDMA.c **** * Parameters:
 792:.\Generated_Source\PSoC4/CyDMA.c **** *  channel:    Channel used by this function.
 793:.\Generated_Source\PSoC4/CyDMA.c **** *  descriptor: Descriptor (0 or 1) modified by this function.
 794:.\Generated_Source\PSoC4/CyDMA.c **** *                   
 795:.\Generated_Source\PSoC4/CyDMA.c **** * Return:
 796:.\Generated_Source\PSoC4/CyDMA.c **** *  None. 
 797:.\Generated_Source\PSoC4/CyDMA.c **** *
 798:.\Generated_Source\PSoC4/CyDMA.c **** * Side effect:
 799:.\Generated_Source\PSoC4/CyDMA.c **** *  The status register associated with the specified descriptor is reset to
 800:.\Generated_Source\PSoC4/CyDMA.c **** *  zero after this function call.
 801:.\Generated_Source\PSoC4/CyDMA.c **** *  This function should not be called when the specified descriptor is active
 802:.\Generated_Source\PSoC4/CyDMA.c **** *  in the DMA transfer engine. This can be checked by calling CyDmaGetStatus().
 803:.\Generated_Source\PSoC4/CyDMA.c **** *
 804:.\Generated_Source\PSoC4/CyDMA.c **** *******************************************************************************/
 805:.\Generated_Source\PSoC4/CyDMA.c **** void CyDmaValidateDescriptor(int32 channel, int32 descriptor)
 806:.\Generated_Source\PSoC4/CyDMA.c **** {
 1130              		.loc 1 806 0
 1131              		.cfi_startproc
ARM GAS  C:\Users\Tim\AppData\Local\Temp\ccEK2rHG.s 			page 36


 1132              	.LVL92:
 1133 0000 38B5     		push	{r3, r4, r5, lr}
 1134              		.cfi_def_cfa_offset 16
 1135              		.cfi_offset 3, -16
 1136              		.cfi_offset 4, -12
 1137              		.cfi_offset 5, -8
 1138              		.cfi_offset 14, -4
 1139 0002 051C     		mov	r5, r0
 1140 0004 0C1C     		mov	r4, r1
 807:.\Generated_Source\PSoC4/CyDMA.c ****     CYASSERT((channel    >= 0) && (channel    < CYDMA_CH_NR));
 1141              		.loc 1 807 0
 1142 0006 1F28     		cmp	r0, #31
 1143 0008 02D9     		bls	.L106
 1144              		.loc 1 807 0 is_stmt 0 discriminator 1
 1145 000a 0020     		mov	r0, #0
 1146              	.LVL93:
 1147 000c FFF7FEFF 		bl	CyHalt
 1148              	.LVL94:
 1149              	.L106:
 808:.\Generated_Source\PSoC4/CyDMA.c ****     CYASSERT((descriptor >= 0) && (descriptor < CYDMA_DESCR_NR));
 1150              		.loc 1 808 0 is_stmt 1
 1151 0010 012C     		cmp	r4, #1
 1152 0012 02D9     		bls	.L107
 1153              		.loc 1 808 0 is_stmt 0 discriminator 1
 1154 0014 0020     		mov	r0, #0
 1155 0016 FFF7FEFF 		bl	CyHalt
 1156              	.LVL95:
 1157              	.L107:
 809:.\Generated_Source\PSoC4/CyDMA.c **** 
 810:.\Generated_Source\PSoC4/CyDMA.c ****     CYDMA_DESCR_BASE.descriptor[channel][descriptor].status = CYDMA_VALID;
 1158              		.loc 1 810 0 is_stmt 1
 1159 001a 6D00     		lsl	r5, r5, #1
 1160              	.LVL96:
 1161 001c 2C19     		add	r4, r5, r4
 1162              	.LVL97:
 1163 001e 2401     		lsl	r4, r4, #4
 1164 0020 034B     		ldr	r3, .L108
 1165 0022 9C46     		mov	ip, r3
 1166 0024 6444     		add	r4, r4, ip
 1167 0026 8023     		mov	r3, #128
 1168 0028 1B06     		lsl	r3, r3, #24
 1169 002a 6360     		str	r3, [r4, #4]
 811:.\Generated_Source\PSoC4/CyDMA.c **** }
 1170              		.loc 1 811 0
 1171              		@ sp needed
 1172 002c 38BD     		pop	{r3, r4, r5, pc}
 1173              	.L109:
 1174 002e C046     		.align	2
 1175              	.L108:
 1176 0030 08181040 		.word	1074796552
 1177              		.cfi_endproc
 1178              	.LFE28:
 1179              		.size	CyDmaValidateDescriptor, .-CyDmaValidateDescriptor
 1180              		.section	.text.CyDmaGetDescriptorStatus,"ax",%progbits
 1181              		.align	2
 1182              		.global	CyDmaGetDescriptorStatus
 1183              		.code	16
ARM GAS  C:\Users\Tim\AppData\Local\Temp\ccEK2rHG.s 			page 37


 1184              		.thumb_func
 1185              		.type	CyDmaGetDescriptorStatus, %function
 1186              	CyDmaGetDescriptorStatus:
 1187              	.LFB29:
 812:.\Generated_Source\PSoC4/CyDMA.c **** 
 813:.\Generated_Source\PSoC4/CyDMA.c **** 
 814:.\Generated_Source\PSoC4/CyDMA.c **** /*******************************************************************************
 815:.\Generated_Source\PSoC4/CyDMA.c **** * Function Name: CyDmaGetDescriptorStatus
 816:.\Generated_Source\PSoC4/CyDMA.c **** ********************************************************************************
 817:.\Generated_Source\PSoC4/CyDMA.c **** *
 818:.\Generated_Source\PSoC4/CyDMA.c **** * Summary:
 819:.\Generated_Source\PSoC4/CyDMA.c **** *  Returns the status of the specified descriptor.
 820:.\Generated_Source\PSoC4/CyDMA.c **** *
 821:.\Generated_Source\PSoC4/CyDMA.c **** * Parameters:
 822:.\Generated_Source\PSoC4/CyDMA.c **** *  channel:    Channel used by this function.
 823:.\Generated_Source\PSoC4/CyDMA.c **** *  descriptor: Descriptor (0 or 1) modified by this function.
 824:.\Generated_Source\PSoC4/CyDMA.c **** *                   
 825:.\Generated_Source\PSoC4/CyDMA.c **** * Return:
 826:.\Generated_Source\PSoC4/CyDMA.c **** *  Returns the contents of the specified descriptors status register. Refer to 
 827:.\Generated_Source\PSoC4/CyDMA.c **** *  descriptor status register bit definitions in CyDMA_P4.h or the API
 828:.\Generated_Source\PSoC4/CyDMA.c **** *  description in the DMA channel datasheet for more information.
 829:.\Generated_Source\PSoC4/CyDMA.c **** *
 830:.\Generated_Source\PSoC4/CyDMA.c **** *******************************************************************************/
 831:.\Generated_Source\PSoC4/CyDMA.c **** uint32 CyDmaGetDescriptorStatus(int32 channel, int32 descriptor)
 832:.\Generated_Source\PSoC4/CyDMA.c **** {
 1188              		.loc 1 832 0
 1189              		.cfi_startproc
 1190              	.LVL98:
 1191 0000 38B5     		push	{r3, r4, r5, lr}
 1192              		.cfi_def_cfa_offset 16
 1193              		.cfi_offset 3, -16
 1194              		.cfi_offset 4, -12
 1195              		.cfi_offset 5, -8
 1196              		.cfi_offset 14, -4
 1197 0002 051C     		mov	r5, r0
 1198 0004 0C1C     		mov	r4, r1
 833:.\Generated_Source\PSoC4/CyDMA.c ****     CYASSERT((channel    >= 0) && (channel    < CYDMA_CH_NR));
 1199              		.loc 1 833 0
 1200 0006 1F28     		cmp	r0, #31
 1201 0008 02D9     		bls	.L111
 1202              		.loc 1 833 0 is_stmt 0 discriminator 1
 1203 000a 0020     		mov	r0, #0
 1204              	.LVL99:
 1205 000c FFF7FEFF 		bl	CyHalt
 1206              	.LVL100:
 1207              	.L111:
 834:.\Generated_Source\PSoC4/CyDMA.c ****     CYASSERT((descriptor >= 0) && (descriptor < CYDMA_DESCR_NR));
 1208              		.loc 1 834 0 is_stmt 1
 1209 0010 012C     		cmp	r4, #1
 1210 0012 02D9     		bls	.L112
 1211              		.loc 1 834 0 is_stmt 0 discriminator 1
 1212 0014 0020     		mov	r0, #0
 1213 0016 FFF7FEFF 		bl	CyHalt
 1214              	.LVL101:
 1215              	.L112:
 835:.\Generated_Source\PSoC4/CyDMA.c **** 
 836:.\Generated_Source\PSoC4/CyDMA.c ****     return (CYDMA_DESCR_BASE.descriptor[channel][descriptor].status);
ARM GAS  C:\Users\Tim\AppData\Local\Temp\ccEK2rHG.s 			page 38


 1216              		.loc 1 836 0 is_stmt 1
 1217 001a 6D00     		lsl	r5, r5, #1
 1218              	.LVL102:
 1219 001c 2C19     		add	r4, r5, r4
 1220              	.LVL103:
 1221 001e 2401     		lsl	r4, r4, #4
 1222 0020 024B     		ldr	r3, .L113
 1223 0022 9C46     		mov	ip, r3
 1224 0024 6444     		add	r4, r4, ip
 1225 0026 6068     		ldr	r0, [r4, #4]
 837:.\Generated_Source\PSoC4/CyDMA.c **** }
 1226              		.loc 1 837 0
 1227              		@ sp needed
 1228 0028 38BD     		pop	{r3, r4, r5, pc}
 1229              	.L114:
 1230 002a C046     		.align	2
 1231              	.L113:
 1232 002c 08181040 		.word	1074796552
 1233              		.cfi_endproc
 1234              	.LFE29:
 1235              		.size	CyDmaGetDescriptorStatus, .-CyDmaGetDescriptorStatus
 1236              		.section	.text.CyDmaSetSrcAddress,"ax",%progbits
 1237              		.align	2
 1238              		.global	CyDmaSetSrcAddress
 1239              		.code	16
 1240              		.thumb_func
 1241              		.type	CyDmaSetSrcAddress, %function
 1242              	CyDmaSetSrcAddress:
 1243              	.LFB30:
 838:.\Generated_Source\PSoC4/CyDMA.c **** 
 839:.\Generated_Source\PSoC4/CyDMA.c **** 
 840:.\Generated_Source\PSoC4/CyDMA.c **** /*******************************************************************************
 841:.\Generated_Source\PSoC4/CyDMA.c **** * Function Name: CyDmaSetSrcAddress
 842:.\Generated_Source\PSoC4/CyDMA.c **** ********************************************************************************
 843:.\Generated_Source\PSoC4/CyDMA.c **** *
 844:.\Generated_Source\PSoC4/CyDMA.c **** * Summary:
 845:.\Generated_Source\PSoC4/CyDMA.c **** *  Configures the source address for the specified descriptor.
 846:.\Generated_Source\PSoC4/CyDMA.c **** *
 847:.\Generated_Source\PSoC4/CyDMA.c **** * Parameters:
 848:.\Generated_Source\PSoC4/CyDMA.c **** *  channel:    Channel used by this function.
 849:.\Generated_Source\PSoC4/CyDMA.c **** *  descriptor: Descriptor (0 or 1) modified by this function.
 850:.\Generated_Source\PSoC4/CyDMA.c **** *  srcAddress: Address of DMA transfer source.
 851:.\Generated_Source\PSoC4/CyDMA.c **** *                   
 852:.\Generated_Source\PSoC4/CyDMA.c **** * Return:
 853:.\Generated_Source\PSoC4/CyDMA.c **** *  None.
 854:.\Generated_Source\PSoC4/CyDMA.c **** *
 855:.\Generated_Source\PSoC4/CyDMA.c **** * Side effect:
 856:.\Generated_Source\PSoC4/CyDMA.c **** *  This function should not be called when the specified descriptor is active
 857:.\Generated_Source\PSoC4/CyDMA.c **** *  in the DMA transfer engine. This can be checked by calling CyDmaGetStatus(). 
 858:.\Generated_Source\PSoC4/CyDMA.c **** *
 859:.\Generated_Source\PSoC4/CyDMA.c **** *******************************************************************************/
 860:.\Generated_Source\PSoC4/CyDMA.c **** void CyDmaSetSrcAddress(int32 channel, int32 descriptor, void * srcAddress)
 861:.\Generated_Source\PSoC4/CyDMA.c **** {
 1244              		.loc 1 861 0
 1245              		.cfi_startproc
 1246              	.LVL104:
 1247 0000 70B5     		push	{r4, r5, r6, lr}
ARM GAS  C:\Users\Tim\AppData\Local\Temp\ccEK2rHG.s 			page 39


 1248              		.cfi_def_cfa_offset 16
 1249              		.cfi_offset 4, -16
 1250              		.cfi_offset 5, -12
 1251              		.cfi_offset 6, -8
 1252              		.cfi_offset 14, -4
 1253 0002 051C     		mov	r5, r0
 1254 0004 0C1C     		mov	r4, r1
 1255 0006 161C     		mov	r6, r2
 862:.\Generated_Source\PSoC4/CyDMA.c ****     CYASSERT((channel    >= 0) && (channel    < CYDMA_CH_NR));
 1256              		.loc 1 862 0
 1257 0008 1F28     		cmp	r0, #31
 1258 000a 02D9     		bls	.L116
 1259              		.loc 1 862 0 is_stmt 0 discriminator 1
 1260 000c 0020     		mov	r0, #0
 1261              	.LVL105:
 1262 000e FFF7FEFF 		bl	CyHalt
 1263              	.LVL106:
 1264              	.L116:
 863:.\Generated_Source\PSoC4/CyDMA.c ****     CYASSERT((descriptor >= 0) && (descriptor < CYDMA_DESCR_NR));
 1265              		.loc 1 863 0 is_stmt 1
 1266 0012 012C     		cmp	r4, #1
 1267 0014 02D9     		bls	.L117
 1268              		.loc 1 863 0 is_stmt 0 discriminator 1
 1269 0016 0020     		mov	r0, #0
 1270 0018 FFF7FEFF 		bl	CyHalt
 1271              	.LVL107:
 1272              	.L117:
 864:.\Generated_Source\PSoC4/CyDMA.c **** 
 865:.\Generated_Source\PSoC4/CyDMA.c ****     CYDMA_DESCR_BASE.descriptor[channel][descriptor].src = srcAddress;
 1273              		.loc 1 865 0 is_stmt 1
 1274 001c 6D00     		lsl	r5, r5, #1
 1275              	.LVL108:
 1276 001e 2C19     		add	r4, r5, r4
 1277              	.LVL109:
 1278 0020 2401     		lsl	r4, r4, #4
 1279 0022 014B     		ldr	r3, .L118
 1280 0024 E650     		str	r6, [r4, r3]
 866:.\Generated_Source\PSoC4/CyDMA.c **** }
 1281              		.loc 1 866 0
 1282              		@ sp needed
 1283              	.LVL110:
 1284 0026 70BD     		pop	{r4, r5, r6, pc}
 1285              	.L119:
 1286              		.align	2
 1287              	.L118:
 1288 0028 00181040 		.word	1074796544
 1289              		.cfi_endproc
 1290              	.LFE30:
 1291              		.size	CyDmaSetSrcAddress, .-CyDmaSetSrcAddress
 1292              		.section	.text.CyDmaGetSrcAddress,"ax",%progbits
 1293              		.align	2
 1294              		.global	CyDmaGetSrcAddress
 1295              		.code	16
 1296              		.thumb_func
 1297              		.type	CyDmaGetSrcAddress, %function
 1298              	CyDmaGetSrcAddress:
 1299              	.LFB31:
ARM GAS  C:\Users\Tim\AppData\Local\Temp\ccEK2rHG.s 			page 40


 867:.\Generated_Source\PSoC4/CyDMA.c **** 
 868:.\Generated_Source\PSoC4/CyDMA.c **** 
 869:.\Generated_Source\PSoC4/CyDMA.c **** /*******************************************************************************
 870:.\Generated_Source\PSoC4/CyDMA.c **** * Function Name: CyDmaGetSrcAddress
 871:.\Generated_Source\PSoC4/CyDMA.c **** ********************************************************************************
 872:.\Generated_Source\PSoC4/CyDMA.c **** *
 873:.\Generated_Source\PSoC4/CyDMA.c **** * Summary:
 874:.\Generated_Source\PSoC4/CyDMA.c **** *  Returns the source address for the specified descriptor, set by 
 875:.\Generated_Source\PSoC4/CyDMA.c **** *  CyDmaSetSrcAddress().
 876:.\Generated_Source\PSoC4/CyDMA.c **** *
 877:.\Generated_Source\PSoC4/CyDMA.c **** * Parameters:
 878:.\Generated_Source\PSoC4/CyDMA.c **** *  channel:    Channel used by this function.
 879:.\Generated_Source\PSoC4/CyDMA.c **** *  descriptor: Specifies descriptor (0 or 1) used by this function.
 880:.\Generated_Source\PSoC4/CyDMA.c **** *                   
 881:.\Generated_Source\PSoC4/CyDMA.c **** * Return:
 882:.\Generated_Source\PSoC4/CyDMA.c **** *  Source address written to specified descriptor.
 883:.\Generated_Source\PSoC4/CyDMA.c **** *
 884:.\Generated_Source\PSoC4/CyDMA.c **** *******************************************************************************/
 885:.\Generated_Source\PSoC4/CyDMA.c **** void * CyDmaGetSrcAddress(int32 channel, int32 descriptor)
 886:.\Generated_Source\PSoC4/CyDMA.c **** {
 1300              		.loc 1 886 0
 1301              		.cfi_startproc
 1302              	.LVL111:
 1303 0000 38B5     		push	{r3, r4, r5, lr}
 1304              		.cfi_def_cfa_offset 16
 1305              		.cfi_offset 3, -16
 1306              		.cfi_offset 4, -12
 1307              		.cfi_offset 5, -8
 1308              		.cfi_offset 14, -4
 1309 0002 051C     		mov	r5, r0
 1310 0004 0C1C     		mov	r4, r1
 887:.\Generated_Source\PSoC4/CyDMA.c ****     CYASSERT((channel    >= 0) && (channel    < CYDMA_CH_NR));
 1311              		.loc 1 887 0
 1312 0006 1F28     		cmp	r0, #31
 1313 0008 02D9     		bls	.L121
 1314              		.loc 1 887 0 is_stmt 0 discriminator 1
 1315 000a 0020     		mov	r0, #0
 1316              	.LVL112:
 1317 000c FFF7FEFF 		bl	CyHalt
 1318              	.LVL113:
 1319              	.L121:
 888:.\Generated_Source\PSoC4/CyDMA.c ****     CYASSERT((descriptor >= 0) && (descriptor < CYDMA_DESCR_NR));
 1320              		.loc 1 888 0 is_stmt 1
 1321 0010 012C     		cmp	r4, #1
 1322 0012 02D9     		bls	.L122
 1323              		.loc 1 888 0 is_stmt 0 discriminator 1
 1324 0014 0020     		mov	r0, #0
 1325 0016 FFF7FEFF 		bl	CyHalt
 1326              	.LVL114:
 1327              	.L122:
 889:.\Generated_Source\PSoC4/CyDMA.c **** 
 890:.\Generated_Source\PSoC4/CyDMA.c ****     return (CYDMA_DESCR_BASE.descriptor[channel][descriptor].src);
 1328              		.loc 1 890 0 is_stmt 1
 1329 001a 6D00     		lsl	r5, r5, #1
 1330              	.LVL115:
 1331 001c 2C19     		add	r4, r5, r4
 1332              	.LVL116:
ARM GAS  C:\Users\Tim\AppData\Local\Temp\ccEK2rHG.s 			page 41


 1333 001e 2401     		lsl	r4, r4, #4
 1334 0020 014B     		ldr	r3, .L123
 1335 0022 E058     		ldr	r0, [r4, r3]
 891:.\Generated_Source\PSoC4/CyDMA.c **** }
 1336              		.loc 1 891 0
 1337              		@ sp needed
 1338 0024 38BD     		pop	{r3, r4, r5, pc}
 1339              	.L124:
 1340 0026 C046     		.align	2
 1341              	.L123:
 1342 0028 00181040 		.word	1074796544
 1343              		.cfi_endproc
 1344              	.LFE31:
 1345              		.size	CyDmaGetSrcAddress, .-CyDmaGetSrcAddress
 1346              		.section	.text.CyDmaSetDstAddress,"ax",%progbits
 1347              		.align	2
 1348              		.global	CyDmaSetDstAddress
 1349              		.code	16
 1350              		.thumb_func
 1351              		.type	CyDmaSetDstAddress, %function
 1352              	CyDmaSetDstAddress:
 1353              	.LFB32:
 892:.\Generated_Source\PSoC4/CyDMA.c **** 
 893:.\Generated_Source\PSoC4/CyDMA.c **** 
 894:.\Generated_Source\PSoC4/CyDMA.c **** /*******************************************************************************
 895:.\Generated_Source\PSoC4/CyDMA.c **** * Function Name: CyDmaSetDstAddress
 896:.\Generated_Source\PSoC4/CyDMA.c **** ********************************************************************************
 897:.\Generated_Source\PSoC4/CyDMA.c **** *
 898:.\Generated_Source\PSoC4/CyDMA.c **** * Summary:
 899:.\Generated_Source\PSoC4/CyDMA.c **** *  Configures the destination address for the specified descriptor.
 900:.\Generated_Source\PSoC4/CyDMA.c **** *
 901:.\Generated_Source\PSoC4/CyDMA.c **** * Parameters:
 902:.\Generated_Source\PSoC4/CyDMA.c **** *  channel:    Channel used by this function.
 903:.\Generated_Source\PSoC4/CyDMA.c **** *  descriptor: Descriptor (0 or 1) modified by this function.
 904:.\Generated_Source\PSoC4/CyDMA.c **** *  dstAddress: Address of DMA transfer destination.
 905:.\Generated_Source\PSoC4/CyDMA.c **** *                   
 906:.\Generated_Source\PSoC4/CyDMA.c **** * Return:
 907:.\Generated_Source\PSoC4/CyDMA.c **** *  None.
 908:.\Generated_Source\PSoC4/CyDMA.c **** *
 909:.\Generated_Source\PSoC4/CyDMA.c **** * Side effect:
 910:.\Generated_Source\PSoC4/CyDMA.c **** *  This function should not be called when the specified descriptor is active
 911:.\Generated_Source\PSoC4/CyDMA.c **** *  in the DMA transfer engine. This can be checked by calling CyDmaGetStatus(). 
 912:.\Generated_Source\PSoC4/CyDMA.c **** *
 913:.\Generated_Source\PSoC4/CyDMA.c **** *******************************************************************************/
 914:.\Generated_Source\PSoC4/CyDMA.c **** void CyDmaSetDstAddress(int32 channel, int32 descriptor, void * dstAddress)
 915:.\Generated_Source\PSoC4/CyDMA.c **** {
 1354              		.loc 1 915 0
 1355              		.cfi_startproc
 1356              	.LVL117:
 1357 0000 70B5     		push	{r4, r5, r6, lr}
 1358              		.cfi_def_cfa_offset 16
 1359              		.cfi_offset 4, -16
 1360              		.cfi_offset 5, -12
 1361              		.cfi_offset 6, -8
 1362              		.cfi_offset 14, -4
 1363 0002 051C     		mov	r5, r0
 1364 0004 0C1C     		mov	r4, r1
ARM GAS  C:\Users\Tim\AppData\Local\Temp\ccEK2rHG.s 			page 42


 1365 0006 161C     		mov	r6, r2
 916:.\Generated_Source\PSoC4/CyDMA.c ****     CYASSERT((channel    >= 0) && (channel    < CYDMA_CH_NR));
 1366              		.loc 1 916 0
 1367 0008 1F28     		cmp	r0, #31
 1368 000a 02D9     		bls	.L126
 1369              		.loc 1 916 0 is_stmt 0 discriminator 1
 1370 000c 0020     		mov	r0, #0
 1371              	.LVL118:
 1372 000e FFF7FEFF 		bl	CyHalt
 1373              	.LVL119:
 1374              	.L126:
 917:.\Generated_Source\PSoC4/CyDMA.c ****     CYASSERT((descriptor >= 0) && (descriptor < CYDMA_DESCR_NR));
 1375              		.loc 1 917 0 is_stmt 1
 1376 0012 012C     		cmp	r4, #1
 1377 0014 02D9     		bls	.L127
 1378              		.loc 1 917 0 is_stmt 0 discriminator 1
 1379 0016 0020     		mov	r0, #0
 1380 0018 FFF7FEFF 		bl	CyHalt
 1381              	.LVL120:
 1382              	.L127:
 918:.\Generated_Source\PSoC4/CyDMA.c **** 
 919:.\Generated_Source\PSoC4/CyDMA.c ****     CYDMA_DESCR_BASE.descriptor[channel][descriptor].dst = dstAddress;
 1383              		.loc 1 919 0 is_stmt 1
 1384 001c 6D00     		lsl	r5, r5, #1
 1385              	.LVL121:
 1386 001e 2C19     		add	r4, r5, r4
 1387              	.LVL122:
 1388 0020 2401     		lsl	r4, r4, #4
 1389 0022 024B     		ldr	r3, .L128
 1390 0024 9C46     		mov	ip, r3
 1391 0026 6444     		add	r4, r4, ip
 1392 0028 6660     		str	r6, [r4, #4]
 920:.\Generated_Source\PSoC4/CyDMA.c **** }
 1393              		.loc 1 920 0
 1394              		@ sp needed
 1395              	.LVL123:
 1396 002a 70BD     		pop	{r4, r5, r6, pc}
 1397              	.L129:
 1398              		.align	2
 1399              	.L128:
 1400 002c 00181040 		.word	1074796544
 1401              		.cfi_endproc
 1402              	.LFE32:
 1403              		.size	CyDmaSetDstAddress, .-CyDmaSetDstAddress
 1404              		.section	.text.CyDmaGetDstAddress,"ax",%progbits
 1405              		.align	2
 1406              		.global	CyDmaGetDstAddress
 1407              		.code	16
 1408              		.thumb_func
 1409              		.type	CyDmaGetDstAddress, %function
 1410              	CyDmaGetDstAddress:
 1411              	.LFB33:
 921:.\Generated_Source\PSoC4/CyDMA.c **** 
 922:.\Generated_Source\PSoC4/CyDMA.c **** 
 923:.\Generated_Source\PSoC4/CyDMA.c **** /*******************************************************************************
 924:.\Generated_Source\PSoC4/CyDMA.c **** * Function Name: CyDmaGetDstAddress
 925:.\Generated_Source\PSoC4/CyDMA.c **** ********************************************************************************
ARM GAS  C:\Users\Tim\AppData\Local\Temp\ccEK2rHG.s 			page 43


 926:.\Generated_Source\PSoC4/CyDMA.c **** *
 927:.\Generated_Source\PSoC4/CyDMA.c **** * Summary:
 928:.\Generated_Source\PSoC4/CyDMA.c **** *  Returns the destination address for the specified descriptor, set by 
 929:.\Generated_Source\PSoC4/CyDMA.c **** *  CyDmaSetDstAddress().
 930:.\Generated_Source\PSoC4/CyDMA.c **** *
 931:.\Generated_Source\PSoC4/CyDMA.c **** * Parameters:
 932:.\Generated_Source\PSoC4/CyDMA.c **** *  channel:    Channel used by this function.
 933:.\Generated_Source\PSoC4/CyDMA.c **** *  descriptor: Specifies descriptor (0 or 1) used by this function.
 934:.\Generated_Source\PSoC4/CyDMA.c **** *                   
 935:.\Generated_Source\PSoC4/CyDMA.c **** * Return:
 936:.\Generated_Source\PSoC4/CyDMA.c **** *  Destination address written to specified descriptor.
 937:.\Generated_Source\PSoC4/CyDMA.c **** *
 938:.\Generated_Source\PSoC4/CyDMA.c **** *******************************************************************************/
 939:.\Generated_Source\PSoC4/CyDMA.c **** void * CyDmaGetDstAddress(int32 channel, int32 descriptor)
 940:.\Generated_Source\PSoC4/CyDMA.c **** {
 1412              		.loc 1 940 0
 1413              		.cfi_startproc
 1414              	.LVL124:
 1415 0000 38B5     		push	{r3, r4, r5, lr}
 1416              		.cfi_def_cfa_offset 16
 1417              		.cfi_offset 3, -16
 1418              		.cfi_offset 4, -12
 1419              		.cfi_offset 5, -8
 1420              		.cfi_offset 14, -4
 1421 0002 051C     		mov	r5, r0
 1422 0004 0C1C     		mov	r4, r1
 941:.\Generated_Source\PSoC4/CyDMA.c ****     CYASSERT((channel    >= 0) && (channel    < CYDMA_CH_NR));
 1423              		.loc 1 941 0
 1424 0006 1F28     		cmp	r0, #31
 1425 0008 02D9     		bls	.L131
 1426              		.loc 1 941 0 is_stmt 0 discriminator 1
 1427 000a 0020     		mov	r0, #0
 1428              	.LVL125:
 1429 000c FFF7FEFF 		bl	CyHalt
 1430              	.LVL126:
 1431              	.L131:
 942:.\Generated_Source\PSoC4/CyDMA.c ****     CYASSERT((descriptor >= 0) && (descriptor < CYDMA_DESCR_NR));
 1432              		.loc 1 942 0 is_stmt 1
 1433 0010 012C     		cmp	r4, #1
 1434 0012 02D9     		bls	.L132
 1435              		.loc 1 942 0 is_stmt 0 discriminator 1
 1436 0014 0020     		mov	r0, #0
 1437 0016 FFF7FEFF 		bl	CyHalt
 1438              	.LVL127:
 1439              	.L132:
 943:.\Generated_Source\PSoC4/CyDMA.c **** 
 944:.\Generated_Source\PSoC4/CyDMA.c ****     return (CYDMA_DESCR_BASE.descriptor[channel][descriptor].dst);
 1440              		.loc 1 944 0 is_stmt 1
 1441 001a 6D00     		lsl	r5, r5, #1
 1442              	.LVL128:
 1443 001c 2C19     		add	r4, r5, r4
 1444              	.LVL129:
 1445 001e 2401     		lsl	r4, r4, #4
 1446 0020 024B     		ldr	r3, .L133
 1447 0022 9C46     		mov	ip, r3
 1448 0024 6444     		add	r4, r4, ip
 1449 0026 6068     		ldr	r0, [r4, #4]
ARM GAS  C:\Users\Tim\AppData\Local\Temp\ccEK2rHG.s 			page 44


 945:.\Generated_Source\PSoC4/CyDMA.c **** }
 1450              		.loc 1 945 0
 1451              		@ sp needed
 1452 0028 38BD     		pop	{r3, r4, r5, pc}
 1453              	.L134:
 1454 002a C046     		.align	2
 1455              	.L133:
 1456 002c 00181040 		.word	1074796544
 1457              		.cfi_endproc
 1458              	.LFE33:
 1459              		.size	CyDmaGetDstAddress, .-CyDmaGetDstAddress
 1460              		.section	.text.CyDmaSetDataElementSize,"ax",%progbits
 1461              		.align	2
 1462              		.global	CyDmaSetDataElementSize
 1463              		.code	16
 1464              		.thumb_func
 1465              		.type	CyDmaSetDataElementSize, %function
 1466              	CyDmaSetDataElementSize:
 1467              	.LFB34:
 946:.\Generated_Source\PSoC4/CyDMA.c **** 
 947:.\Generated_Source\PSoC4/CyDMA.c **** /*******************************************************************************
 948:.\Generated_Source\PSoC4/CyDMA.c **** * Function Name: CyDmaSetDataElementSize
 949:.\Generated_Source\PSoC4/CyDMA.c **** ********************************************************************************
 950:.\Generated_Source\PSoC4/CyDMA.c **** *
 951:.\Generated_Source\PSoC4/CyDMA.c **** * Summary:
 952:.\Generated_Source\PSoC4/CyDMA.c **** *  Sets the data element size for the specified descriptor.
 953:.\Generated_Source\PSoC4/CyDMA.c **** *
 954:.\Generated_Source\PSoC4/CyDMA.c **** * Parameters:
 955:.\Generated_Source\PSoC4/CyDMA.c **** *  channel:         Channel used by this function.
 956:.\Generated_Source\PSoC4/CyDMA.c **** *  descriptor:      Descriptor (0 or 1) modified by this function.
 957:.\Generated_Source\PSoC4/CyDMA.c **** *  dataElementSize: Specifies the size of the data element. The DMA transfer
 958:.\Generated_Source\PSoC4/CyDMA.c **** *                   engine transfers one data element at a time. How these
 959:.\Generated_Source\PSoC4/CyDMA.c **** *                   transfers occur is controlled by the transfer mode.
 960:.\Generated_Source\PSoC4/CyDMA.c **** *                   Refer to the API bit field definitions in CyDMA_P4.h
 961:.\Generated_Source\PSoC4/CyDMA.c **** *                   or API description in the DMA channel datasheet for the 
 962:.\Generated_Source\PSoC4/CyDMA.c **** *                   parameter options.
 963:.\Generated_Source\PSoC4/CyDMA.c **** *
 964:.\Generated_Source\PSoC4/CyDMA.c **** * Return:
 965:.\Generated_Source\PSoC4/CyDMA.c **** *  None.
 966:.\Generated_Source\PSoC4/CyDMA.c **** *
 967:.\Generated_Source\PSoC4/CyDMA.c **** * Side effect:
 968:.\Generated_Source\PSoC4/CyDMA.c **** *  This function should not be called when the specified descriptor is active
 969:.\Generated_Source\PSoC4/CyDMA.c **** *  in the DMA transfer engine. This can be checked by calling CyDmaGetStatus(). 
 970:.\Generated_Source\PSoC4/CyDMA.c **** *
 971:.\Generated_Source\PSoC4/CyDMA.c **** *******************************************************************************/
 972:.\Generated_Source\PSoC4/CyDMA.c **** void CyDmaSetDataElementSize(int32 channel, int32 descriptor, uint32 dataElementSize)
 973:.\Generated_Source\PSoC4/CyDMA.c **** {
 1468              		.loc 1 973 0
 1469              		.cfi_startproc
 1470              	.LVL130:
 1471 0000 70B5     		push	{r4, r5, r6, lr}
 1472              		.cfi_def_cfa_offset 16
 1473              		.cfi_offset 4, -16
 1474              		.cfi_offset 5, -12
 1475              		.cfi_offset 6, -8
 1476              		.cfi_offset 14, -4
 1477 0002 061C     		mov	r6, r0
ARM GAS  C:\Users\Tim\AppData\Local\Temp\ccEK2rHG.s 			page 45


 1478 0004 0C1C     		mov	r4, r1
 1479 0006 151C     		mov	r5, r2
 974:.\Generated_Source\PSoC4/CyDMA.c ****     uint32 regValue;
 975:.\Generated_Source\PSoC4/CyDMA.c ****     
 976:.\Generated_Source\PSoC4/CyDMA.c ****     CYASSERT((channel    >= 0) && (channel    < CYDMA_CH_NR));
 1480              		.loc 1 976 0
 1481 0008 1F28     		cmp	r0, #31
 1482 000a 02D9     		bls	.L136
 1483              		.loc 1 976 0 is_stmt 0 discriminator 1
 1484 000c 0020     		mov	r0, #0
 1485              	.LVL131:
 1486 000e FFF7FEFF 		bl	CyHalt
 1487              	.LVL132:
 1488              	.L136:
 977:.\Generated_Source\PSoC4/CyDMA.c ****     CYASSERT((descriptor >= 0) && (descriptor < CYDMA_DESCR_NR));
 1489              		.loc 1 977 0 is_stmt 1
 1490 0012 012C     		cmp	r4, #1
 1491 0014 02D9     		bls	.L137
 1492              		.loc 1 977 0 is_stmt 0 discriminator 1
 1493 0016 0020     		mov	r0, #0
 1494 0018 FFF7FEFF 		bl	CyHalt
 1495              	.LVL133:
 1496              	.L137:
 978:.\Generated_Source\PSoC4/CyDMA.c ****     CYASSERT(0u == (dataElementSize & (uint32)~CYDMA_DATA_SIZE));
 1497              		.loc 1 978 0 is_stmt 1
 1498 001c 084B     		ldr	r3, .L139
 1499 001e 1D42     		tst	r5, r3
 1500 0020 02D0     		beq	.L138
 1501              		.loc 1 978 0 is_stmt 0 discriminator 1
 1502 0022 0020     		mov	r0, #0
 1503 0024 FFF7FEFF 		bl	CyHalt
 1504              	.LVL134:
 1505              	.L138:
 979:.\Generated_Source\PSoC4/CyDMA.c **** 
 980:.\Generated_Source\PSoC4/CyDMA.c ****     regValue = CYDMA_DESCR_BASE.descriptor[channel][descriptor].ctl & (uint32)~CYDMA_DATA_SIZE;
 1506              		.loc 1 980 0 is_stmt 1
 1507 0028 7600     		lsl	r6, r6, #1
 1508              	.LVL135:
 1509 002a 3419     		add	r4, r6, r4
 1510              	.LVL136:
 1511 002c 2401     		lsl	r4, r4, #4
 1512 002e 054B     		ldr	r3, .L139+4
 1513 0030 9C46     		mov	ip, r3
 1514 0032 6444     		add	r4, r4, ip
 1515 0034 A268     		ldr	r2, [r4, #8]
 1516 0036 024B     		ldr	r3, .L139
 1517 0038 1340     		and	r3, r2
 1518              	.LVL137:
 981:.\Generated_Source\PSoC4/CyDMA.c ****     CYDMA_DESCR_BASE.descriptor[channel][descriptor].ctl = regValue | dataElementSize;
 1519              		.loc 1 981 0
 1520 003a 1D43     		orr	r5, r3
 1521              	.LVL138:
 1522 003c A560     		str	r5, [r4, #8]
 982:.\Generated_Source\PSoC4/CyDMA.c **** }
 1523              		.loc 1 982 0
 1524              		@ sp needed
 1525 003e 70BD     		pop	{r4, r5, r6, pc}
ARM GAS  C:\Users\Tim\AppData\Local\Temp\ccEK2rHG.s 			page 46


 1526              	.L140:
 1527              		.align	2
 1528              	.L139:
 1529 0040 FFFFFCFF 		.word	-196609
 1530 0044 00181040 		.word	1074796544
 1531              		.cfi_endproc
 1532              	.LFE34:
 1533              		.size	CyDmaSetDataElementSize, .-CyDmaSetDataElementSize
 1534              		.section	.text.CyDmaGetDataElementSize,"ax",%progbits
 1535              		.align	2
 1536              		.global	CyDmaGetDataElementSize
 1537              		.code	16
 1538              		.thumb_func
 1539              		.type	CyDmaGetDataElementSize, %function
 1540              	CyDmaGetDataElementSize:
 1541              	.LFB35:
 983:.\Generated_Source\PSoC4/CyDMA.c **** 
 984:.\Generated_Source\PSoC4/CyDMA.c **** 
 985:.\Generated_Source\PSoC4/CyDMA.c **** /*******************************************************************************
 986:.\Generated_Source\PSoC4/CyDMA.c **** * Function Name: CyDmaGetDataElementSize
 987:.\Generated_Source\PSoC4/CyDMA.c **** ********************************************************************************
 988:.\Generated_Source\PSoC4/CyDMA.c **** *
 989:.\Generated_Source\PSoC4/CyDMA.c **** * Summary:
 990:.\Generated_Source\PSoC4/CyDMA.c **** *  Returns the data element size configured for the specified descriptor, set by
 991:.\Generated_Source\PSoC4/CyDMA.c **** *  CyDmaSetDataElementSize() or CyDmaSetConfiguration.
 992:.\Generated_Source\PSoC4/CyDMA.c **** *
 993:.\Generated_Source\PSoC4/CyDMA.c **** * Parameters:
 994:.\Generated_Source\PSoC4/CyDMA.c **** *  channel:    Channel used by this function.
 995:.\Generated_Source\PSoC4/CyDMA.c **** *  descriptor: Descriptor (0 or 1) modified by this function.
 996:.\Generated_Source\PSoC4/CyDMA.c **** *                   
 997:.\Generated_Source\PSoC4/CyDMA.c **** * Return:
 998:.\Generated_Source\PSoC4/CyDMA.c **** *  The size of the data element. The DMA transfer engine transfers one data
 999:.\Generated_Source\PSoC4/CyDMA.c **** *  element at a time. How these transfers occur is controlled by the transfer
1000:.\Generated_Source\PSoC4/CyDMA.c **** *  mode. Refer to the API bit field definitions in CyDMA_P4.h or the API 
1001:.\Generated_Source\PSoC4/CyDMA.c **** *  description in the DMA channel datasheet for more information.
1002:.\Generated_Source\PSoC4/CyDMA.c **** *
1003:.\Generated_Source\PSoC4/CyDMA.c **** * Note:
1004:.\Generated_Source\PSoC4/CyDMA.c **** *  The size of the source and destination can be configured to use the
1005:.\Generated_Source\PSoC4/CyDMA.c **** *  data element size, or a Word, this is set in CyDmaSetSrcDstTransferWidth().
1006:.\Generated_Source\PSoC4/CyDMA.c **** *
1007:.\Generated_Source\PSoC4/CyDMA.c **** *******************************************************************************/
1008:.\Generated_Source\PSoC4/CyDMA.c **** uint32 CyDmaGetDataElementSize(int32 channel, int32 descriptor)
1009:.\Generated_Source\PSoC4/CyDMA.c **** {
 1542              		.loc 1 1009 0
 1543              		.cfi_startproc
 1544              	.LVL139:
 1545 0000 38B5     		push	{r3, r4, r5, lr}
 1546              		.cfi_def_cfa_offset 16
 1547              		.cfi_offset 3, -16
 1548              		.cfi_offset 4, -12
 1549              		.cfi_offset 5, -8
 1550              		.cfi_offset 14, -4
 1551 0002 051C     		mov	r5, r0
 1552 0004 0C1C     		mov	r4, r1
1010:.\Generated_Source\PSoC4/CyDMA.c ****     CYASSERT((channel    >= 0) && (channel    < CYDMA_CH_NR));
 1553              		.loc 1 1010 0
 1554 0006 1F28     		cmp	r0, #31
ARM GAS  C:\Users\Tim\AppData\Local\Temp\ccEK2rHG.s 			page 47


 1555 0008 02D9     		bls	.L142
 1556              		.loc 1 1010 0 is_stmt 0 discriminator 1
 1557 000a 0020     		mov	r0, #0
 1558              	.LVL140:
 1559 000c FFF7FEFF 		bl	CyHalt
 1560              	.LVL141:
 1561              	.L142:
1011:.\Generated_Source\PSoC4/CyDMA.c ****     CYASSERT((descriptor >= 0) && (descriptor < CYDMA_DESCR_NR));
 1562              		.loc 1 1011 0 is_stmt 1
 1563 0010 012C     		cmp	r4, #1
 1564 0012 02D9     		bls	.L143
 1565              		.loc 1 1011 0 is_stmt 0 discriminator 1
 1566 0014 0020     		mov	r0, #0
 1567 0016 FFF7FEFF 		bl	CyHalt
 1568              	.LVL142:
 1569              	.L143:
1012:.\Generated_Source\PSoC4/CyDMA.c **** 
1013:.\Generated_Source\PSoC4/CyDMA.c ****     return (CYDMA_DESCR_BASE.descriptor[channel][descriptor].ctl & CYDMA_DATA_SIZE);
 1570              		.loc 1 1013 0 is_stmt 1
 1571 001a 6D00     		lsl	r5, r5, #1
 1572              	.LVL143:
 1573 001c 2C19     		add	r4, r5, r4
 1574              	.LVL144:
 1575 001e 2401     		lsl	r4, r4, #4
 1576 0020 034B     		ldr	r3, .L144
 1577 0022 9C46     		mov	ip, r3
 1578 0024 6444     		add	r4, r4, ip
 1579 0026 A068     		ldr	r0, [r4, #8]
 1580 0028 C023     		mov	r3, #192
 1581 002a 9B02     		lsl	r3, r3, #10
 1582 002c 1840     		and	r0, r3
1014:.\Generated_Source\PSoC4/CyDMA.c **** }
 1583              		.loc 1 1014 0
 1584              		@ sp needed
 1585 002e 38BD     		pop	{r3, r4, r5, pc}
 1586              	.L145:
 1587              		.align	2
 1588              	.L144:
 1589 0030 00181040 		.word	1074796544
 1590              		.cfi_endproc
 1591              	.LFE35:
 1592              		.size	CyDmaGetDataElementSize, .-CyDmaGetDataElementSize
 1593              		.section	.text.CyDmaSetNumDataElements,"ax",%progbits
 1594              		.align	2
 1595              		.global	CyDmaSetNumDataElements
 1596              		.code	16
 1597              		.thumb_func
 1598              		.type	CyDmaSetNumDataElements, %function
 1599              	CyDmaSetNumDataElements:
 1600              	.LFB36:
1015:.\Generated_Source\PSoC4/CyDMA.c **** 
1016:.\Generated_Source\PSoC4/CyDMA.c **** 
1017:.\Generated_Source\PSoC4/CyDMA.c **** /*******************************************************************************
1018:.\Generated_Source\PSoC4/CyDMA.c **** * Function Name: CyDmaSetNumDataElements
1019:.\Generated_Source\PSoC4/CyDMA.c **** ********************************************************************************
1020:.\Generated_Source\PSoC4/CyDMA.c **** *
1021:.\Generated_Source\PSoC4/CyDMA.c **** * Summary:
ARM GAS  C:\Users\Tim\AppData\Local\Temp\ccEK2rHG.s 			page 48


1022:.\Generated_Source\PSoC4/CyDMA.c **** *  Sets the number of data elements to transfer for specified descriptor.
1023:.\Generated_Source\PSoC4/CyDMA.c **** *
1024:.\Generated_Source\PSoC4/CyDMA.c **** * Parameters:
1025:.\Generated_Source\PSoC4/CyDMA.c **** *  channel:         Channel used by this function.
1026:.\Generated_Source\PSoC4/CyDMA.c **** *  descriptor:      Descriptor (0 or 1) modified by this function.
1027:.\Generated_Source\PSoC4/CyDMA.c **** *  numDataElements: Total number of data elements this descriptor transfers.
1028:.\Generated_Source\PSoC4/CyDMA.c **** *                   Valid ranges are 1 to 65536.
1029:.\Generated_Source\PSoC4/CyDMA.c **** *                   
1030:.\Generated_Source\PSoC4/CyDMA.c **** * Return:
1031:.\Generated_Source\PSoC4/CyDMA.c **** *  None.
1032:.\Generated_Source\PSoC4/CyDMA.c **** *
1033:.\Generated_Source\PSoC4/CyDMA.c **** * Side effect:
1034:.\Generated_Source\PSoC4/CyDMA.c **** *  This function should not be called when the specified descriptor is active
1035:.\Generated_Source\PSoC4/CyDMA.c **** *  in the DMA transfer engine. This can be checked by calling CyDmaGetStatus(). 
1036:.\Generated_Source\PSoC4/CyDMA.c **** *
1037:.\Generated_Source\PSoC4/CyDMA.c **** *******************************************************************************/
1038:.\Generated_Source\PSoC4/CyDMA.c **** void CyDmaSetNumDataElements(int32 channel, int32 descriptor, int32 numDataElements)
1039:.\Generated_Source\PSoC4/CyDMA.c **** {
 1601              		.loc 1 1039 0
 1602              		.cfi_startproc
 1603              	.LVL145:
 1604 0000 70B5     		push	{r4, r5, r6, lr}
 1605              		.cfi_def_cfa_offset 16
 1606              		.cfi_offset 4, -16
 1607              		.cfi_offset 5, -12
 1608              		.cfi_offset 6, -8
 1609              		.cfi_offset 14, -4
 1610 0002 061C     		mov	r6, r0
 1611 0004 0C1C     		mov	r4, r1
 1612 0006 151C     		mov	r5, r2
1040:.\Generated_Source\PSoC4/CyDMA.c ****     uint32 regValue;
1041:.\Generated_Source\PSoC4/CyDMA.c ****     
1042:.\Generated_Source\PSoC4/CyDMA.c ****     CYASSERT((channel        >= 0) && (channel         <  CYDMA_CH_NR));
 1613              		.loc 1 1042 0
 1614 0008 1F28     		cmp	r0, #31
 1615 000a 02D9     		bls	.L147
 1616              		.loc 1 1042 0 is_stmt 0 discriminator 1
 1617 000c 0020     		mov	r0, #0
 1618              	.LVL146:
 1619 000e FFF7FEFF 		bl	CyHalt
 1620              	.LVL147:
 1621              	.L147:
1043:.\Generated_Source\PSoC4/CyDMA.c ****     CYASSERT((descriptor     >= 0) && (descriptor      <  CYDMA_DESCR_NR));
 1622              		.loc 1 1043 0 is_stmt 1
 1623 0012 012C     		cmp	r4, #1
 1624 0014 02D9     		bls	.L148
 1625              		.loc 1 1043 0 is_stmt 0 discriminator 1
 1626 0016 0020     		mov	r0, #0
 1627 0018 FFF7FEFF 		bl	CyHalt
 1628              	.LVL148:
 1629              	.L148:
1044:.\Generated_Source\PSoC4/CyDMA.c ****     CYASSERT((numDataElements > 0) && (numDataElements <= CYDMA_MAX_DATA_NR));
 1630              		.loc 1 1044 0 is_stmt 1
 1631 001c 6B1E     		sub	r3, r5, #1
 1632 001e 094A     		ldr	r2, .L150
 1633 0020 9342     		cmp	r3, r2
 1634 0022 02D9     		bls	.L149
ARM GAS  C:\Users\Tim\AppData\Local\Temp\ccEK2rHG.s 			page 49


 1635              		.loc 1 1044 0 is_stmt 0 discriminator 1
 1636 0024 0020     		mov	r0, #0
 1637 0026 FFF7FEFF 		bl	CyHalt
 1638              	.LVL149:
 1639              	.L149:
1045:.\Generated_Source\PSoC4/CyDMA.c ****     
1046:.\Generated_Source\PSoC4/CyDMA.c ****     --numDataElements;
 1640              		.loc 1 1046 0 is_stmt 1
 1641 002a 6B1E     		sub	r3, r5, #1
 1642              	.LVL150:
1047:.\Generated_Source\PSoC4/CyDMA.c ****     regValue = CYDMA_DESCR_BASE.descriptor[channel][descriptor].ctl & (uint32)~CYDMA_DATA_NR;
 1643              		.loc 1 1047 0
 1644 002c 7600     		lsl	r6, r6, #1
 1645              	.LVL151:
 1646 002e 3419     		add	r4, r6, r4
 1647              	.LVL152:
 1648 0030 2401     		lsl	r4, r4, #4
 1649 0032 054A     		ldr	r2, .L150+4
 1650 0034 9446     		mov	ip, r2
 1651 0036 6444     		add	r4, r4, ip
 1652 0038 A568     		ldr	r5, [r4, #8]
 1653 003a 2D0C     		lsr	r5, r5, #16
 1654 003c 2D04     		lsl	r5, r5, #16
 1655              	.LVL153:
1048:.\Generated_Source\PSoC4/CyDMA.c ****     CYDMA_DESCR_BASE.descriptor[channel][descriptor].ctl = regValue | (uint32)numDataElements;
 1656              		.loc 1 1048 0
 1657 003e 1D43     		orr	r5, r3
 1658              	.LVL154:
 1659 0040 A560     		str	r5, [r4, #8]
1049:.\Generated_Source\PSoC4/CyDMA.c **** }
 1660              		.loc 1 1049 0
 1661              		@ sp needed
 1662 0042 70BD     		pop	{r4, r5, r6, pc}
 1663              	.L151:
 1664              		.align	2
 1665              	.L150:
 1666 0044 FFFF0000 		.word	65535
 1667 0048 00181040 		.word	1074796544
 1668              		.cfi_endproc
 1669              	.LFE36:
 1670              		.size	CyDmaSetNumDataElements, .-CyDmaSetNumDataElements
 1671              		.section	.text.CyDmaGetNumDataElements,"ax",%progbits
 1672              		.align	2
 1673              		.global	CyDmaGetNumDataElements
 1674              		.code	16
 1675              		.thumb_func
 1676              		.type	CyDmaGetNumDataElements, %function
 1677              	CyDmaGetNumDataElements:
 1678              	.LFB37:
1050:.\Generated_Source\PSoC4/CyDMA.c **** 
1051:.\Generated_Source\PSoC4/CyDMA.c **** 
1052:.\Generated_Source\PSoC4/CyDMA.c **** /*******************************************************************************
1053:.\Generated_Source\PSoC4/CyDMA.c **** * Function Name: CyDmaGetNumDataElements
1054:.\Generated_Source\PSoC4/CyDMA.c **** ********************************************************************************
1055:.\Generated_Source\PSoC4/CyDMA.c **** *
1056:.\Generated_Source\PSoC4/CyDMA.c **** * Summary:
1057:.\Generated_Source\PSoC4/CyDMA.c **** *  Returns the number of data elements to be transferred. Only reflects the
ARM GAS  C:\Users\Tim\AppData\Local\Temp\ccEK2rHG.s 			page 50


1058:.\Generated_Source\PSoC4/CyDMA.c **** *  value written by CyDmaSetNumDataElements() or CyDmaSetConfiguration(). This
1059:.\Generated_Source\PSoC4/CyDMA.c **** *  does not reflect how many elements have been transferred. For that
1060:.\Generated_Source\PSoC4/CyDMA.c **** *  information use the CyDmaGetDescriptorStatus() function.
1061:.\Generated_Source\PSoC4/CyDMA.c **** *
1062:.\Generated_Source\PSoC4/CyDMA.c **** * Parameters:
1063:.\Generated_Source\PSoC4/CyDMA.c **** *  channel:    Channel used by this function.
1064:.\Generated_Source\PSoC4/CyDMA.c **** *  descriptor: Descriptor (0 or 1) modified by this function.
1065:.\Generated_Source\PSoC4/CyDMA.c **** *                   
1066:.\Generated_Source\PSoC4/CyDMA.c **** * Return:
1067:.\Generated_Source\PSoC4/CyDMA.c **** *  Number of data elements to transfer.
1068:.\Generated_Source\PSoC4/CyDMA.c **** *
1069:.\Generated_Source\PSoC4/CyDMA.c **** *******************************************************************************/
1070:.\Generated_Source\PSoC4/CyDMA.c **** int32 CyDmaGetNumDataElements(int32 channel, int32 descriptor)
1071:.\Generated_Source\PSoC4/CyDMA.c **** {
 1679              		.loc 1 1071 0
 1680              		.cfi_startproc
 1681              	.LVL155:
 1682 0000 38B5     		push	{r3, r4, r5, lr}
 1683              		.cfi_def_cfa_offset 16
 1684              		.cfi_offset 3, -16
 1685              		.cfi_offset 4, -12
 1686              		.cfi_offset 5, -8
 1687              		.cfi_offset 14, -4
 1688 0002 051C     		mov	r5, r0
 1689 0004 0C1C     		mov	r4, r1
1072:.\Generated_Source\PSoC4/CyDMA.c ****     uint32 numElements;
1073:.\Generated_Source\PSoC4/CyDMA.c **** 
1074:.\Generated_Source\PSoC4/CyDMA.c ****     CYASSERT((channel    >= 0) && (channel    < CYDMA_CH_NR));
 1690              		.loc 1 1074 0
 1691 0006 1F28     		cmp	r0, #31
 1692 0008 02D9     		bls	.L153
 1693              		.loc 1 1074 0 is_stmt 0 discriminator 1
 1694 000a 0020     		mov	r0, #0
 1695              	.LVL156:
 1696 000c FFF7FEFF 		bl	CyHalt
 1697              	.LVL157:
 1698              	.L153:
1075:.\Generated_Source\PSoC4/CyDMA.c ****     CYASSERT((descriptor >= 0) && (descriptor < CYDMA_DESCR_NR));
 1699              		.loc 1 1075 0 is_stmt 1
 1700 0010 012C     		cmp	r4, #1
 1701 0012 02D9     		bls	.L154
 1702              		.loc 1 1075 0 is_stmt 0 discriminator 1
 1703 0014 0020     		mov	r0, #0
 1704 0016 FFF7FEFF 		bl	CyHalt
 1705              	.LVL158:
 1706              	.L154:
1076:.\Generated_Source\PSoC4/CyDMA.c ****     
1077:.\Generated_Source\PSoC4/CyDMA.c ****     numElements = (CYDMA_DESCR_BASE.descriptor[channel][descriptor].ctl & CYDMA_DATA_NR) + 1u;
 1707              		.loc 1 1077 0 is_stmt 1
 1708 001a 6D00     		lsl	r5, r5, #1
 1709              	.LVL159:
 1710 001c 2C19     		add	r4, r5, r4
 1711              	.LVL160:
 1712 001e 2401     		lsl	r4, r4, #4
 1713 0020 034B     		ldr	r3, .L155
 1714 0022 9C46     		mov	ip, r3
 1715 0024 6444     		add	r4, r4, ip
ARM GAS  C:\Users\Tim\AppData\Local\Temp\ccEK2rHG.s 			page 51


 1716 0026 A068     		ldr	r0, [r4, #8]
 1717 0028 0004     		lsl	r0, r0, #16
 1718 002a 000C     		lsr	r0, r0, #16
 1719 002c 0130     		add	r0, r0, #1
 1720              	.LVL161:
1078:.\Generated_Source\PSoC4/CyDMA.c ****     return ((int32)numElements);
1079:.\Generated_Source\PSoC4/CyDMA.c **** }
 1721              		.loc 1 1079 0
 1722              		@ sp needed
 1723 002e 38BD     		pop	{r3, r4, r5, pc}
 1724              	.L156:
 1725              		.align	2
 1726              	.L155:
 1727 0030 00181040 		.word	1074796544
 1728              		.cfi_endproc
 1729              	.LFE37:
 1730              		.size	CyDmaGetNumDataElements, .-CyDmaGetNumDataElements
 1731              		.section	.text.CyDmaSetSrcDstTransferWidth,"ax",%progbits
 1732              		.align	2
 1733              		.global	CyDmaSetSrcDstTransferWidth
 1734              		.code	16
 1735              		.thumb_func
 1736              		.type	CyDmaSetSrcDstTransferWidth, %function
 1737              	CyDmaSetSrcDstTransferWidth:
 1738              	.LFB38:
1080:.\Generated_Source\PSoC4/CyDMA.c **** 
1081:.\Generated_Source\PSoC4/CyDMA.c **** 
1082:.\Generated_Source\PSoC4/CyDMA.c **** /*******************************************************************************
1083:.\Generated_Source\PSoC4/CyDMA.c **** * Function Name: CyDmaSetSrcDstTransferWidth
1084:.\Generated_Source\PSoC4/CyDMA.c **** ********************************************************************************
1085:.\Generated_Source\PSoC4/CyDMA.c **** *
1086:.\Generated_Source\PSoC4/CyDMA.c **** * Summary:
1087:.\Generated_Source\PSoC4/CyDMA.c **** *  Sets the width of the source and destination. The DMA can either read and
1088:.\Generated_Source\PSoC4/CyDMA.c **** *  write data from the source and destination at the size specified by
1089:.\Generated_Source\PSoC4/CyDMA.c **** *  CyDmaSetDataElementSize() or by a word (4bytes). This also determines how
1090:.\Generated_Source\PSoC4/CyDMA.c **** *  many bytes the addresses are incremented if increment source and destination
1091:.\Generated_Source\PSoC4/CyDMA.c **** *  address are turned on.
1092:.\Generated_Source\PSoC4/CyDMA.c **** *
1093:.\Generated_Source\PSoC4/CyDMA.c **** * Parameters:
1094:.\Generated_Source\PSoC4/CyDMA.c **** *  channel:       Channel used by this function.
1095:.\Generated_Source\PSoC4/CyDMA.c **** *  descriptor:    Descriptor (0 or 1) modified by this function.
1096:.\Generated_Source\PSoC4/CyDMA.c **** *  transferWidth: Specifies the source and destination widths. Refer to 
1097:.\Generated_Source\PSoC4/CyDMA.c **** *                 the API bit field definitions in CyDMA_P4.h or the API
1098:.\Generated_Source\PSoC4/CyDMA.c **** *                 description in the DMA channel datasheet for the parameter
1099:.\Generated_Source\PSoC4/CyDMA.c **** *                 options.
1100:.\Generated_Source\PSoC4/CyDMA.c **** *                   
1101:.\Generated_Source\PSoC4/CyDMA.c **** * Return:
1102:.\Generated_Source\PSoC4/CyDMA.c **** *  None.
1103:.\Generated_Source\PSoC4/CyDMA.c **** *
1104:.\Generated_Source\PSoC4/CyDMA.c **** * Side effect:
1105:.\Generated_Source\PSoC4/CyDMA.c **** *  This function should not be called when the specified descriptor is active
1106:.\Generated_Source\PSoC4/CyDMA.c **** *  in the DMA transfer engine. This can be checked by calling CyDmaGetStatus(). 
1107:.\Generated_Source\PSoC4/CyDMA.c **** *
1108:.\Generated_Source\PSoC4/CyDMA.c **** *******************************************************************************/
1109:.\Generated_Source\PSoC4/CyDMA.c **** void CyDmaSetSrcDstTransferWidth(int32 channel, int32 descriptor, uint32 transferWidth)
1110:.\Generated_Source\PSoC4/CyDMA.c **** {
 1739              		.loc 1 1110 0
ARM GAS  C:\Users\Tim\AppData\Local\Temp\ccEK2rHG.s 			page 52


 1740              		.cfi_startproc
 1741              	.LVL162:
 1742 0000 70B5     		push	{r4, r5, r6, lr}
 1743              		.cfi_def_cfa_offset 16
 1744              		.cfi_offset 4, -16
 1745              		.cfi_offset 5, -12
 1746              		.cfi_offset 6, -8
 1747              		.cfi_offset 14, -4
 1748 0002 061C     		mov	r6, r0
 1749 0004 0C1C     		mov	r4, r1
 1750 0006 151C     		mov	r5, r2
1111:.\Generated_Source\PSoC4/CyDMA.c ****     uint32 regValue;
1112:.\Generated_Source\PSoC4/CyDMA.c **** 
1113:.\Generated_Source\PSoC4/CyDMA.c ****     CYASSERT((channel    >= 0) && (channel    < CYDMA_CH_NR));
 1751              		.loc 1 1113 0
 1752 0008 1F28     		cmp	r0, #31
 1753 000a 02D9     		bls	.L158
 1754              		.loc 1 1113 0 is_stmt 0 discriminator 1
 1755 000c 0020     		mov	r0, #0
 1756              	.LVL163:
 1757 000e FFF7FEFF 		bl	CyHalt
 1758              	.LVL164:
 1759              	.L158:
1114:.\Generated_Source\PSoC4/CyDMA.c ****     CYASSERT((descriptor >= 0) && (descriptor < CYDMA_DESCR_NR));
 1760              		.loc 1 1114 0 is_stmt 1
 1761 0012 012C     		cmp	r4, #1
 1762 0014 02D9     		bls	.L159
 1763              		.loc 1 1114 0 is_stmt 0 discriminator 1
 1764 0016 0020     		mov	r0, #0
 1765 0018 FFF7FEFF 		bl	CyHalt
 1766              	.LVL165:
 1767              	.L159:
1115:.\Generated_Source\PSoC4/CyDMA.c ****     CYASSERT(0u == (transferWidth & (uint32)~CYDMA_TRANSFER_WIDTH));
 1768              		.loc 1 1115 0 is_stmt 1
 1769 001c 084B     		ldr	r3, .L161
 1770 001e 1D42     		tst	r5, r3
 1771 0020 02D0     		beq	.L160
 1772              		.loc 1 1115 0 is_stmt 0 discriminator 1
 1773 0022 0020     		mov	r0, #0
 1774 0024 FFF7FEFF 		bl	CyHalt
 1775              	.LVL166:
 1776              	.L160:
1116:.\Generated_Source\PSoC4/CyDMA.c **** 
1117:.\Generated_Source\PSoC4/CyDMA.c ****     regValue = CYDMA_DESCR_BASE.descriptor[channel][descriptor].ctl & (uint32)~CYDMA_TRANSFER_WIDTH
 1777              		.loc 1 1117 0 is_stmt 1
 1778 0028 7600     		lsl	r6, r6, #1
 1779              	.LVL167:
 1780 002a 3419     		add	r4, r6, r4
 1781              	.LVL168:
 1782 002c 2401     		lsl	r4, r4, #4
 1783 002e 054B     		ldr	r3, .L161+4
 1784 0030 9C46     		mov	ip, r3
 1785 0032 6444     		add	r4, r4, ip
 1786 0034 A268     		ldr	r2, [r4, #8]
 1787 0036 024B     		ldr	r3, .L161
 1788 0038 1340     		and	r3, r2
 1789              	.LVL169:
ARM GAS  C:\Users\Tim\AppData\Local\Temp\ccEK2rHG.s 			page 53


1118:.\Generated_Source\PSoC4/CyDMA.c ****     CYDMA_DESCR_BASE.descriptor[channel][descriptor].ctl = regValue | transferWidth;
 1790              		.loc 1 1118 0
 1791 003a 1D43     		orr	r5, r3
 1792              	.LVL170:
 1793 003c A560     		str	r5, [r4, #8]
1119:.\Generated_Source\PSoC4/CyDMA.c **** }
 1794              		.loc 1 1119 0
 1795              		@ sp needed
 1796 003e 70BD     		pop	{r4, r5, r6, pc}
 1797              	.L162:
 1798              		.align	2
 1799              	.L161:
 1800 0040 FFFFAFFF 		.word	-5242881
 1801 0044 00181040 		.word	1074796544
 1802              		.cfi_endproc
 1803              	.LFE38:
 1804              		.size	CyDmaSetSrcDstTransferWidth, .-CyDmaSetSrcDstTransferWidth
 1805              		.section	.text.CyDmaGetSrcDstTransferWidth,"ax",%progbits
 1806              		.align	2
 1807              		.global	CyDmaGetSrcDstTransferWidth
 1808              		.code	16
 1809              		.thumb_func
 1810              		.type	CyDmaGetSrcDstTransferWidth, %function
 1811              	CyDmaGetSrcDstTransferWidth:
 1812              	.LFB39:
1120:.\Generated_Source\PSoC4/CyDMA.c **** 
1121:.\Generated_Source\PSoC4/CyDMA.c **** 
1122:.\Generated_Source\PSoC4/CyDMA.c **** /*******************************************************************************
1123:.\Generated_Source\PSoC4/CyDMA.c **** * Function Name: CyDmaGetSrcDstTransferWidth
1124:.\Generated_Source\PSoC4/CyDMA.c **** ********************************************************************************
1125:.\Generated_Source\PSoC4/CyDMA.c **** *
1126:.\Generated_Source\PSoC4/CyDMA.c **** * Summary:
1127:.\Generated_Source\PSoC4/CyDMA.c **** *  Returns the width of the source and destination, as set by 
1128:.\Generated_Source\PSoC4/CyDMA.c **** *  CyDmaSetSrcDstTransferWidth() or CyDmaSetConfiguration().
1129:.\Generated_Source\PSoC4/CyDMA.c **** *
1130:.\Generated_Source\PSoC4/CyDMA.c **** * Parameters:
1131:.\Generated_Source\PSoC4/CyDMA.c **** *  channel:    Channel used by this function.
1132:.\Generated_Source\PSoC4/CyDMA.c **** *  descriptor: Descriptor (0 or 1) modified by this function.
1133:.\Generated_Source\PSoC4/CyDMA.c **** *                   
1134:.\Generated_Source\PSoC4/CyDMA.c **** * Return:
1135:.\Generated_Source\PSoC4/CyDMA.c **** *  Width of source and destination. Refer to the API bit field definitions in
1136:.\Generated_Source\PSoC4/CyDMA.c **** *  CyDMA_P4.h or the API description in the DMA channel datasheet for more
1137:.\Generated_Source\PSoC4/CyDMA.c **** *  information.
1138:.\Generated_Source\PSoC4/CyDMA.c **** *
1139:.\Generated_Source\PSoC4/CyDMA.c **** *******************************************************************************/
1140:.\Generated_Source\PSoC4/CyDMA.c **** uint32 CyDmaGetSrcDstTransferWidth(int32 channel, int32 descriptor)
1141:.\Generated_Source\PSoC4/CyDMA.c **** {
 1813              		.loc 1 1141 0
 1814              		.cfi_startproc
 1815              	.LVL171:
 1816 0000 38B5     		push	{r3, r4, r5, lr}
 1817              		.cfi_def_cfa_offset 16
 1818              		.cfi_offset 3, -16
 1819              		.cfi_offset 4, -12
 1820              		.cfi_offset 5, -8
 1821              		.cfi_offset 14, -4
 1822 0002 051C     		mov	r5, r0
ARM GAS  C:\Users\Tim\AppData\Local\Temp\ccEK2rHG.s 			page 54


 1823 0004 0C1C     		mov	r4, r1
1142:.\Generated_Source\PSoC4/CyDMA.c ****     CYASSERT((channel    >= 0) && (channel    < CYDMA_CH_NR));
 1824              		.loc 1 1142 0
 1825 0006 1F28     		cmp	r0, #31
 1826 0008 02D9     		bls	.L164
 1827              		.loc 1 1142 0 is_stmt 0 discriminator 1
 1828 000a 0020     		mov	r0, #0
 1829              	.LVL172:
 1830 000c FFF7FEFF 		bl	CyHalt
 1831              	.LVL173:
 1832              	.L164:
1143:.\Generated_Source\PSoC4/CyDMA.c ****     CYASSERT((descriptor >= 0) && (descriptor < CYDMA_DESCR_NR));
 1833              		.loc 1 1143 0 is_stmt 1
 1834 0010 012C     		cmp	r4, #1
 1835 0012 02D9     		bls	.L165
 1836              		.loc 1 1143 0 is_stmt 0 discriminator 1
 1837 0014 0020     		mov	r0, #0
 1838 0016 FFF7FEFF 		bl	CyHalt
 1839              	.LVL174:
 1840              	.L165:
1144:.\Generated_Source\PSoC4/CyDMA.c ****     return (CYDMA_DESCR_BASE.descriptor[channel][descriptor].ctl & CYDMA_TRANSFER_WIDTH);
 1841              		.loc 1 1144 0 is_stmt 1
 1842 001a 6D00     		lsl	r5, r5, #1
 1843              	.LVL175:
 1844 001c 2C19     		add	r4, r5, r4
 1845              	.LVL176:
 1846 001e 2401     		lsl	r4, r4, #4
 1847 0020 034B     		ldr	r3, .L166
 1848 0022 9C46     		mov	ip, r3
 1849 0024 6444     		add	r4, r4, ip
 1850 0026 A068     		ldr	r0, [r4, #8]
 1851 0028 A023     		mov	r3, #160
 1852 002a DB03     		lsl	r3, r3, #15
 1853 002c 1840     		and	r0, r3
1145:.\Generated_Source\PSoC4/CyDMA.c **** }
 1854              		.loc 1 1145 0
 1855              		@ sp needed
 1856 002e 38BD     		pop	{r3, r4, r5, pc}
 1857              	.L167:
 1858              		.align	2
 1859              	.L166:
 1860 0030 00181040 		.word	1074796544
 1861              		.cfi_endproc
 1862              	.LFE39:
 1863              		.size	CyDmaGetSrcDstTransferWidth, .-CyDmaGetSrcDstTransferWidth
 1864              		.section	.text.CyDmaSetAddressIncrement,"ax",%progbits
 1865              		.align	2
 1866              		.global	CyDmaSetAddressIncrement
 1867              		.code	16
 1868              		.thumb_func
 1869              		.type	CyDmaSetAddressIncrement, %function
 1870              	CyDmaSetAddressIncrement:
 1871              	.LFB40:
1146:.\Generated_Source\PSoC4/CyDMA.c **** 
1147:.\Generated_Source\PSoC4/CyDMA.c **** 
1148:.\Generated_Source\PSoC4/CyDMA.c **** /*******************************************************************************
1149:.\Generated_Source\PSoC4/CyDMA.c **** * Function Name: CyDmaSetAddressIncrement
ARM GAS  C:\Users\Tim\AppData\Local\Temp\ccEK2rHG.s 			page 55


1150:.\Generated_Source\PSoC4/CyDMA.c **** ********************************************************************************
1151:.\Generated_Source\PSoC4/CyDMA.c **** *
1152:.\Generated_Source\PSoC4/CyDMA.c **** * Summary:
1153:.\Generated_Source\PSoC4/CyDMA.c **** *  Sets whether the source or destination addresses are incremented after the
1154:.\Generated_Source\PSoC4/CyDMA.c **** *  transfer of each data element. The amount that the source and destination
1155:.\Generated_Source\PSoC4/CyDMA.c **** *  address are incremented is determined by the CyDmaSetSrcDstTransferWidth()
1156:.\Generated_Source\PSoC4/CyDMA.c **** *  function. The addresses will either be incremented by the data element size
1157:.\Generated_Source\PSoC4/CyDMA.c **** *  or by a word (4 bytes).
1158:.\Generated_Source\PSoC4/CyDMA.c **** *
1159:.\Generated_Source\PSoC4/CyDMA.c **** * Parameters:
1160:.\Generated_Source\PSoC4/CyDMA.c **** *  channel:          Channel used by this function.
1161:.\Generated_Source\PSoC4/CyDMA.c **** *  descriptor:       Descriptor (0 or 1) modified by this function.
1162:.\Generated_Source\PSoC4/CyDMA.c **** *  addressIncrement: Address increment settings. Refer to the API bit fields 
1163:.\Generated_Source\PSoC4/CyDMA.c **** *                    definition in CyDMA_P4.h or the API description in the DMA
1164:.\Generated_Source\PSoC4/CyDMA.c **** *                    channel datasheet for the parameter options.
1165:.\Generated_Source\PSoC4/CyDMA.c **** *    
1166:.\Generated_Source\PSoC4/CyDMA.c **** * Return:
1167:.\Generated_Source\PSoC4/CyDMA.c **** *  None.
1168:.\Generated_Source\PSoC4/CyDMA.c **** *
1169:.\Generated_Source\PSoC4/CyDMA.c **** * Side effect:
1170:.\Generated_Source\PSoC4/CyDMA.c **** *  This function should not be called when the specified descriptor is active
1171:.\Generated_Source\PSoC4/CyDMA.c **** *  in the DMA transfer engine. This can be checked by calling CyDmaGetStatus(). 
1172:.\Generated_Source\PSoC4/CyDMA.c **** *
1173:.\Generated_Source\PSoC4/CyDMA.c **** *******************************************************************************/
1174:.\Generated_Source\PSoC4/CyDMA.c **** void CyDmaSetAddressIncrement(int32 channel, int32 descriptor, uint32 addressIncrement)
1175:.\Generated_Source\PSoC4/CyDMA.c **** {
 1872              		.loc 1 1175 0
 1873              		.cfi_startproc
 1874              	.LVL177:
 1875 0000 70B5     		push	{r4, r5, r6, lr}
 1876              		.cfi_def_cfa_offset 16
 1877              		.cfi_offset 4, -16
 1878              		.cfi_offset 5, -12
 1879              		.cfi_offset 6, -8
 1880              		.cfi_offset 14, -4
 1881 0002 061C     		mov	r6, r0
 1882 0004 0C1C     		mov	r4, r1
 1883 0006 151C     		mov	r5, r2
1176:.\Generated_Source\PSoC4/CyDMA.c ****     uint32 regValue;
1177:.\Generated_Source\PSoC4/CyDMA.c **** 
1178:.\Generated_Source\PSoC4/CyDMA.c ****     CYASSERT((channel    >= 0) && (channel    < CYDMA_CH_NR));
 1884              		.loc 1 1178 0
 1885 0008 1F28     		cmp	r0, #31
 1886 000a 02D9     		bls	.L169
 1887              		.loc 1 1178 0 is_stmt 0 discriminator 1
 1888 000c 0020     		mov	r0, #0
 1889              	.LVL178:
 1890 000e FFF7FEFF 		bl	CyHalt
 1891              	.LVL179:
 1892              	.L169:
1179:.\Generated_Source\PSoC4/CyDMA.c ****     CYASSERT((descriptor >= 0) && (descriptor < CYDMA_DESCR_NR));
 1893              		.loc 1 1179 0 is_stmt 1
 1894 0012 012C     		cmp	r4, #1
 1895 0014 02D9     		bls	.L170
 1896              		.loc 1 1179 0 is_stmt 0 discriminator 1
 1897 0016 0020     		mov	r0, #0
 1898 0018 FFF7FEFF 		bl	CyHalt
ARM GAS  C:\Users\Tim\AppData\Local\Temp\ccEK2rHG.s 			page 56


 1899              	.LVL180:
 1900              	.L170:
1180:.\Generated_Source\PSoC4/CyDMA.c ****     CYASSERT(0u == (addressIncrement & (uint32)~CYDMA_ADDR_INCR));
 1901              		.loc 1 1180 0 is_stmt 1
 1902 001c 084B     		ldr	r3, .L172
 1903 001e 1D42     		tst	r5, r3
 1904 0020 02D0     		beq	.L171
 1905              		.loc 1 1180 0 is_stmt 0 discriminator 1
 1906 0022 0020     		mov	r0, #0
 1907 0024 FFF7FEFF 		bl	CyHalt
 1908              	.LVL181:
 1909              	.L171:
1181:.\Generated_Source\PSoC4/CyDMA.c **** 
1182:.\Generated_Source\PSoC4/CyDMA.c ****     regValue = CYDMA_DESCR_BASE.descriptor[channel][descriptor].ctl & (uint32)~CYDMA_ADDR_INCR;
 1910              		.loc 1 1182 0 is_stmt 1
 1911 0028 7600     		lsl	r6, r6, #1
 1912              	.LVL182:
 1913 002a 3419     		add	r4, r6, r4
 1914              	.LVL183:
 1915 002c 2401     		lsl	r4, r4, #4
 1916 002e 054B     		ldr	r3, .L172+4
 1917 0030 9C46     		mov	ip, r3
 1918 0032 6444     		add	r4, r4, ip
 1919 0034 A268     		ldr	r2, [r4, #8]
 1920 0036 024B     		ldr	r3, .L172
 1921 0038 1340     		and	r3, r2
 1922              	.LVL184:
1183:.\Generated_Source\PSoC4/CyDMA.c ****     CYDMA_DESCR_BASE.descriptor[channel][descriptor].ctl = regValue | addressIncrement;
 1923              		.loc 1 1183 0
 1924 003a 1D43     		orr	r5, r3
 1925              	.LVL185:
 1926 003c A560     		str	r5, [r4, #8]
1184:.\Generated_Source\PSoC4/CyDMA.c **** }
 1927              		.loc 1 1184 0
 1928              		@ sp needed
 1929 003e 70BD     		pop	{r4, r5, r6, pc}
 1930              	.L173:
 1931              		.align	2
 1932              	.L172:
 1933 0040 FFFF5FFF 		.word	-10485761
 1934 0044 00181040 		.word	1074796544
 1935              		.cfi_endproc
 1936              	.LFE40:
 1937              		.size	CyDmaSetAddressIncrement, .-CyDmaSetAddressIncrement
 1938              		.section	.text.CyDmaGetAddressIncrement,"ax",%progbits
 1939              		.align	2
 1940              		.global	CyDmaGetAddressIncrement
 1941              		.code	16
 1942              		.thumb_func
 1943              		.type	CyDmaGetAddressIncrement, %function
 1944              	CyDmaGetAddressIncrement:
 1945              	.LFB41:
1185:.\Generated_Source\PSoC4/CyDMA.c **** 
1186:.\Generated_Source\PSoC4/CyDMA.c **** 
1187:.\Generated_Source\PSoC4/CyDMA.c **** /*******************************************************************************
1188:.\Generated_Source\PSoC4/CyDMA.c **** * Function Name: CyDmaGetAddressIncrement
1189:.\Generated_Source\PSoC4/CyDMA.c **** ********************************************************************************
ARM GAS  C:\Users\Tim\AppData\Local\Temp\ccEK2rHG.s 			page 57


1190:.\Generated_Source\PSoC4/CyDMA.c **** *
1191:.\Generated_Source\PSoC4/CyDMA.c **** * Summary:
1192:.\Generated_Source\PSoC4/CyDMA.c **** *  Returns address increment settings as set by CyDmaSetAddressIncrement() or
1193:.\Generated_Source\PSoC4/CyDMA.c **** *  CyDmaSetConfiguration().
1194:.\Generated_Source\PSoC4/CyDMA.c **** *
1195:.\Generated_Source\PSoC4/CyDMA.c **** * Parameters:
1196:.\Generated_Source\PSoC4/CyDMA.c **** *  channel:    Channel used by this function.
1197:.\Generated_Source\PSoC4/CyDMA.c **** *  descriptor: Descriptor (0 or 1) modified by this function.
1198:.\Generated_Source\PSoC4/CyDMA.c **** *                   
1199:.\Generated_Source\PSoC4/CyDMA.c **** * Return:
1200:.\Generated_Source\PSoC4/CyDMA.c **** *  Address increment settings. Refer to the API bit field definitions in
1201:.\Generated_Source\PSoC4/CyDMA.c **** *  CyDMA_P4.h or the API description in the DMA channel datasheet for more
1202:.\Generated_Source\PSoC4/CyDMA.c **** *  information.
1203:.\Generated_Source\PSoC4/CyDMA.c **** *
1204:.\Generated_Source\PSoC4/CyDMA.c **** *******************************************************************************/
1205:.\Generated_Source\PSoC4/CyDMA.c **** uint32 CyDmaGetAddressIncrement(int32 channel, int32 descriptor)
1206:.\Generated_Source\PSoC4/CyDMA.c **** {
 1946              		.loc 1 1206 0
 1947              		.cfi_startproc
 1948              	.LVL186:
 1949 0000 38B5     		push	{r3, r4, r5, lr}
 1950              		.cfi_def_cfa_offset 16
 1951              		.cfi_offset 3, -16
 1952              		.cfi_offset 4, -12
 1953              		.cfi_offset 5, -8
 1954              		.cfi_offset 14, -4
 1955 0002 051C     		mov	r5, r0
 1956 0004 0C1C     		mov	r4, r1
1207:.\Generated_Source\PSoC4/CyDMA.c ****     CYASSERT((channel    >= 0) && (channel    < CYDMA_CH_NR));
 1957              		.loc 1 1207 0
 1958 0006 1F28     		cmp	r0, #31
 1959 0008 02D9     		bls	.L175
 1960              		.loc 1 1207 0 is_stmt 0 discriminator 1
 1961 000a 0020     		mov	r0, #0
 1962              	.LVL187:
 1963 000c FFF7FEFF 		bl	CyHalt
 1964              	.LVL188:
 1965              	.L175:
1208:.\Generated_Source\PSoC4/CyDMA.c ****     CYASSERT((descriptor >= 0) && (descriptor < CYDMA_DESCR_NR));
 1966              		.loc 1 1208 0 is_stmt 1
 1967 0010 012C     		cmp	r4, #1
 1968 0012 02D9     		bls	.L176
 1969              		.loc 1 1208 0 is_stmt 0 discriminator 1
 1970 0014 0020     		mov	r0, #0
 1971 0016 FFF7FEFF 		bl	CyHalt
 1972              	.LVL189:
 1973              	.L176:
1209:.\Generated_Source\PSoC4/CyDMA.c **** 
1210:.\Generated_Source\PSoC4/CyDMA.c ****     return (CYDMA_DESCR_BASE.descriptor[channel][descriptor].ctl & CYDMA_ADDR_INCR);
 1974              		.loc 1 1210 0 is_stmt 1
 1975 001a 6D00     		lsl	r5, r5, #1
 1976              	.LVL190:
 1977 001c 2C19     		add	r4, r5, r4
 1978              	.LVL191:
 1979 001e 2401     		lsl	r4, r4, #4
 1980 0020 034B     		ldr	r3, .L177
 1981 0022 9C46     		mov	ip, r3
ARM GAS  C:\Users\Tim\AppData\Local\Temp\ccEK2rHG.s 			page 58


 1982 0024 6444     		add	r4, r4, ip
 1983 0026 A068     		ldr	r0, [r4, #8]
 1984 0028 A023     		mov	r3, #160
 1985 002a 1B04     		lsl	r3, r3, #16
 1986 002c 1840     		and	r0, r3
1211:.\Generated_Source\PSoC4/CyDMA.c **** }
 1987              		.loc 1 1211 0
 1988              		@ sp needed
 1989 002e 38BD     		pop	{r3, r4, r5, pc}
 1990              	.L178:
 1991              		.align	2
 1992              	.L177:
 1993 0030 00181040 		.word	1074796544
 1994              		.cfi_endproc
 1995              	.LFE41:
 1996              		.size	CyDmaGetAddressIncrement, .-CyDmaGetAddressIncrement
 1997              		.section	.text.CyDmaSetTriggerType,"ax",%progbits
 1998              		.align	2
 1999              		.global	CyDmaSetTriggerType
 2000              		.code	16
 2001              		.thumb_func
 2002              		.type	CyDmaSetTriggerType, %function
 2003              	CyDmaSetTriggerType:
 2004              	.LFB42:
1212:.\Generated_Source\PSoC4/CyDMA.c **** 
1213:.\Generated_Source\PSoC4/CyDMA.c **** 
1214:.\Generated_Source\PSoC4/CyDMA.c **** /*******************************************************************************
1215:.\Generated_Source\PSoC4/CyDMA.c **** * Function Name: CyDmaSetTriggerType
1216:.\Generated_Source\PSoC4/CyDMA.c **** ********************************************************************************
1217:.\Generated_Source\PSoC4/CyDMA.c **** *
1218:.\Generated_Source\PSoC4/CyDMA.c **** * Summary:
1219:.\Generated_Source\PSoC4/CyDMA.c **** *  Sets the type of input trigger for the DMA For level sensitive triggers sets
1220:.\Generated_Source\PSoC4/CyDMA.c **** *  how long the DMA waits for the trigger to go low (deactivate) before
1221:.\Generated_Source\PSoC4/CyDMA.c **** *  triggering the channel again.
1222:.\Generated_Source\PSoC4/CyDMA.c **** *
1223:.\Generated_Source\PSoC4/CyDMA.c **** * Parameters:
1224:.\Generated_Source\PSoC4/CyDMA.c **** *  channel:     Channel used by this function.
1225:.\Generated_Source\PSoC4/CyDMA.c **** *  descriptor:  Descriptor (0 or 1) modified by this function.
1226:.\Generated_Source\PSoC4/CyDMA.c **** *  triggerType: Type of DMA trigger. Refer to the API bit field definitions
1227:.\Generated_Source\PSoC4/CyDMA.c **** *               in CyDMA_P4.h or the API description in the DMA channel
1228:.\Generated_Source\PSoC4/CyDMA.c **** *               datasheet for the parameter options.
1229:.\Generated_Source\PSoC4/CyDMA.c **** *                   
1230:.\Generated_Source\PSoC4/CyDMA.c **** * Return:
1231:.\Generated_Source\PSoC4/CyDMA.c **** *  None.
1232:.\Generated_Source\PSoC4/CyDMA.c **** *
1233:.\Generated_Source\PSoC4/CyDMA.c **** * Side effect:
1234:.\Generated_Source\PSoC4/CyDMA.c **** *  This function should not be called when the specified descriptor is active
1235:.\Generated_Source\PSoC4/CyDMA.c **** *  in the DMA transfer engine. This can be checked by calling CyDmaGetStatus(). 
1236:.\Generated_Source\PSoC4/CyDMA.c **** *
1237:.\Generated_Source\PSoC4/CyDMA.c **** *******************************************************************************/
1238:.\Generated_Source\PSoC4/CyDMA.c **** void CyDmaSetTriggerType(int32 channel, int32 descriptor, uint32 triggerType)
1239:.\Generated_Source\PSoC4/CyDMA.c **** {
 2005              		.loc 1 1239 0
 2006              		.cfi_startproc
 2007              	.LVL192:
 2008 0000 70B5     		push	{r4, r5, r6, lr}
 2009              		.cfi_def_cfa_offset 16
ARM GAS  C:\Users\Tim\AppData\Local\Temp\ccEK2rHG.s 			page 59


 2010              		.cfi_offset 4, -16
 2011              		.cfi_offset 5, -12
 2012              		.cfi_offset 6, -8
 2013              		.cfi_offset 14, -4
 2014 0002 061C     		mov	r6, r0
 2015 0004 0C1C     		mov	r4, r1
 2016 0006 151C     		mov	r5, r2
1240:.\Generated_Source\PSoC4/CyDMA.c ****     uint32 regValue;
1241:.\Generated_Source\PSoC4/CyDMA.c **** 
1242:.\Generated_Source\PSoC4/CyDMA.c ****     CYASSERT((channel    >= 0) && (channel    < CYDMA_CH_NR));
 2017              		.loc 1 1242 0
 2018 0008 1F28     		cmp	r0, #31
 2019 000a 02D9     		bls	.L180
 2020              		.loc 1 1242 0 is_stmt 0 discriminator 1
 2021 000c 0020     		mov	r0, #0
 2022              	.LVL193:
 2023 000e FFF7FEFF 		bl	CyHalt
 2024              	.LVL194:
 2025              	.L180:
1243:.\Generated_Source\PSoC4/CyDMA.c ****     CYASSERT((descriptor >= 0) && (descriptor < CYDMA_DESCR_NR));
 2026              		.loc 1 1243 0 is_stmt 1
 2027 0012 012C     		cmp	r4, #1
 2028 0014 02D9     		bls	.L181
 2029              		.loc 1 1243 0 is_stmt 0 discriminator 1
 2030 0016 0020     		mov	r0, #0
 2031 0018 FFF7FEFF 		bl	CyHalt
 2032              	.LVL195:
 2033              	.L181:
1244:.\Generated_Source\PSoC4/CyDMA.c ****     CYASSERT(0u == (triggerType & (uint32)~CYDMA_TRIGGER_TYPE));
 2034              		.loc 1 1244 0 is_stmt 1
 2035 001c 084B     		ldr	r3, .L183
 2036 001e 1D42     		tst	r5, r3
 2037 0020 02D0     		beq	.L182
 2038              		.loc 1 1244 0 is_stmt 0 discriminator 1
 2039 0022 0020     		mov	r0, #0
 2040 0024 FFF7FEFF 		bl	CyHalt
 2041              	.LVL196:
 2042              	.L182:
1245:.\Generated_Source\PSoC4/CyDMA.c **** 
1246:.\Generated_Source\PSoC4/CyDMA.c ****     regValue = CYDMA_DESCR_BASE.descriptor[channel][descriptor].ctl & (uint32)~CYDMA_TRIGGER_TYPE;
 2043              		.loc 1 1246 0 is_stmt 1
 2044 0028 7600     		lsl	r6, r6, #1
 2045              	.LVL197:
 2046 002a 3419     		add	r4, r6, r4
 2047              	.LVL198:
 2048 002c 2401     		lsl	r4, r4, #4
 2049 002e 054B     		ldr	r3, .L183+4
 2050 0030 9C46     		mov	ip, r3
 2051 0032 6444     		add	r4, r4, ip
 2052 0034 A268     		ldr	r2, [r4, #8]
 2053 0036 024B     		ldr	r3, .L183
 2054 0038 1340     		and	r3, r2
 2055              	.LVL199:
1247:.\Generated_Source\PSoC4/CyDMA.c ****     CYDMA_DESCR_BASE.descriptor[channel][descriptor].ctl = regValue | triggerType;
 2056              		.loc 1 1247 0
 2057 003a 1D43     		orr	r5, r3
 2058              	.LVL200:
ARM GAS  C:\Users\Tim\AppData\Local\Temp\ccEK2rHG.s 			page 60


 2059 003c A560     		str	r5, [r4, #8]
1248:.\Generated_Source\PSoC4/CyDMA.c **** }
 2060              		.loc 1 1248 0
 2061              		@ sp needed
 2062 003e 70BD     		pop	{r4, r5, r6, pc}
 2063              	.L184:
 2064              		.align	2
 2065              	.L183:
 2066 0040 FFFFFFFC 		.word	-50331649
 2067 0044 00181040 		.word	1074796544
 2068              		.cfi_endproc
 2069              	.LFE42:
 2070              		.size	CyDmaSetTriggerType, .-CyDmaSetTriggerType
 2071              		.section	.text.CyDmaGetTriggerType,"ax",%progbits
 2072              		.align	2
 2073              		.global	CyDmaGetTriggerType
 2074              		.code	16
 2075              		.thumb_func
 2076              		.type	CyDmaGetTriggerType, %function
 2077              	CyDmaGetTriggerType:
 2078              	.LFB43:
1249:.\Generated_Source\PSoC4/CyDMA.c **** 
1250:.\Generated_Source\PSoC4/CyDMA.c **** 
1251:.\Generated_Source\PSoC4/CyDMA.c **** /*******************************************************************************
1252:.\Generated_Source\PSoC4/CyDMA.c **** * Function Name: CyDmaGetTriggerType
1253:.\Generated_Source\PSoC4/CyDMA.c **** ********************************************************************************
1254:.\Generated_Source\PSoC4/CyDMA.c **** *
1255:.\Generated_Source\PSoC4/CyDMA.c **** * Summary:
1256:.\Generated_Source\PSoC4/CyDMA.c **** *  Returns the trigger deactivation settings as set by CyDmaSetTriggerType() or
1257:.\Generated_Source\PSoC4/CyDMA.c **** *  CyDmaSetConfiguration().
1258:.\Generated_Source\PSoC4/CyDMA.c **** *
1259:.\Generated_Source\PSoC4/CyDMA.c **** * Parameters:
1260:.\Generated_Source\PSoC4/CyDMA.c **** *  channel:    Channel used by this function.
1261:.\Generated_Source\PSoC4/CyDMA.c **** *  descriptor: Descriptor (0 or 1) modified by this function.
1262:.\Generated_Source\PSoC4/CyDMA.c **** *                   
1263:.\Generated_Source\PSoC4/CyDMA.c **** * Return:
1264:.\Generated_Source\PSoC4/CyDMA.c **** *  Trigger deactivation settings. Refer to the API bit field definitions in
1265:.\Generated_Source\PSoC4/CyDMA.c **** *  CyDMA_P4.h or the API description in the DMA channel datasheet for more
1266:.\Generated_Source\PSoC4/CyDMA.c **** *  information.
1267:.\Generated_Source\PSoC4/CyDMA.c **** *
1268:.\Generated_Source\PSoC4/CyDMA.c **** *******************************************************************************/
1269:.\Generated_Source\PSoC4/CyDMA.c **** uint32 CyDmaGetTriggerType(int32 channel, int32 descriptor)
1270:.\Generated_Source\PSoC4/CyDMA.c **** {
 2079              		.loc 1 1270 0
 2080              		.cfi_startproc
 2081              	.LVL201:
 2082 0000 38B5     		push	{r3, r4, r5, lr}
 2083              		.cfi_def_cfa_offset 16
 2084              		.cfi_offset 3, -16
 2085              		.cfi_offset 4, -12
 2086              		.cfi_offset 5, -8
 2087              		.cfi_offset 14, -4
 2088 0002 051C     		mov	r5, r0
 2089 0004 0C1C     		mov	r4, r1
1271:.\Generated_Source\PSoC4/CyDMA.c ****     CYASSERT((channel    >= 0) && (channel    < CYDMA_CH_NR));
 2090              		.loc 1 1271 0
 2091 0006 1F28     		cmp	r0, #31
ARM GAS  C:\Users\Tim\AppData\Local\Temp\ccEK2rHG.s 			page 61


 2092 0008 02D9     		bls	.L186
 2093              		.loc 1 1271 0 is_stmt 0 discriminator 1
 2094 000a 0020     		mov	r0, #0
 2095              	.LVL202:
 2096 000c FFF7FEFF 		bl	CyHalt
 2097              	.LVL203:
 2098              	.L186:
1272:.\Generated_Source\PSoC4/CyDMA.c ****     CYASSERT((descriptor >= 0) && (descriptor < CYDMA_DESCR_NR));
 2099              		.loc 1 1272 0 is_stmt 1
 2100 0010 012C     		cmp	r4, #1
 2101 0012 02D9     		bls	.L187
 2102              		.loc 1 1272 0 is_stmt 0 discriminator 1
 2103 0014 0020     		mov	r0, #0
 2104 0016 FFF7FEFF 		bl	CyHalt
 2105              	.LVL204:
 2106              	.L187:
1273:.\Generated_Source\PSoC4/CyDMA.c **** 
1274:.\Generated_Source\PSoC4/CyDMA.c ****     return (CYDMA_DESCR_BASE.descriptor[channel][descriptor].ctl & CYDMA_TRIGGER_TYPE);
 2107              		.loc 1 1274 0 is_stmt 1
 2108 001a 6D00     		lsl	r5, r5, #1
 2109              	.LVL205:
 2110 001c 2C19     		add	r4, r5, r4
 2111              	.LVL206:
 2112 001e 2401     		lsl	r4, r4, #4
 2113 0020 034B     		ldr	r3, .L188
 2114 0022 9C46     		mov	ip, r3
 2115 0024 6444     		add	r4, r4, ip
 2116 0026 A068     		ldr	r0, [r4, #8]
 2117 0028 C023     		mov	r3, #192
 2118 002a 9B04     		lsl	r3, r3, #18
 2119 002c 1840     		and	r0, r3
1275:.\Generated_Source\PSoC4/CyDMA.c **** }
 2120              		.loc 1 1275 0
 2121              		@ sp needed
 2122 002e 38BD     		pop	{r3, r4, r5, pc}
 2123              	.L189:
 2124              		.align	2
 2125              	.L188:
 2126 0030 00181040 		.word	1074796544
 2127              		.cfi_endproc
 2128              	.LFE43:
 2129              		.size	CyDmaGetTriggerType, .-CyDmaGetTriggerType
 2130              		.section	.text.CyDmaSetTransferMode,"ax",%progbits
 2131              		.align	2
 2132              		.global	CyDmaSetTransferMode
 2133              		.code	16
 2134              		.thumb_func
 2135              		.type	CyDmaSetTransferMode, %function
 2136              	CyDmaSetTransferMode:
 2137              	.LFB44:
1276:.\Generated_Source\PSoC4/CyDMA.c **** 
1277:.\Generated_Source\PSoC4/CyDMA.c **** 
1278:.\Generated_Source\PSoC4/CyDMA.c **** /*******************************************************************************
1279:.\Generated_Source\PSoC4/CyDMA.c **** * Function Name: CyDmaSetTransferMode
1280:.\Generated_Source\PSoC4/CyDMA.c **** ********************************************************************************
1281:.\Generated_Source\PSoC4/CyDMA.c **** *
1282:.\Generated_Source\PSoC4/CyDMA.c **** * Summary:
ARM GAS  C:\Users\Tim\AppData\Local\Temp\ccEK2rHG.s 			page 62


1283:.\Generated_Source\PSoC4/CyDMA.c **** *  Sets the DMA transfer mode. This determines how the DMA reacts to each trigger
1284:.\Generated_Source\PSoC4/CyDMA.c **** *  event.
1285:.\Generated_Source\PSoC4/CyDMA.c **** *
1286:.\Generated_Source\PSoC4/CyDMA.c **** * Parameters:
1287:.\Generated_Source\PSoC4/CyDMA.c **** *  channel:      Channel used by this function.
1288:.\Generated_Source\PSoC4/CyDMA.c **** *  descriptor:   Descriptor (0 or 1) modified by this function.
1289:.\Generated_Source\PSoC4/CyDMA.c **** *  transferMode: Specifies the DMA transfer mode settings. Refer to the API bit
1290:.\Generated_Source\PSoC4/CyDMA.c **** *                field definitions in CyDMA_P4.h or the API description in the
1291:.\Generated_Source\PSoC4/CyDMA.c **** *                DMA channel datasheet for the parameter options.
1292:.\Generated_Source\PSoC4/CyDMA.c **** *                   
1293:.\Generated_Source\PSoC4/CyDMA.c **** * Return:
1294:.\Generated_Source\PSoC4/CyDMA.c **** *  None.
1295:.\Generated_Source\PSoC4/CyDMA.c **** *
1296:.\Generated_Source\PSoC4/CyDMA.c **** * Side effect:
1297:.\Generated_Source\PSoC4/CyDMA.c **** *  This function should not be called when the specified descriptor is active
1298:.\Generated_Source\PSoC4/CyDMA.c **** *  in the DMA transfer engine. This can be checked by calling CyDmaGetStatus(). 
1299:.\Generated_Source\PSoC4/CyDMA.c **** *
1300:.\Generated_Source\PSoC4/CyDMA.c **** *******************************************************************************/
1301:.\Generated_Source\PSoC4/CyDMA.c **** void CyDmaSetTransferMode(int32 channel, int32 descriptor, uint32 transferMode)
1302:.\Generated_Source\PSoC4/CyDMA.c **** {
 2138              		.loc 1 1302 0
 2139              		.cfi_startproc
 2140              	.LVL207:
 2141 0000 70B5     		push	{r4, r5, r6, lr}
 2142              		.cfi_def_cfa_offset 16
 2143              		.cfi_offset 4, -16
 2144              		.cfi_offset 5, -12
 2145              		.cfi_offset 6, -8
 2146              		.cfi_offset 14, -4
 2147 0002 061C     		mov	r6, r0
 2148 0004 0C1C     		mov	r4, r1
 2149 0006 151C     		mov	r5, r2
1303:.\Generated_Source\PSoC4/CyDMA.c ****     uint32 regValue;
1304:.\Generated_Source\PSoC4/CyDMA.c **** 
1305:.\Generated_Source\PSoC4/CyDMA.c ****     CYASSERT((channel    >= 0) && (channel    < CYDMA_CH_NR));
 2150              		.loc 1 1305 0
 2151 0008 1F28     		cmp	r0, #31
 2152 000a 02D9     		bls	.L191
 2153              		.loc 1 1305 0 is_stmt 0 discriminator 1
 2154 000c 0020     		mov	r0, #0
 2155              	.LVL208:
 2156 000e FFF7FEFF 		bl	CyHalt
 2157              	.LVL209:
 2158              	.L191:
1306:.\Generated_Source\PSoC4/CyDMA.c ****     CYASSERT((descriptor >= 0) && (descriptor < CYDMA_DESCR_NR));
 2159              		.loc 1 1306 0 is_stmt 1
 2160 0012 012C     		cmp	r4, #1
 2161 0014 02D9     		bls	.L192
 2162              		.loc 1 1306 0 is_stmt 0 discriminator 1
 2163 0016 0020     		mov	r0, #0
 2164 0018 FFF7FEFF 		bl	CyHalt
 2165              	.LVL210:
 2166              	.L192:
1307:.\Generated_Source\PSoC4/CyDMA.c ****     CYASSERT(0u == (transferMode & (uint32)~CYDMA_TRANSFER_MODE));
 2167              		.loc 1 1307 0 is_stmt 1
 2168 001c AB00     		lsl	r3, r5, #2
 2169 001e 02D0     		beq	.L193
ARM GAS  C:\Users\Tim\AppData\Local\Temp\ccEK2rHG.s 			page 63


 2170              		.loc 1 1307 0 is_stmt 0 discriminator 1
 2171 0020 0020     		mov	r0, #0
 2172 0022 FFF7FEFF 		bl	CyHalt
 2173              	.LVL211:
 2174              	.L193:
1308:.\Generated_Source\PSoC4/CyDMA.c **** 
1309:.\Generated_Source\PSoC4/CyDMA.c ****     regValue = CYDMA_DESCR_BASE.descriptor[channel][descriptor].ctl & (uint32)~CYDMA_TRANSFER_MODE;
 2175              		.loc 1 1309 0 is_stmt 1
 2176 0026 7600     		lsl	r6, r6, #1
 2177              	.LVL212:
 2178 0028 3419     		add	r4, r6, r4
 2179              	.LVL213:
 2180 002a 2401     		lsl	r4, r4, #4
 2181 002c 044B     		ldr	r3, .L194
 2182 002e 9C46     		mov	ip, r3
 2183 0030 6444     		add	r4, r4, ip
 2184 0032 A268     		ldr	r2, [r4, #8]
 2185 0034 9200     		lsl	r2, r2, #2
 2186 0036 9208     		lsr	r2, r2, #2
 2187              	.LVL214:
1310:.\Generated_Source\PSoC4/CyDMA.c ****     CYDMA_DESCR_BASE.descriptor[channel][descriptor].ctl = regValue | transferMode;
 2188              		.loc 1 1310 0
 2189 0038 2A43     		orr	r2, r5
 2190              	.LVL215:
 2191 003a A260     		str	r2, [r4, #8]
1311:.\Generated_Source\PSoC4/CyDMA.c **** }
 2192              		.loc 1 1311 0
 2193              		@ sp needed
 2194              	.LVL216:
 2195 003c 70BD     		pop	{r4, r5, r6, pc}
 2196              	.L195:
 2197 003e C046     		.align	2
 2198              	.L194:
 2199 0040 00181040 		.word	1074796544
 2200              		.cfi_endproc
 2201              	.LFE44:
 2202              		.size	CyDmaSetTransferMode, .-CyDmaSetTransferMode
 2203              		.section	.text.CyDmaGetTransferMode,"ax",%progbits
 2204              		.align	2
 2205              		.global	CyDmaGetTransferMode
 2206              		.code	16
 2207              		.thumb_func
 2208              		.type	CyDmaGetTransferMode, %function
 2209              	CyDmaGetTransferMode:
 2210              	.LFB45:
1312:.\Generated_Source\PSoC4/CyDMA.c **** 
1313:.\Generated_Source\PSoC4/CyDMA.c **** 
1314:.\Generated_Source\PSoC4/CyDMA.c **** /*******************************************************************************
1315:.\Generated_Source\PSoC4/CyDMA.c **** * Function Name: CyDmaGetTransferMode
1316:.\Generated_Source\PSoC4/CyDMA.c **** ********************************************************************************
1317:.\Generated_Source\PSoC4/CyDMA.c **** *
1318:.\Generated_Source\PSoC4/CyDMA.c **** * Summary:
1319:.\Generated_Source\PSoC4/CyDMA.c **** *  Returns the transfer mode for the specified descriptor as set by 
1320:.\Generated_Source\PSoC4/CyDMA.c **** *  CyDmaSetTransferMode() or CyDmaSetConfiguration.
1321:.\Generated_Source\PSoC4/CyDMA.c **** *
1322:.\Generated_Source\PSoC4/CyDMA.c **** * Parameters:
1323:.\Generated_Source\PSoC4/CyDMA.c **** *  channel:    Channel used by this function.
ARM GAS  C:\Users\Tim\AppData\Local\Temp\ccEK2rHG.s 			page 64


1324:.\Generated_Source\PSoC4/CyDMA.c **** *  descriptor: Descriptor (0 or 1) modified by this function.
1325:.\Generated_Source\PSoC4/CyDMA.c **** *                   
1326:.\Generated_Source\PSoC4/CyDMA.c **** * Return:
1327:.\Generated_Source\PSoC4/CyDMA.c **** *  DMA transfer mode settings. Refer to the API bit field definitions in
1328:.\Generated_Source\PSoC4/CyDMA.c **** *  CyDMA_P4.h or the API description in the DMA channel datasheet for more
1329:.\Generated_Source\PSoC4/CyDMA.c **** *  information.
1330:.\Generated_Source\PSoC4/CyDMA.c **** *
1331:.\Generated_Source\PSoC4/CyDMA.c **** *******************************************************************************/
1332:.\Generated_Source\PSoC4/CyDMA.c **** uint32 CyDmaGetTransferMode(int32 channel, int32 descriptor)
1333:.\Generated_Source\PSoC4/CyDMA.c **** {
 2211              		.loc 1 1333 0
 2212              		.cfi_startproc
 2213              	.LVL217:
 2214 0000 38B5     		push	{r3, r4, r5, lr}
 2215              		.cfi_def_cfa_offset 16
 2216              		.cfi_offset 3, -16
 2217              		.cfi_offset 4, -12
 2218              		.cfi_offset 5, -8
 2219              		.cfi_offset 14, -4
 2220 0002 051C     		mov	r5, r0
 2221 0004 0C1C     		mov	r4, r1
1334:.\Generated_Source\PSoC4/CyDMA.c ****     CYASSERT((channel    >= 0) && (channel    < CYDMA_CH_NR));
 2222              		.loc 1 1334 0
 2223 0006 1F28     		cmp	r0, #31
 2224 0008 02D9     		bls	.L197
 2225              		.loc 1 1334 0 is_stmt 0 discriminator 1
 2226 000a 0020     		mov	r0, #0
 2227              	.LVL218:
 2228 000c FFF7FEFF 		bl	CyHalt
 2229              	.LVL219:
 2230              	.L197:
1335:.\Generated_Source\PSoC4/CyDMA.c ****     CYASSERT((descriptor >= 0) && (descriptor < CYDMA_DESCR_NR));
 2231              		.loc 1 1335 0 is_stmt 1
 2232 0010 012C     		cmp	r4, #1
 2233 0012 02D9     		bls	.L198
 2234              		.loc 1 1335 0 is_stmt 0 discriminator 1
 2235 0014 0020     		mov	r0, #0
 2236 0016 FFF7FEFF 		bl	CyHalt
 2237              	.LVL220:
 2238              	.L198:
1336:.\Generated_Source\PSoC4/CyDMA.c **** 
1337:.\Generated_Source\PSoC4/CyDMA.c ****     return (CYDMA_DESCR_BASE.descriptor[channel][descriptor].ctl & CYDMA_TRANSFER_MODE);
 2239              		.loc 1 1337 0 is_stmt 1
 2240 001a 6D00     		lsl	r5, r5, #1
 2241              	.LVL221:
 2242 001c 2C19     		add	r4, r5, r4
 2243              	.LVL222:
 2244 001e 2401     		lsl	r4, r4, #4
 2245 0020 034B     		ldr	r3, .L199
 2246 0022 9C46     		mov	ip, r3
 2247 0024 6444     		add	r4, r4, ip
 2248 0026 A068     		ldr	r0, [r4, #8]
 2249 0028 800F     		lsr	r0, r0, #30
 2250 002a 8007     		lsl	r0, r0, #30
1338:.\Generated_Source\PSoC4/CyDMA.c **** }
 2251              		.loc 1 1338 0
 2252              		@ sp needed
ARM GAS  C:\Users\Tim\AppData\Local\Temp\ccEK2rHG.s 			page 65


 2253 002c 38BD     		pop	{r3, r4, r5, pc}
 2254              	.L200:
 2255 002e C046     		.align	2
 2256              	.L199:
 2257 0030 00181040 		.word	1074796544
 2258              		.cfi_endproc
 2259              	.LFE45:
 2260              		.size	CyDmaGetTransferMode, .-CyDmaGetTransferMode
 2261              		.section	.text.CyDmaSetPreemptable,"ax",%progbits
 2262              		.align	2
 2263              		.global	CyDmaSetPreemptable
 2264              		.code	16
 2265              		.thumb_func
 2266              		.type	CyDmaSetPreemptable, %function
 2267              	CyDmaSetPreemptable:
 2268              	.LFB46:
1339:.\Generated_Source\PSoC4/CyDMA.c **** 
1340:.\Generated_Source\PSoC4/CyDMA.c **** 
1341:.\Generated_Source\PSoC4/CyDMA.c **** /*******************************************************************************
1342:.\Generated_Source\PSoC4/CyDMA.c **** * Function Name: CyDmaSetPreemptable
1343:.\Generated_Source\PSoC4/CyDMA.c **** ********************************************************************************
1344:.\Generated_Source\PSoC4/CyDMA.c **** *
1345:.\Generated_Source\PSoC4/CyDMA.c **** * Summary:
1346:.\Generated_Source\PSoC4/CyDMA.c **** *  Determines if the descriptor is preemptable.
1347:.\Generated_Source\PSoC4/CyDMA.c **** *
1348:.\Generated_Source\PSoC4/CyDMA.c **** * Parameters:
1349:.\Generated_Source\PSoC4/CyDMA.c **** *  channel:     Channel used by this function.
1350:.\Generated_Source\PSoC4/CyDMA.c **** *  descriptor:  Descriptor (0 or 1) modified by this function.
1351:.\Generated_Source\PSoC4/CyDMA.c **** *  preemptable: Descriptor preemption settings. Refer to the API bit fields
1352:.\Generated_Source\PSoC4/CyDMA.c **** *               definition in CyDMA_P4.h or the API description in the DMA 
1353:.\Generated_Source\PSoC4/CyDMA.c **** *               channel datasheet for the parameter options.
1354:.\Generated_Source\PSoC4/CyDMA.c **** *                   
1355:.\Generated_Source\PSoC4/CyDMA.c **** * Return:
1356:.\Generated_Source\PSoC4/CyDMA.c **** *  None.
1357:.\Generated_Source\PSoC4/CyDMA.c **** *
1358:.\Generated_Source\PSoC4/CyDMA.c **** * Side effect:
1359:.\Generated_Source\PSoC4/CyDMA.c **** *  This function should not be called when the specified descriptor is active
1360:.\Generated_Source\PSoC4/CyDMA.c **** *  in the DMA transfer engine. This can be checked by calling CyDmaGetStatus(). 
1361:.\Generated_Source\PSoC4/CyDMA.c **** *
1362:.\Generated_Source\PSoC4/CyDMA.c **** *******************************************************************************/
1363:.\Generated_Source\PSoC4/CyDMA.c **** void CyDmaSetPreemptable(int32 channel, int32 descriptor, uint32 preemptable)
1364:.\Generated_Source\PSoC4/CyDMA.c **** {
 2269              		.loc 1 1364 0
 2270              		.cfi_startproc
 2271              	.LVL223:
 2272 0000 70B5     		push	{r4, r5, r6, lr}
 2273              		.cfi_def_cfa_offset 16
 2274              		.cfi_offset 4, -16
 2275              		.cfi_offset 5, -12
 2276              		.cfi_offset 6, -8
 2277              		.cfi_offset 14, -4
 2278 0002 061C     		mov	r6, r0
 2279 0004 0C1C     		mov	r4, r1
 2280 0006 151C     		mov	r5, r2
1365:.\Generated_Source\PSoC4/CyDMA.c ****     uint32 regValue;
1366:.\Generated_Source\PSoC4/CyDMA.c **** 
1367:.\Generated_Source\PSoC4/CyDMA.c ****     CYASSERT((channel    >= 0) && (channel    < CYDMA_CH_NR));
ARM GAS  C:\Users\Tim\AppData\Local\Temp\ccEK2rHG.s 			page 66


 2281              		.loc 1 1367 0
 2282 0008 1F28     		cmp	r0, #31
 2283 000a 02D9     		bls	.L202
 2284              		.loc 1 1367 0 is_stmt 0 discriminator 1
 2285 000c 0020     		mov	r0, #0
 2286              	.LVL224:
 2287 000e FFF7FEFF 		bl	CyHalt
 2288              	.LVL225:
 2289              	.L202:
1368:.\Generated_Source\PSoC4/CyDMA.c ****     CYASSERT((descriptor >= 0) && (descriptor < CYDMA_DESCR_NR));
 2290              		.loc 1 1368 0 is_stmt 1
 2291 0012 012C     		cmp	r4, #1
 2292 0014 02D9     		bls	.L203
 2293              		.loc 1 1368 0 is_stmt 0 discriminator 1
 2294 0016 0020     		mov	r0, #0
 2295 0018 FFF7FEFF 		bl	CyHalt
 2296              	.LVL226:
 2297              	.L203:
1369:.\Generated_Source\PSoC4/CyDMA.c ****     CYASSERT(0u == (preemptable & (uint32)~CYDMA_PREEMPTABLE));
 2298              		.loc 1 1369 0 is_stmt 1
 2299 001c 084B     		ldr	r3, .L205
 2300 001e 1D42     		tst	r5, r3
 2301 0020 02D0     		beq	.L204
 2302              		.loc 1 1369 0 is_stmt 0 discriminator 1
 2303 0022 0020     		mov	r0, #0
 2304 0024 FFF7FEFF 		bl	CyHalt
 2305              	.LVL227:
 2306              	.L204:
1370:.\Generated_Source\PSoC4/CyDMA.c **** 
1371:.\Generated_Source\PSoC4/CyDMA.c ****     regValue = CYDMA_DESCR_BASE.descriptor[channel][descriptor].ctl & (uint32)~CYDMA_PREEMPTABLE;
 2307              		.loc 1 1371 0 is_stmt 1
 2308 0028 7600     		lsl	r6, r6, #1
 2309              	.LVL228:
 2310 002a 3419     		add	r4, r6, r4
 2311              	.LVL229:
 2312 002c 2401     		lsl	r4, r4, #4
 2313 002e 054B     		ldr	r3, .L205+4
 2314 0030 9C46     		mov	ip, r3
 2315 0032 6444     		add	r4, r4, ip
 2316 0034 A268     		ldr	r2, [r4, #8]
 2317 0036 024B     		ldr	r3, .L205
 2318 0038 1340     		and	r3, r2
 2319              	.LVL230:
1372:.\Generated_Source\PSoC4/CyDMA.c ****     CYDMA_DESCR_BASE.descriptor[channel][descriptor].ctl = regValue | preemptable;
 2320              		.loc 1 1372 0
 2321 003a 1D43     		orr	r5, r3
 2322              	.LVL231:
 2323 003c A560     		str	r5, [r4, #8]
1373:.\Generated_Source\PSoC4/CyDMA.c **** }
 2324              		.loc 1 1373 0
 2325              		@ sp needed
 2326 003e 70BD     		pop	{r4, r5, r6, pc}
 2327              	.L206:
 2328              		.align	2
 2329              	.L205:
 2330 0040 FFFFFFEF 		.word	-268435457
 2331 0044 00181040 		.word	1074796544
ARM GAS  C:\Users\Tim\AppData\Local\Temp\ccEK2rHG.s 			page 67


 2332              		.cfi_endproc
 2333              	.LFE46:
 2334              		.size	CyDmaSetPreemptable, .-CyDmaSetPreemptable
 2335              		.section	.text.CyDmaGetPreemptable,"ax",%progbits
 2336              		.align	2
 2337              		.global	CyDmaGetPreemptable
 2338              		.code	16
 2339              		.thumb_func
 2340              		.type	CyDmaGetPreemptable, %function
 2341              	CyDmaGetPreemptable:
 2342              	.LFB47:
1374:.\Generated_Source\PSoC4/CyDMA.c **** 
1375:.\Generated_Source\PSoC4/CyDMA.c **** 
1376:.\Generated_Source\PSoC4/CyDMA.c **** /*******************************************************************************
1377:.\Generated_Source\PSoC4/CyDMA.c **** * Function Name: CyDmaGetPreemptable
1378:.\Generated_Source\PSoC4/CyDMA.c **** ********************************************************************************
1379:.\Generated_Source\PSoC4/CyDMA.c **** *
1380:.\Generated_Source\PSoC4/CyDMA.c **** * Summary:
1381:.\Generated_Source\PSoC4/CyDMA.c **** *  Returns whether or not the descriptor is preemptable.
1382:.\Generated_Source\PSoC4/CyDMA.c **** *
1383:.\Generated_Source\PSoC4/CyDMA.c **** * Parameters:
1384:.\Generated_Source\PSoC4/CyDMA.c **** *  channel:    Channel used by this function.
1385:.\Generated_Source\PSoC4/CyDMA.c **** *  descriptor: Descriptor (0 or 1) modified by this function.
1386:.\Generated_Source\PSoC4/CyDMA.c **** *                   
1387:.\Generated_Source\PSoC4/CyDMA.c **** * Return:
1388:.\Generated_Source\PSoC4/CyDMA.c **** *  Descriptor preemption setting. Refer to the API bit field definitions in
1389:.\Generated_Source\PSoC4/CyDMA.c **** *  CyDMA_P4.h or the API description in the DMA channel datasheet for more
1390:.\Generated_Source\PSoC4/CyDMA.c **** *  information.
1391:.\Generated_Source\PSoC4/CyDMA.c **** *
1392:.\Generated_Source\PSoC4/CyDMA.c **** *******************************************************************************/
1393:.\Generated_Source\PSoC4/CyDMA.c **** uint32 CyDmaGetPreemptable(int32 channel, int32 descriptor)
1394:.\Generated_Source\PSoC4/CyDMA.c **** {
 2343              		.loc 1 1394 0
 2344              		.cfi_startproc
 2345              	.LVL232:
 2346 0000 38B5     		push	{r3, r4, r5, lr}
 2347              		.cfi_def_cfa_offset 16
 2348              		.cfi_offset 3, -16
 2349              		.cfi_offset 4, -12
 2350              		.cfi_offset 5, -8
 2351              		.cfi_offset 14, -4
 2352 0002 051C     		mov	r5, r0
 2353 0004 0C1C     		mov	r4, r1
1395:.\Generated_Source\PSoC4/CyDMA.c ****     CYASSERT((channel    >= 0) && (channel    < CYDMA_CH_NR));
 2354              		.loc 1 1395 0
 2355 0006 1F28     		cmp	r0, #31
 2356 0008 02D9     		bls	.L208
 2357              		.loc 1 1395 0 is_stmt 0 discriminator 1
 2358 000a 0020     		mov	r0, #0
 2359              	.LVL233:
 2360 000c FFF7FEFF 		bl	CyHalt
 2361              	.LVL234:
 2362              	.L208:
1396:.\Generated_Source\PSoC4/CyDMA.c ****     CYASSERT((descriptor >= 0) && (descriptor < CYDMA_DESCR_NR));
 2363              		.loc 1 1396 0 is_stmt 1
 2364 0010 012C     		cmp	r4, #1
 2365 0012 02D9     		bls	.L209
ARM GAS  C:\Users\Tim\AppData\Local\Temp\ccEK2rHG.s 			page 68


 2366              		.loc 1 1396 0 is_stmt 0 discriminator 1
 2367 0014 0020     		mov	r0, #0
 2368 0016 FFF7FEFF 		bl	CyHalt
 2369              	.LVL235:
 2370              	.L209:
1397:.\Generated_Source\PSoC4/CyDMA.c **** 
1398:.\Generated_Source\PSoC4/CyDMA.c ****     return (CYDMA_DESCR_BASE.descriptor[channel][descriptor].ctl & CYDMA_PREEMPTABLE);
 2371              		.loc 1 1398 0 is_stmt 1
 2372 001a 6D00     		lsl	r5, r5, #1
 2373              	.LVL236:
 2374 001c 2C19     		add	r4, r5, r4
 2375              	.LVL237:
 2376 001e 2401     		lsl	r4, r4, #4
 2377 0020 034B     		ldr	r3, .L210
 2378 0022 9C46     		mov	ip, r3
 2379 0024 6444     		add	r4, r4, ip
 2380 0026 A068     		ldr	r0, [r4, #8]
 2381 0028 8023     		mov	r3, #128
 2382 002a 5B05     		lsl	r3, r3, #21
 2383 002c 1840     		and	r0, r3
1399:.\Generated_Source\PSoC4/CyDMA.c **** }
 2384              		.loc 1 1399 0
 2385              		@ sp needed
 2386 002e 38BD     		pop	{r3, r4, r5, pc}
 2387              	.L211:
 2388              		.align	2
 2389              	.L210:
 2390 0030 00181040 		.word	1074796544
 2391              		.cfi_endproc
 2392              	.LFE47:
 2393              		.size	CyDmaGetPreemptable, .-CyDmaGetPreemptable
 2394              		.section	.text.CyDmaSetPostCompletionActions,"ax",%progbits
 2395              		.align	2
 2396              		.global	CyDmaSetPostCompletionActions
 2397              		.code	16
 2398              		.thumb_func
 2399              		.type	CyDmaSetPostCompletionActions, %function
 2400              	CyDmaSetPostCompletionActions:
 2401              	.LFB48:
1400:.\Generated_Source\PSoC4/CyDMA.c **** 
1401:.\Generated_Source\PSoC4/CyDMA.c **** 
1402:.\Generated_Source\PSoC4/CyDMA.c **** /*******************************************************************************
1403:.\Generated_Source\PSoC4/CyDMA.c **** * Function Name: CyDmaSetPostCompletionActions
1404:.\Generated_Source\PSoC4/CyDMA.c **** ********************************************************************************
1405:.\Generated_Source\PSoC4/CyDMA.c **** *
1406:.\Generated_Source\PSoC4/CyDMA.c **** * Summary:
1407:.\Generated_Source\PSoC4/CyDMA.c **** *  Determines what occurs after a descriptor completes.
1408:.\Generated_Source\PSoC4/CyDMA.c **** *
1409:.\Generated_Source\PSoC4/CyDMA.c **** * Parameters:
1410:.\Generated_Source\PSoC4/CyDMA.c **** *  channel:    Channel used by this function.
1411:.\Generated_Source\PSoC4/CyDMA.c **** *  descriptor: Descriptor (0 or 1) modified by this function.
1412:.\Generated_Source\PSoC4/CyDMA.c **** *  actions:    Specifies descriptor post completion actions. Refer to the API
1413:.\Generated_Source\PSoC4/CyDMA.c **** *              bit field definitions in CyDMA_P4.h or the API description
1414:.\Generated_Source\PSoC4/CyDMA.c **** *              in the DMA channel datasheet for the parameter options.
1415:.\Generated_Source\PSoC4/CyDMA.c **** *                   
1416:.\Generated_Source\PSoC4/CyDMA.c **** * Return:
1417:.\Generated_Source\PSoC4/CyDMA.c **** *  None.  
ARM GAS  C:\Users\Tim\AppData\Local\Temp\ccEK2rHG.s 			page 69


1418:.\Generated_Source\PSoC4/CyDMA.c **** *
1419:.\Generated_Source\PSoC4/CyDMA.c **** * Side effect:
1420:.\Generated_Source\PSoC4/CyDMA.c **** *  This function should not be called when the specified descriptor is active
1421:.\Generated_Source\PSoC4/CyDMA.c **** *  in the DMA transfer engine. This can be checked by calling CyDmaGetStatus(). 
1422:.\Generated_Source\PSoC4/CyDMA.c **** *
1423:.\Generated_Source\PSoC4/CyDMA.c **** *******************************************************************************/
1424:.\Generated_Source\PSoC4/CyDMA.c **** void CyDmaSetPostCompletionActions(int32 channel, int32 descriptor, uint32 actions)
1425:.\Generated_Source\PSoC4/CyDMA.c **** {
 2402              		.loc 1 1425 0
 2403              		.cfi_startproc
 2404              	.LVL238:
 2405 0000 70B5     		push	{r4, r5, r6, lr}
 2406              		.cfi_def_cfa_offset 16
 2407              		.cfi_offset 4, -16
 2408              		.cfi_offset 5, -12
 2409              		.cfi_offset 6, -8
 2410              		.cfi_offset 14, -4
 2411 0002 061C     		mov	r6, r0
 2412 0004 0C1C     		mov	r4, r1
 2413 0006 151C     		mov	r5, r2
1426:.\Generated_Source\PSoC4/CyDMA.c ****     uint32 regValue;
1427:.\Generated_Source\PSoC4/CyDMA.c **** 
1428:.\Generated_Source\PSoC4/CyDMA.c ****     CYASSERT((channel    >= 0) && (channel    < CYDMA_CH_NR));
 2414              		.loc 1 1428 0
 2415 0008 1F28     		cmp	r0, #31
 2416 000a 02D9     		bls	.L213
 2417              		.loc 1 1428 0 is_stmt 0 discriminator 1
 2418 000c 0020     		mov	r0, #0
 2419              	.LVL239:
 2420 000e FFF7FEFF 		bl	CyHalt
 2421              	.LVL240:
 2422              	.L213:
1429:.\Generated_Source\PSoC4/CyDMA.c ****     CYASSERT((descriptor >= 0) && (descriptor < CYDMA_DESCR_NR));
 2423              		.loc 1 1429 0 is_stmt 1
 2424 0012 012C     		cmp	r4, #1
 2425 0014 02D9     		bls	.L214
 2426              		.loc 1 1429 0 is_stmt 0 discriminator 1
 2427 0016 0020     		mov	r0, #0
 2428 0018 FFF7FEFF 		bl	CyHalt
 2429              	.LVL241:
 2430              	.L214:
1430:.\Generated_Source\PSoC4/CyDMA.c ****     CYASSERT(0u == (actions & (uint32)~CYDMA_POST_COMPLETE_ACTIONS));
 2431              		.loc 1 1430 0 is_stmt 1
 2432 001c 084B     		ldr	r3, .L216
 2433 001e 1D42     		tst	r5, r3
 2434 0020 02D0     		beq	.L215
 2435              		.loc 1 1430 0 is_stmt 0 discriminator 1
 2436 0022 0020     		mov	r0, #0
 2437 0024 FFF7FEFF 		bl	CyHalt
 2438              	.LVL242:
 2439              	.L215:
1431:.\Generated_Source\PSoC4/CyDMA.c **** 
1432:.\Generated_Source\PSoC4/CyDMA.c ****     regValue = CYDMA_DESCR_BASE.descriptor[channel][descriptor].ctl & (uint32)~CYDMA_POST_COMPLETE_
 2440              		.loc 1 1432 0 is_stmt 1
 2441 0028 7600     		lsl	r6, r6, #1
 2442              	.LVL243:
 2443 002a 3419     		add	r4, r6, r4
ARM GAS  C:\Users\Tim\AppData\Local\Temp\ccEK2rHG.s 			page 70


 2444              	.LVL244:
 2445 002c 2401     		lsl	r4, r4, #4
 2446 002e 054B     		ldr	r3, .L216+4
 2447 0030 9C46     		mov	ip, r3
 2448 0032 6444     		add	r4, r4, ip
 2449 0034 A268     		ldr	r2, [r4, #8]
 2450 0036 024B     		ldr	r3, .L216
 2451 0038 1340     		and	r3, r2
 2452              	.LVL245:
1433:.\Generated_Source\PSoC4/CyDMA.c ****     CYDMA_DESCR_BASE.descriptor[channel][descriptor].ctl = regValue | actions;
 2453              		.loc 1 1433 0
 2454 003a 1D43     		orr	r5, r3
 2455              	.LVL246:
 2456 003c A560     		str	r5, [r4, #8]
1434:.\Generated_Source\PSoC4/CyDMA.c **** }
 2457              		.loc 1 1434 0
 2458              		@ sp needed
 2459 003e 70BD     		pop	{r4, r5, r6, pc}
 2460              	.L217:
 2461              		.align	2
 2462              	.L216:
 2463 0040 FFFFFFD3 		.word	-738197505
 2464 0044 00181040 		.word	1074796544
 2465              		.cfi_endproc
 2466              	.LFE48:
 2467              		.size	CyDmaSetPostCompletionActions, .-CyDmaSetPostCompletionActions
 2468              		.section	.text.CyDmaGetPostCompletionActions,"ax",%progbits
 2469              		.align	2
 2470              		.global	CyDmaGetPostCompletionActions
 2471              		.code	16
 2472              		.thumb_func
 2473              		.type	CyDmaGetPostCompletionActions, %function
 2474              	CyDmaGetPostCompletionActions:
 2475              	.LFB49:
1435:.\Generated_Source\PSoC4/CyDMA.c **** 
1436:.\Generated_Source\PSoC4/CyDMA.c **** 
1437:.\Generated_Source\PSoC4/CyDMA.c **** /*******************************************************************************
1438:.\Generated_Source\PSoC4/CyDMA.c **** * Function Name: CyDmaGetPostCompletionActions
1439:.\Generated_Source\PSoC4/CyDMA.c **** ********************************************************************************
1440:.\Generated_Source\PSoC4/CyDMA.c **** *
1441:.\Generated_Source\PSoC4/CyDMA.c **** * Summary:
1442:.\Generated_Source\PSoC4/CyDMA.c **** *  Returns the post descriptor action settings as set by 
1443:.\Generated_Source\PSoC4/CyDMA.c **** *  CyDmaSetPostCompletionActions() or CyDmaSetConfiguration().
1444:.\Generated_Source\PSoC4/CyDMA.c **** *
1445:.\Generated_Source\PSoC4/CyDMA.c **** * Parameters:
1446:.\Generated_Source\PSoC4/CyDMA.c **** *  channel:    Channel used by this function.
1447:.\Generated_Source\PSoC4/CyDMA.c **** *  descriptor: Descriptor (0 or 1) modified by this function.
1448:.\Generated_Source\PSoC4/CyDMA.c **** *                   
1449:.\Generated_Source\PSoC4/CyDMA.c **** * Return:
1450:.\Generated_Source\PSoC4/CyDMA.c **** *  Post descriptor actions. Refer to the API bit field definitions in
1451:.\Generated_Source\PSoC4/CyDMA.c **** *  CyDMA_P4.h or the API description in the DMA channel datasheet for more
1452:.\Generated_Source\PSoC4/CyDMA.c **** *  information.
1453:.\Generated_Source\PSoC4/CyDMA.c **** *
1454:.\Generated_Source\PSoC4/CyDMA.c **** *******************************************************************************/
1455:.\Generated_Source\PSoC4/CyDMA.c **** uint32 CyDmaGetPostCompletionActions(int32 channel, int32 descriptor)
1456:.\Generated_Source\PSoC4/CyDMA.c **** {
 2476              		.loc 1 1456 0
ARM GAS  C:\Users\Tim\AppData\Local\Temp\ccEK2rHG.s 			page 71


 2477              		.cfi_startproc
 2478              	.LVL247:
 2479 0000 38B5     		push	{r3, r4, r5, lr}
 2480              		.cfi_def_cfa_offset 16
 2481              		.cfi_offset 3, -16
 2482              		.cfi_offset 4, -12
 2483              		.cfi_offset 5, -8
 2484              		.cfi_offset 14, -4
 2485 0002 051C     		mov	r5, r0
 2486 0004 0C1C     		mov	r4, r1
1457:.\Generated_Source\PSoC4/CyDMA.c ****     CYASSERT((channel    >= 0) && (channel    < CYDMA_CH_NR));
 2487              		.loc 1 1457 0
 2488 0006 1F28     		cmp	r0, #31
 2489 0008 02D9     		bls	.L219
 2490              		.loc 1 1457 0 is_stmt 0 discriminator 1
 2491 000a 0020     		mov	r0, #0
 2492              	.LVL248:
 2493 000c FFF7FEFF 		bl	CyHalt
 2494              	.LVL249:
 2495              	.L219:
1458:.\Generated_Source\PSoC4/CyDMA.c ****     CYASSERT((descriptor >= 0) && (descriptor < CYDMA_DESCR_NR));
 2496              		.loc 1 1458 0 is_stmt 1
 2497 0010 012C     		cmp	r4, #1
 2498 0012 02D9     		bls	.L220
 2499              		.loc 1 1458 0 is_stmt 0 discriminator 1
 2500 0014 0020     		mov	r0, #0
 2501 0016 FFF7FEFF 		bl	CyHalt
 2502              	.LVL250:
 2503              	.L220:
1459:.\Generated_Source\PSoC4/CyDMA.c **** 
1460:.\Generated_Source\PSoC4/CyDMA.c ****     return (CYDMA_DESCR_BASE.descriptor[channel][descriptor].ctl & CYDMA_POST_COMPLETE_ACTIONS);
 2504              		.loc 1 1460 0 is_stmt 1
 2505 001a 6D00     		lsl	r5, r5, #1
 2506              	.LVL251:
 2507 001c 2C19     		add	r4, r5, r4
 2508              	.LVL252:
 2509 001e 2401     		lsl	r4, r4, #4
 2510 0020 034B     		ldr	r3, .L221
 2511 0022 9C46     		mov	ip, r3
 2512 0024 6444     		add	r4, r4, ip
 2513 0026 A068     		ldr	r0, [r4, #8]
 2514 0028 B023     		mov	r3, #176
 2515 002a 9B05     		lsl	r3, r3, #22
 2516 002c 1840     		and	r0, r3
1461:.\Generated_Source\PSoC4/CyDMA.c **** }
 2517              		.loc 1 1461 0
 2518              		@ sp needed
 2519 002e 38BD     		pop	{r3, r4, r5, pc}
 2520              	.L222:
 2521              		.align	2
 2522              	.L221:
 2523 0030 00181040 		.word	1074796544
 2524              		.cfi_endproc
 2525              	.LFE49:
 2526              		.size	CyDmaGetPostCompletionActions, .-CyDmaGetPostCompletionActions
 2527              		.section	.rodata
 2528              		.align	2
ARM GAS  C:\Users\Tim\AppData\Local\Temp\ccEK2rHG.s 			page 72


 2529              		.set	.LANCHOR2,. + 0
 2530              		.type	trCtlLut.5002, %object
 2531              		.size	trCtlLut.5002, 16
 2532              	trCtlLut.5002:
 2533 0000 000002C0 		.word	-1073610752
 2534 0004 000102C0 		.word	-1073610496
 2535 0008 000202C0 		.word	-1073610240
 2536 000c 080202C0 		.word	-1073610232
 2537              		.data
 2538              		.align	2
 2539              		.set	.LANCHOR0,. + 0
 2540              		.type	CyDmaInterruptCallback, %object
 2541              		.size	CyDmaInterruptCallback, 128
 2542              	CyDmaInterruptCallback:
 2543 0000 00000000 		.word	CyDmaDefaultInterruptCallback
 2544 0004 00000000 		.word	CyDmaDefaultInterruptCallback
 2545 0008 00000000 		.word	CyDmaDefaultInterruptCallback
 2546 000c 00000000 		.word	CyDmaDefaultInterruptCallback
 2547 0010 00000000 		.word	CyDmaDefaultInterruptCallback
 2548 0014 00000000 		.word	CyDmaDefaultInterruptCallback
 2549 0018 00000000 		.word	CyDmaDefaultInterruptCallback
 2550 001c 00000000 		.word	CyDmaDefaultInterruptCallback
 2551 0020 00000000 		.word	CyDmaDefaultInterruptCallback
 2552 0024 00000000 		.word	CyDmaDefaultInterruptCallback
 2553 0028 00000000 		.word	CyDmaDefaultInterruptCallback
 2554 002c 00000000 		.word	CyDmaDefaultInterruptCallback
 2555 0030 00000000 		.word	CyDmaDefaultInterruptCallback
 2556 0034 00000000 		.word	CyDmaDefaultInterruptCallback
 2557 0038 00000000 		.word	CyDmaDefaultInterruptCallback
 2558 003c 00000000 		.word	CyDmaDefaultInterruptCallback
 2559 0040 00000000 		.word	CyDmaDefaultInterruptCallback
 2560 0044 00000000 		.word	CyDmaDefaultInterruptCallback
 2561 0048 00000000 		.word	CyDmaDefaultInterruptCallback
 2562 004c 00000000 		.word	CyDmaDefaultInterruptCallback
 2563 0050 00000000 		.word	CyDmaDefaultInterruptCallback
 2564 0054 00000000 		.word	CyDmaDefaultInterruptCallback
 2565 0058 00000000 		.word	CyDmaDefaultInterruptCallback
 2566 005c 00000000 		.word	CyDmaDefaultInterruptCallback
 2567 0060 00000000 		.word	CyDmaDefaultInterruptCallback
 2568 0064 00000000 		.word	CyDmaDefaultInterruptCallback
 2569 0068 00000000 		.word	CyDmaDefaultInterruptCallback
 2570 006c 00000000 		.word	CyDmaDefaultInterruptCallback
 2571 0070 00000000 		.word	CyDmaDefaultInterruptCallback
 2572 0074 00000000 		.word	CyDmaDefaultInterruptCallback
 2573 0078 00000000 		.word	CyDmaDefaultInterruptCallback
 2574 007c 00000000 		.word	CyDmaDefaultInterruptCallback
 2575              		.bss
 2576              		.align	2
 2577              		.set	.LANCHOR1,. + 0
 2578              		.type	initIntrVector.4927, %object
 2579              		.size	initIntrVector.4927, 1
 2580              	initIntrVector.4927:
 2581 0000 00       		.space	1
 2582 0001 000000   		.space	3
 2583              		.type	CyDmaChannelUsedMask, %object
 2584              		.size	CyDmaChannelUsedMask, 4
 2585              	CyDmaChannelUsedMask:
ARM GAS  C:\Users\Tim\AppData\Local\Temp\ccEK2rHG.s 			page 73


 2586 0004 00000000 		.space	4
 2587              		.text
 2588              	.Letext0:
 2589              		.file 2 ".\\Generated_Source\\PSoC4\\cytypes.h"
 2590              		.file 3 ".\\Generated_Source\\PSoC4\\CyDMA.h"
 2591              		.file 4 ".\\Generated_Source\\PSoC4\\CyLib.h"