ARM GAS  C:\Users\Tim\AppData\Local\Temp\ccEK2rHG.s 			page 1


   1              		.cpu cortex-m0
   2              		.fpu softvfp
   3              		.eabi_attribute 20, 1
   4              		.eabi_attribute 21, 1
   5              		.eabi_attribute 23, 3
   6              		.eabi_attribute 24, 1
   7              		.eabi_attribute 25, 1
   8              		.eabi_attribute 26, 1
   9              		.eabi_attribute 30, 1
  10              		.eabi_attribute 34, 0
  11              		.eabi_attribute 18, 4
  12              		.code	16
  13              		.file	"CyDMA.c"
  14              		.text
  15              	.Ltext0:
  16              		.cfi_sections	.debug_frame
  17              		.section	.text.CyDmaInterrupt,"ax",%progbits
  18              		.align	2
  19              		.global	CyDmaInterrupt
  20              		.code	16
  21              		.thumb_func
  22              		.type	CyDmaInterrupt, %function
  23              	CyDmaInterrupt:
  24              	.LFB16:
  25              		.file 1 ".\\Generated_Source\\PSoC4\\CyDMA.c"
   1:.\Generated_Source\PSoC4/CyDMA.c **** /*******************************************************************************
   2:.\Generated_Source\PSoC4/CyDMA.c **** * File Name: CyDMA.c
   3:.\Generated_Source\PSoC4/CyDMA.c **** * Version 1.10
   4:.\Generated_Source\PSoC4/CyDMA.c **** *
   5:.\Generated_Source\PSoC4/CyDMA.c **** * Description:
   6:.\Generated_Source\PSoC4/CyDMA.c **** *  This file contains all of the global DMA API functions.
   7:.\Generated_Source\PSoC4/CyDMA.c **** *
   8:.\Generated_Source\PSoC4/CyDMA.c **** ********************************************************************************
   9:.\Generated_Source\PSoC4/CyDMA.c **** * Copyright 2015, Cypress Semiconductor Corporation. All rights reserved.
  10:.\Generated_Source\PSoC4/CyDMA.c **** * You may use this file only in accordance with the license, terms, conditions,
  11:.\Generated_Source\PSoC4/CyDMA.c **** * disclaimers, and limitations in the end user license agreement accompanying
  12:.\Generated_Source\PSoC4/CyDMA.c **** * the software package with which this file was provided.
  13:.\Generated_Source\PSoC4/CyDMA.c **** *******************************************************************************/
  14:.\Generated_Source\PSoC4/CyDMA.c **** 
  15:.\Generated_Source\PSoC4/CyDMA.c **** #include "CyDMA.h"
  16:.\Generated_Source\PSoC4/CyDMA.c **** #include "CyLib.h"
  17:.\Generated_Source\PSoC4/CyDMA.c **** 
  18:.\Generated_Source\PSoC4/CyDMA.c **** /* Default callback function. It is invoked if the user callback function is
  19:.\Generated_Source\PSoC4/CyDMA.c **** * undefined.
  20:.\Generated_Source\PSoC4/CyDMA.c **** */
  21:.\Generated_Source\PSoC4/CyDMA.c **** static void CyDmaDefaultInterruptCallback(void);
  22:.\Generated_Source\PSoC4/CyDMA.c **** 
  23:.\Generated_Source\PSoC4/CyDMA.c **** /* Array of pointers to user defined callback functions to be called
  24:.\Generated_Source\PSoC4/CyDMA.c **** * from DMA interrupt.
  25:.\Generated_Source\PSoC4/CyDMA.c **** */
  26:.\Generated_Source\PSoC4/CyDMA.c **** static cydma_callback_t CyDmaInterruptCallback[CYDMA_CH_NR] = {
  27:.\Generated_Source\PSoC4/CyDMA.c ****     &CyDmaDefaultInterruptCallback, &CyDmaDefaultInterruptCallback,
  28:.\Generated_Source\PSoC4/CyDMA.c ****     &CyDmaDefaultInterruptCallback, &CyDmaDefaultInterruptCallback,
  29:.\Generated_Source\PSoC4/CyDMA.c ****     &CyDmaDefaultInterruptCallback, &CyDmaDefaultInterruptCallback,
  30:.\Generated_Source\PSoC4/CyDMA.c ****     &CyDmaDefaultInterruptCallback, &CyDmaDefaultInterruptCallback,
  31:.\Generated_Source\PSoC4/CyDMA.c ****     &CyDmaDefaultInterruptCallback, &CyDmaDefaultInterruptCallback,
  32:.\Generated_Source\PSoC4/CyDMA.c ****     &CyDmaDefaultInterruptCallback, &CyDmaDefaultInterruptCallback,
ARM GAS  C:\Users\Tim\AppData\Local\Temp\ccEK2rHG.s 			page 2


  33:.\Generated_Source\PSoC4/CyDMA.c ****     &CyDmaDefaultInterruptCallback, &CyDmaDefaultInterruptCallback,
  34:.\Generated_Source\PSoC4/CyDMA.c ****     &CyDmaDefaultInterruptCallback, &CyDmaDefaultInterruptCallback,
  35:.\Generated_Source\PSoC4/CyDMA.c ****     &CyDmaDefaultInterruptCallback, &CyDmaDefaultInterruptCallback,
  36:.\Generated_Source\PSoC4/CyDMA.c ****     &CyDmaDefaultInterruptCallback, &CyDmaDefaultInterruptCallback,
  37:.\Generated_Source\PSoC4/CyDMA.c ****     &CyDmaDefaultInterruptCallback, &CyDmaDefaultInterruptCallback,
  38:.\Generated_Source\PSoC4/CyDMA.c ****     &CyDmaDefaultInterruptCallback, &CyDmaDefaultInterruptCallback,
  39:.\Generated_Source\PSoC4/CyDMA.c ****     &CyDmaDefaultInterruptCallback, &CyDmaDefaultInterruptCallback,
  40:.\Generated_Source\PSoC4/CyDMA.c ****     &CyDmaDefaultInterruptCallback, &CyDmaDefaultInterruptCallback,
  41:.\Generated_Source\PSoC4/CyDMA.c ****     &CyDmaDefaultInterruptCallback, &CyDmaDefaultInterruptCallback,
  42:.\Generated_Source\PSoC4/CyDMA.c ****     &CyDmaDefaultInterruptCallback, &CyDmaDefaultInterruptCallback
  43:.\Generated_Source\PSoC4/CyDMA.c **** };
  44:.\Generated_Source\PSoC4/CyDMA.c **** 
  45:.\Generated_Source\PSoC4/CyDMA.c **** /* The live status of all DMA channels usage. Bit i is associated to channel i,
  46:.\Generated_Source\PSoC4/CyDMA.c **** * with i = 0..CYDMA_CH_NR-1. '0' - channel is free. '1' - channel is in use.
  47:.\Generated_Source\PSoC4/CyDMA.c **** * All the channels allocated for DMA instances placed on a schematic are in use
  48:.\Generated_Source\PSoC4/CyDMA.c **** * by default and cannot be freed. 
  49:.\Generated_Source\PSoC4/CyDMA.c **** * DMA_CHANNELS_USED__MASK is generated during the build time and is a bit field
  50:.\Generated_Source\PSoC4/CyDMA.c **** * corresponding to the DMA channels placed on a design schematic.
  51:.\Generated_Source\PSoC4/CyDMA.c **** */
  52:.\Generated_Source\PSoC4/CyDMA.c **** static uint32 CyDmaChannelUsedMask = DMA_CHANNELS_USED__MASK;
  53:.\Generated_Source\PSoC4/CyDMA.c **** 
  54:.\Generated_Source\PSoC4/CyDMA.c **** 
  55:.\Generated_Source\PSoC4/CyDMA.c **** /*******************************************************************************
  56:.\Generated_Source\PSoC4/CyDMA.c **** * Function Name: CyDmaEnable
  57:.\Generated_Source\PSoC4/CyDMA.c **** ********************************************************************************
  58:.\Generated_Source\PSoC4/CyDMA.c **** *
  59:.\Generated_Source\PSoC4/CyDMA.c **** * Summary:
  60:.\Generated_Source\PSoC4/CyDMA.c **** *  Sets the default ISR to be called by the DMA interrupt and enables the DMA
  61:.\Generated_Source\PSoC4/CyDMA.c **** *  transfer engine.
  62:.\Generated_Source\PSoC4/CyDMA.c **** *
  63:.\Generated_Source\PSoC4/CyDMA.c **** * Parameters:
  64:.\Generated_Source\PSoC4/CyDMA.c **** *  None.
  65:.\Generated_Source\PSoC4/CyDMA.c **** *                   
  66:.\Generated_Source\PSoC4/CyDMA.c **** * Return:
  67:.\Generated_Source\PSoC4/CyDMA.c **** *  None.
  68:.\Generated_Source\PSoC4/CyDMA.c **** *
  69:.\Generated_Source\PSoC4/CyDMA.c **** * Side effect:
  70:.\Generated_Source\PSoC4/CyDMA.c **** *  Does not affect the channel enable status. Overrides the interrupt vector
  71:.\Generated_Source\PSoC4/CyDMA.c **** *  set prior the first time CyDmaEnable() is called.
  72:.\Generated_Source\PSoC4/CyDMA.c **** *
  73:.\Generated_Source\PSoC4/CyDMA.c **** *******************************************************************************/
  74:.\Generated_Source\PSoC4/CyDMA.c **** void CyDmaEnable(void)
  75:.\Generated_Source\PSoC4/CyDMA.c **** {
  76:.\Generated_Source\PSoC4/CyDMA.c ****     static uint8 initIntrVector = 0u;
  77:.\Generated_Source\PSoC4/CyDMA.c **** 
  78:.\Generated_Source\PSoC4/CyDMA.c ****     if(0u == initIntrVector)
  79:.\Generated_Source\PSoC4/CyDMA.c ****     {
  80:.\Generated_Source\PSoC4/CyDMA.c ****         CyDmaSetInterruptVector(&CyDmaInterrupt);
  81:.\Generated_Source\PSoC4/CyDMA.c ****         CyIntSetPriority(CYDMA_INTR_NUMBER, CYDMA_INTR_PRIO);
  82:.\Generated_Source\PSoC4/CyDMA.c ****         initIntrVector = 1u;
  83:.\Generated_Source\PSoC4/CyDMA.c ****     }
  84:.\Generated_Source\PSoC4/CyDMA.c ****     CYDMA_CTL_REG = CYDMA_ENABLED;
  85:.\Generated_Source\PSoC4/CyDMA.c **** }
  86:.\Generated_Source\PSoC4/CyDMA.c **** 
  87:.\Generated_Source\PSoC4/CyDMA.c **** 
  88:.\Generated_Source\PSoC4/CyDMA.c **** /*******************************************************************************
  89:.\Generated_Source\PSoC4/CyDMA.c **** * Function Name: CyDmaDisable
ARM GAS  C:\Users\Tim\AppData\Local\Temp\ccEK2rHG.s 			page 3


  90:.\Generated_Source\PSoC4/CyDMA.c **** ********************************************************************************
  91:.\Generated_Source\PSoC4/CyDMA.c **** *
  92:.\Generated_Source\PSoC4/CyDMA.c **** * Summary:
  93:.\Generated_Source\PSoC4/CyDMA.c **** *  Disables the DMA transfer engine.
  94:.\Generated_Source\PSoC4/CyDMA.c **** *
  95:.\Generated_Source\PSoC4/CyDMA.c **** * Parameters:
  96:.\Generated_Source\PSoC4/CyDMA.c **** *  None.
  97:.\Generated_Source\PSoC4/CyDMA.c **** *                   
  98:.\Generated_Source\PSoC4/CyDMA.c **** * Return:
  99:.\Generated_Source\PSoC4/CyDMA.c **** *  None.
 100:.\Generated_Source\PSoC4/CyDMA.c **** *
 101:.\Generated_Source\PSoC4/CyDMA.c **** * Side effect:
 102:.\Generated_Source\PSoC4/CyDMA.c **** *  Does not affect the channel enable status.
 103:.\Generated_Source\PSoC4/CyDMA.c **** *
 104:.\Generated_Source\PSoC4/CyDMA.c **** *******************************************************************************/
 105:.\Generated_Source\PSoC4/CyDMA.c **** void CyDmaDisable(void)
 106:.\Generated_Source\PSoC4/CyDMA.c **** {
 107:.\Generated_Source\PSoC4/CyDMA.c ****     CYDMA_CTL_REG = (uint32)~CYDMA_ENABLED;
 108:.\Generated_Source\PSoC4/CyDMA.c **** }
 109:.\Generated_Source\PSoC4/CyDMA.c **** 
 110:.\Generated_Source\PSoC4/CyDMA.c **** 
 111:.\Generated_Source\PSoC4/CyDMA.c **** /*******************************************************************************
 112:.\Generated_Source\PSoC4/CyDMA.c **** * Function Name: CyDmaGetStatus
 113:.\Generated_Source\PSoC4/CyDMA.c **** ********************************************************************************
 114:.\Generated_Source\PSoC4/CyDMA.c **** *
 115:.\Generated_Source\PSoC4/CyDMA.c **** * Summary:
 116:.\Generated_Source\PSoC4/CyDMA.c **** *  Returns the status of the DMA transfer engine.
 117:.\Generated_Source\PSoC4/CyDMA.c **** *
 118:.\Generated_Source\PSoC4/CyDMA.c **** * Parameters:
 119:.\Generated_Source\PSoC4/CyDMA.c **** *  None.
 120:.\Generated_Source\PSoC4/CyDMA.c **** *                   
 121:.\Generated_Source\PSoC4/CyDMA.c **** * Return:
 122:.\Generated_Source\PSoC4/CyDMA.c **** *  The contents of the DMA status register. Refer to the status register bit
 123:.\Generated_Source\PSoC4/CyDMA.c **** *  definitions in CyDMA_P4.h or the API description in the DMA channel
 124:.\Generated_Source\PSoC4/CyDMA.c **** *  datasheet.
 125:.\Generated_Source\PSoC4/CyDMA.c **** *
 126:.\Generated_Source\PSoC4/CyDMA.c **** * Side effect:
 127:.\Generated_Source\PSoC4/CyDMA.c **** *  The series of function calls CyDmaGetActiveSrcAddress(),
 128:.\Generated_Source\PSoC4/CyDMA.c **** *  CyDmaGetActiveDstAddress(), CyDmaGetStatus() are not atomic, the DMA
 129:.\Generated_Source\PSoC4/CyDMA.c **** *  engine may have advanced after one or more of these function calls. Meaning
 130:.\Generated_Source\PSoC4/CyDMA.c **** *  the returns from these three functions may not be related to each other.
 131:.\Generated_Source\PSoC4/CyDMA.c **** *
 132:.\Generated_Source\PSoC4/CyDMA.c **** *******************************************************************************/
 133:.\Generated_Source\PSoC4/CyDMA.c **** uint32 CyDmaGetStatus(void)
 134:.\Generated_Source\PSoC4/CyDMA.c **** {
 135:.\Generated_Source\PSoC4/CyDMA.c ****     return (CYDMA_STATUS_REG);
 136:.\Generated_Source\PSoC4/CyDMA.c **** }
 137:.\Generated_Source\PSoC4/CyDMA.c **** 
 138:.\Generated_Source\PSoC4/CyDMA.c **** 
 139:.\Generated_Source\PSoC4/CyDMA.c **** /*******************************************************************************
 140:.\Generated_Source\PSoC4/CyDMA.c **** * Function Name: CyDmaGetActiveChannels
 141:.\Generated_Source\PSoC4/CyDMA.c **** ********************************************************************************
 142:.\Generated_Source\PSoC4/CyDMA.c **** *
 143:.\Generated_Source\PSoC4/CyDMA.c **** * Summary:
 144:.\Generated_Source\PSoC4/CyDMA.c **** *  Returns a bit field of all the DMA channels that are either active or
 145:.\Generated_Source\PSoC4/CyDMA.c **** *  pending.
 146:.\Generated_Source\PSoC4/CyDMA.c **** *
ARM GAS  C:\Users\Tim\AppData\Local\Temp\ccEK2rHG.s 			page 4


 147:.\Generated_Source\PSoC4/CyDMA.c **** * Parameters:
 148:.\Generated_Source\PSoC4/CyDMA.c **** *  None.
 149:.\Generated_Source\PSoC4/CyDMA.c **** *                   
 150:.\Generated_Source\PSoC4/CyDMA.c **** * Return:
 151:.\Generated_Source\PSoC4/CyDMA.c **** *  Bit field of active and pending channels. 
 152:.\Generated_Source\PSoC4/CyDMA.c **** *
 153:.\Generated_Source\PSoC4/CyDMA.c **** *******************************************************************************/
 154:.\Generated_Source\PSoC4/CyDMA.c **** uint32 CyDmaGetActiveChannels(void)
 155:.\Generated_Source\PSoC4/CyDMA.c **** {
 156:.\Generated_Source\PSoC4/CyDMA.c ****     return (CYDMA_STATUS_CH_ACT_REG);
 157:.\Generated_Source\PSoC4/CyDMA.c **** }
 158:.\Generated_Source\PSoC4/CyDMA.c **** 
 159:.\Generated_Source\PSoC4/CyDMA.c **** 
 160:.\Generated_Source\PSoC4/CyDMA.c **** /*******************************************************************************
 161:.\Generated_Source\PSoC4/CyDMA.c **** * Function Name: CyDmaGetActiveSrcAddress
 162:.\Generated_Source\PSoC4/CyDMA.c **** ********************************************************************************
 163:.\Generated_Source\PSoC4/CyDMA.c **** *
 164:.\Generated_Source\PSoC4/CyDMA.c **** * Summary:
 165:.\Generated_Source\PSoC4/CyDMA.c **** *  Returns the source address currently being used by the DMA transfer engine.
 166:.\Generated_Source\PSoC4/CyDMA.c **** *  This function can be used to debug the DMA, or observe where it is at in a
 167:.\Generated_Source\PSoC4/CyDMA.c **** *  transfer. It will not be used in normal DMA operation.
 168:.\Generated_Source\PSoC4/CyDMA.c **** *
 169:.\Generated_Source\PSoC4/CyDMA.c **** * Parameters:
 170:.\Generated_Source\PSoC4/CyDMA.c **** *  None.
 171:.\Generated_Source\PSoC4/CyDMA.c **** *                   
 172:.\Generated_Source\PSoC4/CyDMA.c **** * Return:
 173:.\Generated_Source\PSoC4/CyDMA.c **** *  Source address currently being used by the DMA transfer engine.
 174:.\Generated_Source\PSoC4/CyDMA.c **** *
 175:.\Generated_Source\PSoC4/CyDMA.c **** * Side effect:
 176:.\Generated_Source\PSoC4/CyDMA.c **** *  The series of function calls CyDmaGetActiveSrcAddress(),
 177:.\Generated_Source\PSoC4/CyDMA.c **** *  CyDmaGetActiveDstAddress(), CyDmaGetStatus() are not atomic, the DMA
 178:.\Generated_Source\PSoC4/CyDMA.c **** *  engine may have advanced after one or more of these function calls. Meaning
 179:.\Generated_Source\PSoC4/CyDMA.c **** *  the returns from these three functions may not be related to each other.
 180:.\Generated_Source\PSoC4/CyDMA.c **** *
 181:.\Generated_Source\PSoC4/CyDMA.c **** *******************************************************************************/
 182:.\Generated_Source\PSoC4/CyDMA.c **** void * CyDmaGetActiveSrcAddress(void)
 183:.\Generated_Source\PSoC4/CyDMA.c **** {
 184:.\Generated_Source\PSoC4/CyDMA.c ****     return ((void *)CYDMA_STATUS_SRC_ADDR_REG);
 185:.\Generated_Source\PSoC4/CyDMA.c **** }
 186:.\Generated_Source\PSoC4/CyDMA.c **** 
 187:.\Generated_Source\PSoC4/CyDMA.c **** 
 188:.\Generated_Source\PSoC4/CyDMA.c **** /*******************************************************************************
 189:.\Generated_Source\PSoC4/CyDMA.c **** * Function Name: CyDmaGetActiveDstAddress
 190:.\Generated_Source\PSoC4/CyDMA.c **** ********************************************************************************
 191:.\Generated_Source\PSoC4/CyDMA.c **** *
 192:.\Generated_Source\PSoC4/CyDMA.c **** * Summary:
 193:.\Generated_Source\PSoC4/CyDMA.c **** *  Returns the destination address currently being used by the DMA transfer
 194:.\Generated_Source\PSoC4/CyDMA.c **** *  engine. This function can be used to debug the DMA, or observe where it is at
 195:.\Generated_Source\PSoC4/CyDMA.c **** *  in a transfer. It will not be used in normal DMA operation.
 196:.\Generated_Source\PSoC4/CyDMA.c **** *
 197:.\Generated_Source\PSoC4/CyDMA.c **** * Parameters:
 198:.\Generated_Source\PSoC4/CyDMA.c **** *  None.
 199:.\Generated_Source\PSoC4/CyDMA.c **** *                   
 200:.\Generated_Source\PSoC4/CyDMA.c **** * Return:
 201:.\Generated_Source\PSoC4/CyDMA.c **** *  Destination address currently being used by the DMA transfer engine.
 202:.\Generated_Source\PSoC4/CyDMA.c **** *
 203:.\Generated_Source\PSoC4/CyDMA.c **** * Side effect:
ARM GAS  C:\Users\Tim\AppData\Local\Temp\ccEK2rHG.s 			page 5


 204:.\Generated_Source\PSoC4/CyDMA.c **** *  The series of function calls CyDmaGetActiveSrcAddress(),
 205:.\Generated_Source\PSoC4/CyDMA.c **** *  CyDmaGetActiveDstAddress(), CyDmaGetStatus() are not atomic, the DMA
 206:.\Generated_Source\PSoC4/CyDMA.c **** *  engine may have advanced after one or more of these function calls. Meaning
 207:.\Generated_Source\PSoC4/CyDMA.c **** *  the returns from these three functions may not be related to each other.
 208:.\Generated_Source\PSoC4/CyDMA.c **** *
 209:.\Generated_Source\PSoC4/CyDMA.c **** *******************************************************************************/
 210:.\Generated_Source\PSoC4/CyDMA.c **** void * CyDmaGetActiveDstAddress(void)
 211:.\Generated_Source\PSoC4/CyDMA.c **** {
 212:.\Generated_Source\PSoC4/CyDMA.c ****     return ((void *)CYDMA_STATUS_DST_ADDR_REG);
 213:.\Generated_Source\PSoC4/CyDMA.c **** }
 214:.\Generated_Source\PSoC4/CyDMA.c **** 
 215:.\Generated_Source\PSoC4/CyDMA.c **** 
 216:.\Generated_Source\PSoC4/CyDMA.c **** /*******************************************************************************
 217:.\Generated_Source\PSoC4/CyDMA.c **** * Function Name: CyDmaSetInterruptVector
 218:.\Generated_Source\PSoC4/CyDMA.c **** ********************************************************************************
 219:.\Generated_Source\PSoC4/CyDMA.c **** *
 220:.\Generated_Source\PSoC4/CyDMA.c **** * Summary:
 221:.\Generated_Source\PSoC4/CyDMA.c **** *  Sets the function that will be called by the DMA interrupt. Note, calling
 222:.\Generated_Source\PSoC4/CyDMA.c **** *  CyDmaEnable() for the first time overrides any effect this API could have.
 223:.\Generated_Source\PSoC4/CyDMA.c **** *  Call CyDmaSetInterruptVector() after calling CyDmaEnable() to change
 224:.\Generated_Source\PSoC4/CyDMA.c **** *  the default ISR.
 225:.\Generated_Source\PSoC4/CyDMA.c **** *
 226:.\Generated_Source\PSoC4/CyDMA.c **** * Parameters:
 227:.\Generated_Source\PSoC4/CyDMA.c **** *  interruptVector: Address of the function that will be called by the DMA
 228:.\Generated_Source\PSoC4/CyDMA.c **** *                   interrupt.
 229:.\Generated_Source\PSoC4/CyDMA.c **** * Return:
 230:.\Generated_Source\PSoC4/CyDMA.c **** *  None.
 231:.\Generated_Source\PSoC4/CyDMA.c **** *
 232:.\Generated_Source\PSoC4/CyDMA.c **** * Side effect:
 233:.\Generated_Source\PSoC4/CyDMA.c **** *  Other components that use DMA may register their callback functions to be
 234:.\Generated_Source\PSoC4/CyDMA.c **** *  called from the default DMA ISR. Therefore, changing the DMA ISR to a user
 235:.\Generated_Source\PSoC4/CyDMA.c **** *  defined ISR using this API may prevent these other components from
 236:.\Generated_Source\PSoC4/CyDMA.c **** *  functioning correctly.
 237:.\Generated_Source\PSoC4/CyDMA.c **** *
 238:.\Generated_Source\PSoC4/CyDMA.c **** *******************************************************************************/
 239:.\Generated_Source\PSoC4/CyDMA.c **** void CyDmaSetInterruptVector(cyisraddress interruptVector)
 240:.\Generated_Source\PSoC4/CyDMA.c **** {
 241:.\Generated_Source\PSoC4/CyDMA.c ****     (void)CyIntSetVector(CYDMA_INTR_NUMBER, interruptVector);
 242:.\Generated_Source\PSoC4/CyDMA.c **** }
 243:.\Generated_Source\PSoC4/CyDMA.c **** 
 244:.\Generated_Source\PSoC4/CyDMA.c **** 
 245:.\Generated_Source\PSoC4/CyDMA.c **** /*******************************************************************************
 246:.\Generated_Source\PSoC4/CyDMA.c **** * Function Name: CyDmaGetInterruptSource
 247:.\Generated_Source\PSoC4/CyDMA.c **** ********************************************************************************
 248:.\Generated_Source\PSoC4/CyDMA.c **** *
 249:.\Generated_Source\PSoC4/CyDMA.c **** * Summary:
 250:.\Generated_Source\PSoC4/CyDMA.c **** *  Returns the bit field of which channels generated an interrupt request.
 251:.\Generated_Source\PSoC4/CyDMA.c **** *
 252:.\Generated_Source\PSoC4/CyDMA.c **** * Parameters:
 253:.\Generated_Source\PSoC4/CyDMA.c **** *  None.
 254:.\Generated_Source\PSoC4/CyDMA.c **** *                   
 255:.\Generated_Source\PSoC4/CyDMA.c **** * Return:
 256:.\Generated_Source\PSoC4/CyDMA.c **** *  Bit filed of which channels generated an interrupt request.
 257:.\Generated_Source\PSoC4/CyDMA.c **** *
 258:.\Generated_Source\PSoC4/CyDMA.c **** *******************************************************************************/
 259:.\Generated_Source\PSoC4/CyDMA.c **** uint32 CyDmaGetInterruptSource(void)
 260:.\Generated_Source\PSoC4/CyDMA.c **** {
ARM GAS  C:\Users\Tim\AppData\Local\Temp\ccEK2rHG.s 			page 6


 261:.\Generated_Source\PSoC4/CyDMA.c ****     return (CYDMA_INTR_REG);
 262:.\Generated_Source\PSoC4/CyDMA.c **** }
 263:.\Generated_Source\PSoC4/CyDMA.c **** 
 264:.\Generated_Source\PSoC4/CyDMA.c **** 
 265:.\Generated_Source\PSoC4/CyDMA.c **** /*******************************************************************************
 266:.\Generated_Source\PSoC4/CyDMA.c **** * Function Name: CyDmaClearInterruptSource
 267:.\Generated_Source\PSoC4/CyDMA.c **** ********************************************************************************
 268:.\Generated_Source\PSoC4/CyDMA.c **** *
 269:.\Generated_Source\PSoC4/CyDMA.c **** * Summary:
 270:.\Generated_Source\PSoC4/CyDMA.c **** *  Clears the pending interrupts.
 271:.\Generated_Source\PSoC4/CyDMA.c **** *
 272:.\Generated_Source\PSoC4/CyDMA.c **** * Parameters:
 273:.\Generated_Source\PSoC4/CyDMA.c **** *  interruptMask: Bit field of interrupts to clear.
 274:.\Generated_Source\PSoC4/CyDMA.c **** *                   
 275:.\Generated_Source\PSoC4/CyDMA.c **** * Return:
 276:.\Generated_Source\PSoC4/CyDMA.c **** *  None.
 277:.\Generated_Source\PSoC4/CyDMA.c **** *
 278:.\Generated_Source\PSoC4/CyDMA.c **** *******************************************************************************/
 279:.\Generated_Source\PSoC4/CyDMA.c **** void CyDmaClearInterruptSource(uint32 interruptMask)
 280:.\Generated_Source\PSoC4/CyDMA.c **** {
 281:.\Generated_Source\PSoC4/CyDMA.c ****     CYDMA_INTR_REG = interruptMask;
 282:.\Generated_Source\PSoC4/CyDMA.c **** }
 283:.\Generated_Source\PSoC4/CyDMA.c **** 
 284:.\Generated_Source\PSoC4/CyDMA.c **** 
 285:.\Generated_Source\PSoC4/CyDMA.c **** /*******************************************************************************
 286:.\Generated_Source\PSoC4/CyDMA.c **** * Function Name: CyDmaSetInterruptSourceMask
 287:.\Generated_Source\PSoC4/CyDMA.c **** ********************************************************************************
 288:.\Generated_Source\PSoC4/CyDMA.c **** *
 289:.\Generated_Source\PSoC4/CyDMA.c **** * Summary:
 290:.\Generated_Source\PSoC4/CyDMA.c **** *  Sets mask for interrupt source.
 291:.\Generated_Source\PSoC4/CyDMA.c **** *
 292:.\Generated_Source\PSoC4/CyDMA.c **** * Parameters:
 293:.\Generated_Source\PSoC4/CyDMA.c **** *  interruptmask: Mask corresponding to interrupt bit field.
 294:.\Generated_Source\PSoC4/CyDMA.c **** *                   
 295:.\Generated_Source\PSoC4/CyDMA.c **** * Return:
 296:.\Generated_Source\PSoC4/CyDMA.c **** *  None.
 297:.\Generated_Source\PSoC4/CyDMA.c **** *
 298:.\Generated_Source\PSoC4/CyDMA.c **** *******************************************************************************/
 299:.\Generated_Source\PSoC4/CyDMA.c **** void CyDmaSetInterruptSourceMask(uint32 interruptMask)
 300:.\Generated_Source\PSoC4/CyDMA.c **** {
 301:.\Generated_Source\PSoC4/CyDMA.c ****     CYDMA_INTR_MASK_REG = interruptMask;
 302:.\Generated_Source\PSoC4/CyDMA.c **** }
 303:.\Generated_Source\PSoC4/CyDMA.c **** 
 304:.\Generated_Source\PSoC4/CyDMA.c **** 
 305:.\Generated_Source\PSoC4/CyDMA.c **** /*******************************************************************************
 306:.\Generated_Source\PSoC4/CyDMA.c **** * Function Name: CyDmaGetInterruptSourceMask
 307:.\Generated_Source\PSoC4/CyDMA.c **** ********************************************************************************
 308:.\Generated_Source\PSoC4/CyDMA.c **** *
 309:.\Generated_Source\PSoC4/CyDMA.c **** * Summary:
 310:.\Generated_Source\PSoC4/CyDMA.c **** *  Returns mask for interrupt source.
 311:.\Generated_Source\PSoC4/CyDMA.c **** *
 312:.\Generated_Source\PSoC4/CyDMA.c **** * Parameters:
 313:.\Generated_Source\PSoC4/CyDMA.c **** *  None.
 314:.\Generated_Source\PSoC4/CyDMA.c **** *                   
 315:.\Generated_Source\PSoC4/CyDMA.c **** * Return:
 316:.\Generated_Source\PSoC4/CyDMA.c **** *  Mask corresponding to interrupt bit field.
 317:.\Generated_Source\PSoC4/CyDMA.c **** *
ARM GAS  C:\Users\Tim\AppData\Local\Temp\ccEK2rHG.s 			page 7


 318:.\Generated_Source\PSoC4/CyDMA.c **** *******************************************************************************/
 319:.\Generated_Source\PSoC4/CyDMA.c **** uint32 CyDmaGetInterruptSourceMask(void)
 320:.\Generated_Source\PSoC4/CyDMA.c **** {
 321:.\Generated_Source\PSoC4/CyDMA.c ****     return (CYDMA_INTR_MASK_REG);
 322:.\Generated_Source\PSoC4/CyDMA.c **** }
 323:.\Generated_Source\PSoC4/CyDMA.c **** 
 324:.\Generated_Source\PSoC4/CyDMA.c **** 
 325:.\Generated_Source\PSoC4/CyDMA.c **** /*******************************************************************************
 326:.\Generated_Source\PSoC4/CyDMA.c **** * Function Name: CyDmaGetInterruptSourceMasked
 327:.\Generated_Source\PSoC4/CyDMA.c **** ********************************************************************************
 328:.\Generated_Source\PSoC4/CyDMA.c **** *
 329:.\Generated_Source\PSoC4/CyDMA.c **** * Summary:
 330:.\Generated_Source\PSoC4/CyDMA.c **** *  Returns the bitwise AND of the interrupt source and the interrupt mask.
 331:.\Generated_Source\PSoC4/CyDMA.c **** *
 332:.\Generated_Source\PSoC4/CyDMA.c **** * Parameters:
 333:.\Generated_Source\PSoC4/CyDMA.c **** *  None.
 334:.\Generated_Source\PSoC4/CyDMA.c **** *                   
 335:.\Generated_Source\PSoC4/CyDMA.c **** * Return:
 336:.\Generated_Source\PSoC4/CyDMA.c **** *  Bitwise AND of the interrupt source and the interrupt mask.
 337:.\Generated_Source\PSoC4/CyDMA.c **** *
 338:.\Generated_Source\PSoC4/CyDMA.c **** *******************************************************************************/
 339:.\Generated_Source\PSoC4/CyDMA.c **** uint32 CyDmaGetInterruptSourceMasked(void)
 340:.\Generated_Source\PSoC4/CyDMA.c **** {
 341:.\Generated_Source\PSoC4/CyDMA.c ****     return (CYDMA_INTR_MASKED_REG);
 342:.\Generated_Source\PSoC4/CyDMA.c **** }
 343:.\Generated_Source\PSoC4/CyDMA.c **** 
 344:.\Generated_Source\PSoC4/CyDMA.c **** 
 345:.\Generated_Source\PSoC4/CyDMA.c **** /*******************************************************************************
 346:.\Generated_Source\PSoC4/CyDMA.c **** * Function Name: CyDmaSetInterruptCallback
 347:.\Generated_Source\PSoC4/CyDMA.c **** ********************************************************************************
 348:.\Generated_Source\PSoC4/CyDMA.c **** *
 349:.\Generated_Source\PSoC4/CyDMA.c **** * Summary:
 350:.\Generated_Source\PSoC4/CyDMA.c **** *  Sets a user defined callback function to be called by the DMA interrupt. The
 351:.\Generated_Source\PSoC4/CyDMA.c **** *  function should contain code to process the interrupt request for the 
 352:.\Generated_Source\PSoC4/CyDMA.c **** *  associated DMA channel.
 353:.\Generated_Source\PSoC4/CyDMA.c **** *
 354:.\Generated_Source\PSoC4/CyDMA.c **** * Parameters:
 355:.\Generated_Source\PSoC4/CyDMA.c **** *  channel:  Channel used by this function.
 356:.\Generated_Source\PSoC4/CyDMA.c **** *  callback: Pointer to the user defined callback function.
 357:.\Generated_Source\PSoC4/CyDMA.c **** *
 358:.\Generated_Source\PSoC4/CyDMA.c **** * Return:
 359:.\Generated_Source\PSoC4/CyDMA.c **** *  Pointer to the function previously set for the specified channel. 
 360:.\Generated_Source\PSoC4/CyDMA.c **** *
 361:.\Generated_Source\PSoC4/CyDMA.c **** *******************************************************************************/
 362:.\Generated_Source\PSoC4/CyDMA.c **** cydma_callback_t CyDmaSetInterruptCallback(int32 channel, cydma_callback_t callback)
 363:.\Generated_Source\PSoC4/CyDMA.c **** {
 364:.\Generated_Source\PSoC4/CyDMA.c ****     cydma_callback_t prevCallback;
 365:.\Generated_Source\PSoC4/CyDMA.c **** 
 366:.\Generated_Source\PSoC4/CyDMA.c ****     CYASSERT((channel >= 0) && (channel < CYDMA_CH_NR));
 367:.\Generated_Source\PSoC4/CyDMA.c **** 
 368:.\Generated_Source\PSoC4/CyDMA.c ****     prevCallback = CyDmaInterruptCallback[channel];
 369:.\Generated_Source\PSoC4/CyDMA.c ****     CyDmaInterruptCallback[channel] = callback;
 370:.\Generated_Source\PSoC4/CyDMA.c ****     return (prevCallback);
 371:.\Generated_Source\PSoC4/CyDMA.c **** }
 372:.\Generated_Source\PSoC4/CyDMA.c **** 
 373:.\Generated_Source\PSoC4/CyDMA.c **** 
 374:.\Generated_Source\PSoC4/CyDMA.c **** /*******************************************************************************
ARM GAS  C:\Users\Tim\AppData\Local\Temp\ccEK2rHG.s 			page 8


 375:.\Generated_Source\PSoC4/CyDMA.c **** * Function Name: CyDmaGetInterruptCallback
 376:.\Generated_Source\PSoC4/CyDMA.c **** ********************************************************************************
 377:.\Generated_Source\PSoC4/CyDMA.c **** *
 378:.\Generated_Source\PSoC4/CyDMA.c **** * Summary:
 379:.\Generated_Source\PSoC4/CyDMA.c **** *  Returns the pointer to the interrupt callback function for the specified DMA
 380:.\Generated_Source\PSoC4/CyDMA.c **** *  channel.
 381:.\Generated_Source\PSoC4/CyDMA.c **** *
 382:.\Generated_Source\PSoC4/CyDMA.c **** * Parameters:
 383:.\Generated_Source\PSoC4/CyDMA.c **** *  channel: Channel used by this function.
 384:.\Generated_Source\PSoC4/CyDMA.c **** *
 385:.\Generated_Source\PSoC4/CyDMA.c **** * Return:
 386:.\Generated_Source\PSoC4/CyDMA.c **** *  Callback function pointer for the specified channel.
 387:.\Generated_Source\PSoC4/CyDMA.c **** *
 388:.\Generated_Source\PSoC4/CyDMA.c **** *******************************************************************************/
 389:.\Generated_Source\PSoC4/CyDMA.c **** cydma_callback_t CyDmaGetInterruptCallback(int32 channel)
 390:.\Generated_Source\PSoC4/CyDMA.c **** {
 391:.\Generated_Source\PSoC4/CyDMA.c ****     CYASSERT((channel >= 0) && (channel < CYDMA_CH_NR));
 392:.\Generated_Source\PSoC4/CyDMA.c ****     
 393:.\Generated_Source\PSoC4/CyDMA.c ****     return (CyDmaInterruptCallback[channel]);
 394:.\Generated_Source\PSoC4/CyDMA.c **** }
 395:.\Generated_Source\PSoC4/CyDMA.c **** 
 396:.\Generated_Source\PSoC4/CyDMA.c **** 
 397:.\Generated_Source\PSoC4/CyDMA.c **** /*******************************************************************************
 398:.\Generated_Source\PSoC4/CyDMA.c **** * Function Name: CyDmaInterrupt
 399:.\Generated_Source\PSoC4/CyDMA.c **** ********************************************************************************
 400:.\Generated_Source\PSoC4/CyDMA.c **** *
 401:.\Generated_Source\PSoC4/CyDMA.c **** * Summary:
 402:.\Generated_Source\PSoC4/CyDMA.c **** *  The default ISR for DMA interrupts. The handler checks which DMA channel has
 403:.\Generated_Source\PSoC4/CyDMA.c **** *  triggered the interrupt and calls the user defined callback function.
 404:.\Generated_Source\PSoC4/CyDMA.c **** *  The callback function is set using CyDmaSetInteruptCallback() API.
 405:.\Generated_Source\PSoC4/CyDMA.c **** *
 406:.\Generated_Source\PSoC4/CyDMA.c **** * Parameters:
 407:.\Generated_Source\PSoC4/CyDMA.c **** *  None.
 408:.\Generated_Source\PSoC4/CyDMA.c **** *
 409:.\Generated_Source\PSoC4/CyDMA.c **** * Return:
 410:.\Generated_Source\PSoC4/CyDMA.c **** *  None.
 411:.\Generated_Source\PSoC4/CyDMA.c **** *
 412:.\Generated_Source\PSoC4/CyDMA.c **** * Side Effects:
 413:.\Generated_Source\PSoC4/CyDMA.c **** *  This function clears the pending interrupts.
 414:.\Generated_Source\PSoC4/CyDMA.c **** *
 415:.\Generated_Source\PSoC4/CyDMA.c **** *******************************************************************************/
 416:.\Generated_Source\PSoC4/CyDMA.c **** CY_ISR(CyDmaInterrupt)
 417:.\Generated_Source\PSoC4/CyDMA.c **** {
  26              		.loc 1 417 0
  27              		.cfi_startproc
  28 0000 38B5     		push	{r3, r4, r5, lr}
  29              		.cfi_def_cfa_offset 16
  30              		.cfi_offset 3, -16
  31              		.cfi_offset 4, -12
  32              		.cfi_offset 5, -8
  33              		.cfi_offset 14, -4
  34              	.LVL0:
 418:.\Generated_Source\PSoC4/CyDMA.c ****     uint32 intr;
 419:.\Generated_Source\PSoC4/CyDMA.c ****     uint32 cbIdx = 0u;
 420:.\Generated_Source\PSoC4/CyDMA.c **** 
 421:.\Generated_Source\PSoC4/CyDMA.c ****     /* Get interrupt source. */
 422:.\Generated_Source\PSoC4/CyDMA.c ****     intr = CYDMA_INTR_MASKED_REG;
ARM GAS  C:\Users\Tim\AppData\Local\Temp\ccEK2rHG.s 			page 9


  35              		.loc 1 422 0
  36 0002 084B     		ldr	r3, .L5
  37 0004 1C68     		ldr	r4, [r3]
  38              	.LVL1:
 423:.\Generated_Source\PSoC4/CyDMA.c **** 
 424:.\Generated_Source\PSoC4/CyDMA.c ****     /* Clear pending interrupts. */
 425:.\Generated_Source\PSoC4/CyDMA.c ****     CYDMA_INTR_REG = intr;
  39              		.loc 1 425 0
  40 0006 084B     		ldr	r3, .L5+4
  41 0008 1C60     		str	r4, [r3]
 419:.\Generated_Source\PSoC4/CyDMA.c **** 
  42              		.loc 1 419 0
  43 000a 0025     		mov	r5, #0
 426:.\Generated_Source\PSoC4/CyDMA.c **** 
 427:.\Generated_Source\PSoC4/CyDMA.c ****     /* Call user defined callback functions for triggered interrupt sources. */
 428:.\Generated_Source\PSoC4/CyDMA.c ****     while(0u != intr)
  44              		.loc 1 428 0
  45 000c 07E0     		b	.L2
  46              	.LVL2:
  47              	.L4:
 429:.\Generated_Source\PSoC4/CyDMA.c ****     {
 430:.\Generated_Source\PSoC4/CyDMA.c ****         if(0u != (intr & 0x1u))
  48              		.loc 1 430 0
  49 000e E307     		lsl	r3, r4, #31
  50 0010 03D5     		bpl	.L3
 431:.\Generated_Source\PSoC4/CyDMA.c ****         {
 432:.\Generated_Source\PSoC4/CyDMA.c ****             CyDmaInterruptCallback[cbIdx]();
  51              		.loc 1 432 0
  52 0012 AB00     		lsl	r3, r5, #2
  53 0014 054A     		ldr	r2, .L5+8
  54 0016 9B58     		ldr	r3, [r3, r2]
  55 0018 9847     		blx	r3
  56              	.LVL3:
  57              	.L3:
 433:.\Generated_Source\PSoC4/CyDMA.c ****         }
 434:.\Generated_Source\PSoC4/CyDMA.c ****         intr >>= 1;
  58              		.loc 1 434 0
  59 001a 6408     		lsr	r4, r4, #1
  60              	.LVL4:
 435:.\Generated_Source\PSoC4/CyDMA.c ****         ++cbIdx;
  61              		.loc 1 435 0
  62 001c 0135     		add	r5, r5, #1
  63              	.LVL5:
  64              	.L2:
 428:.\Generated_Source\PSoC4/CyDMA.c ****     {
  65              		.loc 1 428 0
  66 001e 002C     		cmp	r4, #0
  67 0020 F5D1     		bne	.L4
 436:.\Generated_Source\PSoC4/CyDMA.c ****     }
 437:.\Generated_Source\PSoC4/CyDMA.c **** }
  68              		.loc 1 437 0
  69              		@ sp needed
  70              	.LVL6:
  71              	.LVL7:
  72 0022 38BD     		pop	{r3, r4, r5, pc}
  73              	.L6:
  74              		.align	2
ARM GAS  C:\Users\Tim\AppData\Local\Temp\ccEK2rHG.s 			page 10


  75              	.L5:
  76 0024 FC171040 		.word	1074796540
  77 0028 F0171040 		.word	1074796528
  78 002c 00000000 		.word	.LANCHOR0
  79              		.cfi_endproc
  80              	.LFE16:
  81              		.size	CyDmaInterrupt, .-CyDmaInterrupt
  82              		.section	.text.CyDmaDefaultInterruptCallback,"ax",%progbits
  83              		.align	2
  84              		.code	16
  85              		.thumb_func
  86              		.type	CyDmaDefaultInterruptCallback, %function
  87              	CyDmaDefaultInterruptCallback:
  88              	.LFB17:
 438:.\Generated_Source\PSoC4/CyDMA.c **** 
 439:.\Generated_Source\PSoC4/CyDMA.c **** 
 440:.\Generated_Source\PSoC4/CyDMA.c **** /*******************************************************************************
 441:.\Generated_Source\PSoC4/CyDMA.c **** * Function Name: CyDmaDefaultInterruptCallback
 442:.\Generated_Source\PSoC4/CyDMA.c **** ********************************************************************************
 443:.\Generated_Source\PSoC4/CyDMA.c **** *
 444:.\Generated_Source\PSoC4/CyDMA.c **** * Summary:
 445:.\Generated_Source\PSoC4/CyDMA.c **** *  This function is invoked when the user defined callback function is undefined
 446:.\Generated_Source\PSoC4/CyDMA.c **** *  for the interrupt source.
 447:.\Generated_Source\PSoC4/CyDMA.c **** *
 448:.\Generated_Source\PSoC4/CyDMA.c **** * Parameters:
 449:.\Generated_Source\PSoC4/CyDMA.c **** *  None.
 450:.\Generated_Source\PSoC4/CyDMA.c **** *
 451:.\Generated_Source\PSoC4/CyDMA.c **** * Return:
 452:.\Generated_Source\PSoC4/CyDMA.c **** *  None.
 453:.\Generated_Source\PSoC4/CyDMA.c **** *
 454:.\Generated_Source\PSoC4/CyDMA.c **** *******************************************************************************/
 455:.\Generated_Source\PSoC4/CyDMA.c **** static void CyDmaDefaultInterruptCallback(void)
 456:.\Generated_Source\PSoC4/CyDMA.c **** {
  89              		.loc 1 456 0
  90              		.cfi_startproc
  91 0000 08B5     		push	{r3, lr}
  92              		.cfi_def_cfa_offset 8
  93              		.cfi_offset 3, -8
  94              		.cfi_offset 14, -4
 457:.\Generated_Source\PSoC4/CyDMA.c ****     /* Halt CPU in debug mode. We get here because there is no user defined
 458:.\Generated_Source\PSoC4/CyDMA.c ****     * callback function for the interrupt source. You should either set a
 459:.\Generated_Source\PSoC4/CyDMA.c ****     * callback function or disable generating an interrupt from this
 460:.\Generated_Source\PSoC4/CyDMA.c ****     * interrupt source.
 461:.\Generated_Source\PSoC4/CyDMA.c ****     * To set a callback, use the CyDmaSetInterruptCallback() API function.
 462:.\Generated_Source\PSoC4/CyDMA.c ****     * To disable interrupt generation, write '0' to the corresponding bit
 463:.\Generated_Source\PSoC4/CyDMA.c ****     * in the interrupt mask by calling CyDmaSetInterruptSourceMask().
 464:.\Generated_Source\PSoC4/CyDMA.c ****     */
 465:.\Generated_Source\PSoC4/CyDMA.c ****     CYASSERT(0 != 0);
  95              		.loc 1 465 0
  96 0002 0020     		mov	r0, #0
  97 0004 FFF7FEFF 		bl	CyHalt
  98              	.LVL8:
 466:.\Generated_Source\PSoC4/CyDMA.c **** }
  99              		.loc 1 466 0
 100              		@ sp needed
 101 0008 08BD     		pop	{r3, pc}
 102              		.cfi_endproc
ARM GAS  C:\Users\Tim\AppData\Local\Temp\ccEK2rHG.s 			page 11


 103              	.LFE17:
 104              		.size	CyDmaDefaultInterruptCallback, .-CyDmaDefaultInterruptCallback
 105 000a C046     		.section	.text.CyDmaDisable,"ax",%progbits
 106              		.align	2
 107              		.global	CyDmaDisable
 108              		.code	16
 109              		.thumb_func
 110              		.type	CyDmaDisable, %function
 111              	CyDmaDisable:
 112              	.LFB3:
 106:.\Generated_Source\PSoC4/CyDMA.c ****     CYDMA_CTL_REG = (uint32)~CYDMA_ENABLED;
 113              		.loc 1 106 0
 114              		.cfi_startproc
 107:.\Generated_Source\PSoC4/CyDMA.c **** }
 115              		.loc 1 107 0
 116 0000 014A     		ldr	r2, .L9
 117 0002 024B     		ldr	r3, .L9+4
 118 0004 1A60     		str	r2, [r3]
 108:.\Generated_Source\PSoC4/CyDMA.c **** 
 119              		.loc 1 108 0
 120              		@ sp needed
 121 0006 7047     		bx	lr
 122              	.L10:
 123              		.align	2
 124              	.L9:
 125 0008 FFFFFF7F 		.word	2147483647
 126 000c 00101040 		.word	1074794496
 127              		.cfi_endproc
 128              	.LFE3:
 129              		.size	CyDmaDisable, .-CyDmaDisable
 130              		.section	.text.CyDmaGetStatus,"ax",%progbits
 131              		.align	2
 132              		.global	CyDmaGetStatus
 133              		.code	16
 134              		.thumb_func
 135              		.type	CyDmaGetStatus, %function
 136              	CyDmaGetStatus:
 137              	.LFB4:
 134:.\Generated_Source\PSoC4/CyDMA.c ****     return (CYDMA_STATUS_REG);
 138              		.loc 1 134 0
 139              		.cfi_startproc
 135:.\Generated_Source\PSoC4/CyDMA.c **** }
 140              		.loc 1 135 0
 141 0000 014B     		ldr	r3, .L12
 142 0002 1868     		ldr	r0, [r3]
 136:.\Generated_Source\PSoC4/CyDMA.c **** 
 143              		.loc 1 136 0
 144              		@ sp needed
 145 0004 7047     		bx	lr
 146              	.L13:
 147 0006 C046     		.align	2
 148              	.L12:
 149 0008 10101040 		.word	1074794512
 150              		.cfi_endproc
 151              	.LFE4:
 152              		.size	CyDmaGetStatus, .-CyDmaGetStatus
 153              		.section	.text.CyDmaGetActiveChannels,"ax",%progbits
ARM GAS  C:\Users\Tim\AppData\Local\Temp\ccEK2rHG.s 			page 12


 154              		.align	2
 155              		.global	CyDmaGetActiveChannels
 156              		.code	16
 157              		.thumb_func
 158              		.type	CyDmaGetActiveChannels, %function
 159              	CyDmaGetActiveChannels:
 160              	.LFB5:
 155:.\Generated_Source\PSoC4/CyDMA.c ****     return (CYDMA_STATUS_CH_ACT_REG);
 161              		.loc 1 155 0
 162              		.cfi_startproc
 156:.\Generated_Source\PSoC4/CyDMA.c **** }
 163              		.loc 1 156 0
 164 0000 014B     		ldr	r3, .L15
 165 0002 1868     		ldr	r0, [r3]
 157:.\Generated_Source\PSoC4/CyDMA.c **** 
 166              		.loc 1 157 0
 167              		@ sp needed
 168 0004 7047     		bx	lr
 169              	.L16:
 170 0006 C046     		.align	2
 171              	.L15:
 172 0008 1C101040 		.word	1074794524
 173              		.cfi_endproc
 174              	.LFE5:
 175              		.size	CyDmaGetActiveChannels, .-CyDmaGetActiveChannels
 176              		.section	.text.CyDmaGetActiveSrcAddress,"ax",%progbits
 177              		.align	2
 178              		.global	CyDmaGetActiveSrcAddress
 179              		.code	16
 180              		.thumb_func
 181              		.type	CyDmaGetActiveSrcAddress, %function
 182              	CyDmaGetActiveSrcAddress:
 183              	.LFB6:
 183:.\Generated_Source\PSoC4/CyDMA.c ****     return ((void *)CYDMA_STATUS_SRC_ADDR_REG);
 184              		.loc 1 183 0
 185              		.cfi_startproc
 184:.\Generated_Source\PSoC4/CyDMA.c **** }
 186              		.loc 1 184 0
 187 0000 014B     		ldr	r3, .L18
 188 0002 1868     		ldr	r0, [r3]
 185:.\Generated_Source\PSoC4/CyDMA.c **** 
 189              		.loc 1 185 0
 190              		@ sp needed
 191 0004 7047     		bx	lr
 192              	.L19:
 193 0006 C046     		.align	2
 194              	.L18:
 195 0008 14101040 		.word	1074794516
 196              		.cfi_endproc
 197              	.LFE6:
 198              		.size	CyDmaGetActiveSrcAddress, .-CyDmaGetActiveSrcAddress
 199              		.section	.text.CyDmaGetActiveDstAddress,"ax",%progbits
 200              		.align	2
 201              		.global	CyDmaGetActiveDstAddress
 202              		.code	16
 203              		.thumb_func
 204              		.type	CyDmaGetActiveDstAddress, %function
ARM GAS  C:\Users\Tim\AppData\Local\Temp\ccEK2rHG.s 			page 13


 205              	CyDmaGetActiveDstAddress:
 206              	.LFB7:
 211:.\Generated_Source\PSoC4/CyDMA.c ****     return ((void *)CYDMA_STATUS_DST_ADDR_REG);
 207              		.loc 1 211 0
 208              		.cfi_startproc
 212:.\Generated_Source\PSoC4/CyDMA.c **** }
 209              		.loc 1 212 0
 210 0000 014B     		ldr	r3, .L21
 211 0002 1868     		ldr	r0, [r3]
 213:.\Generated_Source\PSoC4/CyDMA.c **** 
 212              		.loc 1 213 0
 213              		@ sp needed
 214 0004 7047     		bx	lr
 215              	.L22:
 216 0006 C046     		.align	2
 217              	.L21:
 218 0008 18101040 		.word	1074794520
 219              		.cfi_endproc
 220              	.LFE7:
 221              		.size	CyDmaGetActiveDstAddress, .-CyDmaGetActiveDstAddress
 222              		.section	.text.CyDmaSetInterruptVector,"ax",%progbits
 223              		.align	2
 224              		.global	CyDmaSetInterruptVector
 225              		.code	16
 226              		.thumb_func
 227              		.type	CyDmaSetInterruptVector, %function
 228              	CyDmaSetInterruptVector:
 229              	.LFB8:
 240:.\Generated_Source\PSoC4/CyDMA.c ****     (void)CyIntSetVector(CYDMA_INTR_NUMBER, interruptVector);
 230              		.loc 1 240 0
 231              		.cfi_startproc
 232              	.LVL9:
 233 0000 08B5     		push	{r3, lr}
 234              		.cfi_def_cfa_offset 8
 235              		.cfi_offset 3, -8
 236              		.cfi_offset 14, -4
 237 0002 011C     		mov	r1, r0
 241:.\Generated_Source\PSoC4/CyDMA.c **** }
 238              		.loc 1 241 0
 239 0004 0E20     		mov	r0, #14
 240              	.LVL10:
 241 0006 FFF7FEFF 		bl	CyIntSetVector
 242              	.LVL11:
 242:.\Generated_Source\PSoC4/CyDMA.c **** 
 243              		.loc 1 242 0
 244              		@ sp needed
 245 000a 08BD     		pop	{r3, pc}
 246              		.cfi_endproc
 247              	.LFE8:
 248              		.size	CyDmaSetInterruptVector, .-CyDmaSetInterruptVector
 249              		.section	.text.CyDmaEnable,"ax",%progbits
 250              		.align	2
 251              		.global	CyDmaEnable
 252              		.code	16
 253              		.thumb_func
 254              		.type	CyDmaEnable, %function
 255              	CyDmaEnable:
ARM GAS  C:\Users\Tim\AppData\Local\Temp\ccEK2rHG.s 			page 14


 256              	.LFB2:
  75:.\Generated_Source\PSoC4/CyDMA.c ****     static uint8 initIntrVector = 0u;
 257              		.loc 1 75 0
 258              		.cfi_startproc
 259 0000 08B5     		push	{r3, lr}
 260              		.cfi_def_cfa_offset 8
 261              		.cfi_offset 3, -8
 262              		.cfi_offset 14, -4
  78:.\Generated_Source\PSoC4/CyDMA.c ****     {
 263              		.loc 1 78 0
 264 0002 094B     		ldr	r3, .L26
 265 0004 1B78     		ldrb	r3, [r3]
 266 0006 002B     		cmp	r3, #0
 267 0008 09D1     		bne	.L25
  80:.\Generated_Source\PSoC4/CyDMA.c ****         CyIntSetPriority(CYDMA_INTR_NUMBER, CYDMA_INTR_PRIO);
 268              		.loc 1 80 0
 269 000a 0848     		ldr	r0, .L26+4
 270 000c FFF7FEFF 		bl	CyDmaSetInterruptVector
 271              	.LVL12:
  81:.\Generated_Source\PSoC4/CyDMA.c ****         initIntrVector = 1u;
 272              		.loc 1 81 0
 273 0010 0E20     		mov	r0, #14
 274 0012 0321     		mov	r1, #3
 275 0014 FFF7FEFF 		bl	CyIntSetPriority
 276              	.LVL13:
  82:.\Generated_Source\PSoC4/CyDMA.c ****     }
 277              		.loc 1 82 0
 278 0018 0122     		mov	r2, #1
 279 001a 034B     		ldr	r3, .L26
 280 001c 1A70     		strb	r2, [r3]
 281              	.L25:
  84:.\Generated_Source\PSoC4/CyDMA.c **** }
 282              		.loc 1 84 0
 283 001e 8022     		mov	r2, #128
 284 0020 1206     		lsl	r2, r2, #24
 285 0022 034B     		ldr	r3, .L26+8
 286 0024 1A60     		str	r2, [r3]
  85:.\Generated_Source\PSoC4/CyDMA.c **** 
 287              		.loc 1 85 0
 288              		@ sp needed
 289 0026 08BD     		pop	{r3, pc}
 290              	.L27:
 291              		.align	2
 292              	.L26:
 293 0028 00000000 		.word	.LANCHOR1
 294 002c 00000000 		.word	CyDmaInterrupt
 295 0030 00101040 		.word	1074794496
 296              		.cfi_endproc
 297              	.LFE2:
 298              		.size	CyDmaEnable, .-CyDmaEnable
 299              		.section	.text.CyDmaGetInterruptSource,"ax",%progbits
 300              		.align	2
 301              		.global	CyDmaGetInterruptSource
 302              		.code	16
 303              		.thumb_func
 304              		.type	CyDmaGetInterruptSource, %function
 305              	CyDmaGetInterruptSource:
ARM GAS  C:\Users\Tim\AppData\Local\Temp\ccEK2rHG.s 			page 15


 306              	.LFB9:
 260:.\Generated_Source\PSoC4/CyDMA.c ****     return (CYDMA_INTR_REG);
 307              		.loc 1 260 0
 308              		.cfi_startproc
 261:.\Generated_Source\PSoC4/CyDMA.c **** }
 309              		.loc 1 261 0
 310 0000 014B     		ldr	r3, .L29
 311 0002 1868     		ldr	r0, [r3]
 262:.\Generated_Source\PSoC4/CyDMA.c **** 
 312              		.loc 1 262 0
 313              		@ sp needed
 314 0004 7047     		bx	lr
 315              	.L30:
 316 0006 C046     		.align	2
 317              	.L29:
 318 0008 F0171040 		.word	1074796528
 319              		.cfi_endproc
 320              	.LFE9:
 321              		.size	CyDmaGetInterruptSource, .-CyDmaGetInterruptSource
 322              		.section	.text.CyDmaClearInterruptSource,"ax",%progbits
 323              		.align	2
 324              		.global	CyDmaClearInterruptSource
 325              		.code	16
 326              		.thumb_func
 327              		.type	CyDmaClearInterruptSource, %function
 328              	CyDmaClearInterruptSource:
 329              	.LFB10:
 280:.\Generated_Source\PSoC4/CyDMA.c ****     CYDMA_INTR_REG = interruptMask;
 330              		.loc 1 280 0
 331              		.cfi_startproc
 332              	.LVL14:
 281:.\Generated_Source\PSoC4/CyDMA.c **** }
 333              		.loc 1 281 0
 334 0000 014B     		ldr	r3, .L32
 335 0002 1860     		str	r0, [r3]
 282:.\Generated_Source\PSoC4/CyDMA.c **** 
 336              		.loc 1 282 0
 337              		@ sp needed
 338 0004 7047     		bx	lr
 339              	.L33:
 340 0006 C046     		.align	2
 341              	.L32:
 342 0008 F0171040 		.word	1074796528
 343              		.cfi_endproc
 344              	.LFE10:
 345              		.size	CyDmaClearInterruptSource, .-CyDmaClearInterruptSource
 346              		.section	.text.CyDmaSetInterruptSourceMask,"ax",%progbits
 347              		.align	2
 348              		.global	CyDmaSetInterruptSourceMask
 349              		.code	16
 350              		.thumb_func
 351              		.type	CyDmaSetInterruptSourceMask, %function
 352              	CyDmaSetInterruptSourceMask:
 353              	.LFB11:
 300:.\Generated_Source\PSoC4/CyDMA.c ****     CYDMA_INTR_MASK_REG = interruptMask;
 354              		.loc 1 300 0
 355              		.cfi_startproc
ARM GAS  C:\Users\Tim\AppData\Local\Temp\ccEK2rHG.s 			page 16


 356              	.LVL15:
 301:.\Generated_Source\PSoC4/CyDMA.c **** }
 357              		.loc 1 301 0
 358 0000 014B     		ldr	r3, .L35
 359 0002 1860     		str	r0, [r3]
 302:.\Generated_Source\PSoC4/CyDMA.c **** 
 360              		.loc 1 302 0
 361              		@ sp needed
 362 0004 7047     		bx	lr
 363              	.L36:
 364 0006 C046     		.align	2
 365              	.L35:
 366 0008 F8171040 		.word	1074796536
 367              		.cfi_endproc
 368              	.LFE11:
 369              		.size	CyDmaSetInterruptSourceMask, .-CyDmaSetInterruptSourceMask
 370              		.section	.text.CyDmaGetInterruptSourceMask,"ax",%progbits
 371              		.align	2
 372              		.global	CyDmaGetInterruptSourceMask
 373              		.code	16
 374              		.thumb_func
 375              		.type	CyDmaGetInterruptSourceMask, %function
 376              	CyDmaGetInterruptSourceMask:
 377              	.LFB12:
 320:.\Generated_Source\PSoC4/CyDMA.c ****     return (CYDMA_INTR_MASK_REG);
 378              		.loc 1 320 0
 379              		.cfi_startproc
 321:.\Generated_Source\PSoC4/CyDMA.c **** }
 380              		.loc 1 321 0
 381 0000 014B     		ldr	r3, .L38
 382 0002 1868     		ldr	r0, [r3]
 322:.\Generated_Source\PSoC4/CyDMA.c **** 
 383              		.loc 1 322 0
 384              		@ sp needed
 385 0004 7047     		bx	lr
 386              	.L39:
 387 0006 C046     		.align	2
 388              	.L38:
 389 0008 F8171040 		.word	1074796536
 390              		.cfi_endproc
 391              	.LFE12:
 392              		.size	CyDmaGetInterruptSourceMask, .-CyDmaGetInterruptSourceMask
 393              		.section	.text.CyDmaGetInterruptSourceMasked,"ax",%progbits
 394              		.align	2
 395              		.global	CyDmaGetInterruptSourceMasked
 396              		.code	16
 397              		.thumb_func
 398              		.type	CyDmaGetInterruptSourceMasked, %function
 399              	CyDmaGetInterruptSourceMasked:
 400              	.LFB13:
 340:.\Generated_Source\PSoC4/CyDMA.c ****     return (CYDMA_INTR_MASKED_REG);
 401              		.loc 1 340 0
 402              		.cfi_startproc
 341:.\Generated_Source\PSoC4/CyDMA.c **** }
 403              		.loc 1 341 0
 404 0000 014B     		ldr	r3, .L41
 405 0002 1868     		ldr	r0, [r3]
ARM GAS  C:\Users\Tim\AppData\Local\Temp\ccEK2rHG.s 			page 17


 342:.\Generated_Source\PSoC4/CyDMA.c **** 
 406              		.loc 1 342 0
 407              		@ sp needed
 408 0004 7047     		bx	lr
 409              	.L42:
 410 0006 C046     		.align	2
 411              	.L41:
 412 0008 FC171040 		.word	1074796540
 413              		.cfi_endproc
 414              	.LFE13:
 415              		.size	CyDmaGetInterruptSourceMasked, .-CyDmaGetInterruptSourceMasked
 416              		.section	.text.CyDmaSetInterruptCallback,"ax",%progbits
 417              		.align	2
 418              		.global	CyDmaSetInterruptCallback
 419              		.code	16
 420              		.thumb_func
 421              		.type	CyDmaSetInterruptCallback, %function
 422              	CyDmaSetInterruptCallback:
 423              	.LFB14:
 363:.\Generated_Source\PSoC4/CyDMA.c ****     cydma_callback_t prevCallback;
 424              		.loc 1 363 0
 425              		.cfi_startproc
 426              	.LVL16:
 427 0000 38B5     		push	{r3, r4, r5, lr}
 428              		.cfi_def_cfa_offset 16
 429              		.cfi_offset 3, -16
 430              		.cfi_offset 4, -12
 431              		.cfi_offset 5, -8
 432              		.cfi_offset 14, -4
 433 0002 041C     		mov	r4, r0
 434 0004 0D1C     		mov	r5, r1
 366:.\Generated_Source\PSoC4/CyDMA.c **** 
 435              		.loc 1 366 0
 436 0006 1F28     		cmp	r0, #31
 437 0008 02D9     		bls	.L44
 366:.\Generated_Source\PSoC4/CyDMA.c **** 
 438              		.loc 1 366 0 is_stmt 0 discriminator 1
 439 000a 0020     		mov	r0, #0
 440              	.LVL17:
 441 000c FFF7FEFF 		bl	CyHalt
 442              	.LVL18:
 443              	.L44:
 368:.\Generated_Source\PSoC4/CyDMA.c ****     CyDmaInterruptCallback[channel] = callback;
 444              		.loc 1 368 0 is_stmt 1
 445 0010 024B     		ldr	r3, .L45
 446 0012 A400     		lsl	r4, r4, #2
 447              	.LVL19:
 448 0014 E058     		ldr	r0, [r4, r3]
 449              	.LVL20:
 369:.\Generated_Source\PSoC4/CyDMA.c ****     return (prevCallback);
 450              		.loc 1 369 0
 451 0016 E550     		str	r5, [r4, r3]
 371:.\Generated_Source\PSoC4/CyDMA.c **** 
 452              		.loc 1 371 0
 453              		@ sp needed
 454              	.LVL21:
 455 0018 38BD     		pop	{r3, r4, r5, pc}
ARM GAS  C:\Users\Tim\AppData\Local\Temp\ccEK2rHG.s 			page 18


 456              	.L46:
 457 001a C046     		.align	2
 458              	.L45:
 459 001c 00000000 		.word	.LANCHOR0
 460              		.cfi_endproc
 461              	.LFE14:
 462              		.size	CyDmaSetInterruptCallback, .-CyDmaSetInterruptCallback
 463              		.section	.text.CyDmaGetInterruptCallback,"ax",%progbits
 464              		.align	2
 465              		.global	CyDmaGetInterruptCallback
 466              		.code	16
 467              		.thumb_func
 468              		.type	CyDmaGetInterruptCallback, %function
 469              	CyDmaGetInterruptCallback:
 470              	.LFB15:
 390:.\Generated_Source\PSoC4/CyDMA.c ****     CYASSERT((channel >= 0) && (channel < CYDMA_CH_NR));
 471              		.loc 1 390 0
 472              		.cfi_startproc
 473              	.LVL22:
 474 0000 10B5     		push	{r4, lr}
 475              		.cfi_def_cfa_offset 8
 476              		.cfi_offset 4, -8
 477              		.cfi_offset 14, -4
 478 0002 041E     		sub	r4, r0, #0
 391:.\Generated_Source\PSoC4/CyDMA.c ****     
 479              		.loc 1 391 0
 480 0004 1F2C     		cmp	r4, #31
 481 0006 02D9     		bls	.L48
 391:.\Generated_Source\PSoC4/CyDMA.c ****     
 482              		.loc 1 391 0 is_stmt 0 discriminator 1
 483 0008 0020     		mov	r0, #0
 484              	.LVL23:
 485 000a FFF7FEFF 		bl	CyHalt
 486              	.LVL24:
 487              	.L48:
 393:.\Generated_Source\PSoC4/CyDMA.c **** }
 488              		.loc 1 393 0 is_stmt 1
 489 000e A400     		lsl	r4, r4, #2
 490              	.LVL25:
 491 0010 014B     		ldr	r3, .L49
 492 0012 E058     		ldr	r0, [r4, r3]
 394:.\Generated_Source\PSoC4/CyDMA.c **** 
 493              		.loc 1 394 0
 494              		@ sp needed
 495 0014 10BD     		pop	{r4, pc}
 496              	.L50:
 497 0016 C046     		.align	2
 498              	.L49:
 499 0018 00000000 		.word	.LANCHOR0
 500              		.cfi_endproc
 501              	.LFE15:
 502              		.size	CyDmaGetInterruptCallback, .-CyDmaGetInterruptCallback
 503              		.section	.text.CyDmaChAlloc,"ax",%progbits
 504              		.align	2
 505              		.global	CyDmaChAlloc
 506              		.code	16
 507              		.thumb_func
ARM GAS  C:\Users\Tim\AppData\Local\Temp\ccEK2rHG.s 			page 19


 508              		.type	CyDmaChAlloc, %function
 509              	CyDmaChAlloc:
 510              	.LFB18:
 467:.\Generated_Source\PSoC4/CyDMA.c **** 
 468:.\Generated_Source\PSoC4/CyDMA.c **** 
 469:.\Generated_Source\PSoC4/CyDMA.c **** /*******************************************************************************
 470:.\Generated_Source\PSoC4/CyDMA.c **** * Function Name: CyDmaChAlloc
 471:.\Generated_Source\PSoC4/CyDMA.c **** ********************************************************************************
 472:.\Generated_Source\PSoC4/CyDMA.c **** *
 473:.\Generated_Source\PSoC4/CyDMA.c **** * Summary:
 474:.\Generated_Source\PSoC4/CyDMA.c **** *  Allocates a channel number to use with later DMA functions.
 475:.\Generated_Source\PSoC4/CyDMA.c **** *
 476:.\Generated_Source\PSoC4/CyDMA.c **** * Parameters:
 477:.\Generated_Source\PSoC4/CyDMA.c **** *  None.
 478:.\Generated_Source\PSoC4/CyDMA.c **** *                   
 479:.\Generated_Source\PSoC4/CyDMA.c **** * Return:
 480:.\Generated_Source\PSoC4/CyDMA.c **** *  The allocated channel number. Zero is a valid channel number.
 481:.\Generated_Source\PSoC4/CyDMA.c **** *  CYDMA_INVALID_CHANNEL is returned if there are no channels available.
 482:.\Generated_Source\PSoC4/CyDMA.c **** *
 483:.\Generated_Source\PSoC4/CyDMA.c **** *******************************************************************************/
 484:.\Generated_Source\PSoC4/CyDMA.c **** int32 CyDmaChAlloc(void)
 485:.\Generated_Source\PSoC4/CyDMA.c **** {
 511              		.loc 1 485 0
 512              		.cfi_startproc
 513              	.LVL26:
 486:.\Generated_Source\PSoC4/CyDMA.c ****     int32  channel = CYDMA_CH_NR-1;
 487:.\Generated_Source\PSoC4/CyDMA.c ****     uint32 channelMask = (uint32)(1UL << (CYDMA_CH_NR-1));
 514              		.loc 1 487 0
 515 0000 8023     		mov	r3, #128
 516 0002 1B06     		lsl	r3, r3, #24
 486:.\Generated_Source\PSoC4/CyDMA.c ****     int32  channel = CYDMA_CH_NR-1;
 517              		.loc 1 486 0
 518 0004 1F20     		mov	r0, #31
 488:.\Generated_Source\PSoC4/CyDMA.c ****     
 489:.\Generated_Source\PSoC4/CyDMA.c ****     while (channel >= 0)
 519              		.loc 1 489 0
 520 0006 09E0     		b	.L52
 521              	.LVL27:
 522              	.L55:
 490:.\Generated_Source\PSoC4/CyDMA.c ****     {
 491:.\Generated_Source\PSoC4/CyDMA.c ****         if(0u == (CyDmaChannelUsedMask & channelMask))
 523              		.loc 1 491 0
 524 0008 064A     		ldr	r2, .L56
 525 000a 5268     		ldr	r2, [r2, #4]
 526 000c 1342     		tst	r3, r2
 527 000e 03D1     		bne	.L53
 492:.\Generated_Source\PSoC4/CyDMA.c ****         {
 493:.\Generated_Source\PSoC4/CyDMA.c ****             /* Mark channel as used and exit loop. */ 
 494:.\Generated_Source\PSoC4/CyDMA.c ****             CyDmaChannelUsedMask |= channelMask;
 528              		.loc 1 494 0
 529 0010 1343     		orr	r3, r2
 530              	.LVL28:
 531 0012 044A     		ldr	r2, .L56
 532 0014 5360     		str	r3, [r2, #4]
 495:.\Generated_Source\PSoC4/CyDMA.c ****             break;
 533              		.loc 1 495 0
 534 0016 03E0     		b	.L54
ARM GAS  C:\Users\Tim\AppData\Local\Temp\ccEK2rHG.s 			page 20


 535              	.LVL29:
 536              	.L53:
 496:.\Generated_Source\PSoC4/CyDMA.c ****         }
 497:.\Generated_Source\PSoC4/CyDMA.c ****         channelMask >>= 1;
 537              		.loc 1 497 0
 538 0018 5B08     		lsr	r3, r3, #1
 539              	.LVL30:
 498:.\Generated_Source\PSoC4/CyDMA.c ****         --channel;
 540              		.loc 1 498 0
 541 001a 0138     		sub	r0, r0, #1
 542              	.LVL31:
 543              	.L52:
 489:.\Generated_Source\PSoC4/CyDMA.c ****     {
 544              		.loc 1 489 0
 545 001c 0028     		cmp	r0, #0
 546 001e F3DA     		bge	.L55
 547              	.LVL32:
 548              	.L54:
 499:.\Generated_Source\PSoC4/CyDMA.c ****     }
 500:.\Generated_Source\PSoC4/CyDMA.c ****     return (channel);
 501:.\Generated_Source\PSoC4/CyDMA.c **** }
 549              		.loc 1 501 0
 550              		@ sp needed
 551 0020 7047     		bx	lr
 552              	.L57:
 553 0022 C046     		.align	2
 554              	.L56:
 555 0024 00000000 		.word	.LANCHOR1
 556              		.cfi_endproc
 557              	.LFE18:
 558              		.size	CyDmaChAlloc, .-CyDmaChAlloc
 559              		.section	.text.CyDmaChFree,"ax",%progbits
 560              		.align	2
 561              		.global	CyDmaChFree
 562              		.code	16
 563              		.thumb_func
 564              		.type	CyDmaChFree, %function
 565              	CyDmaChFree:
 566              	.LFB19:
 502:.\Generated_Source\PSoC4/CyDMA.c **** 
 503:.\Generated_Source\PSoC4/CyDMA.c **** 
 504:.\Generated_Source\PSoC4/CyDMA.c **** /*******************************************************************************
 505:.\Generated_Source\PSoC4/CyDMA.c **** * Function Name: CyDmaChFree
 506:.\Generated_Source\PSoC4/CyDMA.c **** ********************************************************************************
 507:.\Generated_Source\PSoC4/CyDMA.c **** *
 508:.\Generated_Source\PSoC4/CyDMA.c **** * Summary:
 509:.\Generated_Source\PSoC4/CyDMA.c **** *  Frees a channel handle allocated by CyDmaChAlloc(). Channels allocated for
 510:.\Generated_Source\PSoC4/CyDMA.c **** *  DMA instances placed on a schematic cannot be freed.
 511:.\Generated_Source\PSoC4/CyDMA.c **** *
 512:.\Generated_Source\PSoC4/CyDMA.c **** * Parameters:
 513:.\Generated_Source\PSoC4/CyDMA.c **** *  channel: The handle previously returned by CyDmaChAlloc().
 514:.\Generated_Source\PSoC4/CyDMA.c **** *                   
 515:.\Generated_Source\PSoC4/CyDMA.c **** * Return:
 516:.\Generated_Source\PSoC4/CyDMA.c **** *  CYRET_SUCCESS if successful.
 517:.\Generated_Source\PSoC4/CyDMA.c **** *  CYRET_BAD_PARAM if channel is invalid.
 518:.\Generated_Source\PSoC4/CyDMA.c **** *
 519:.\Generated_Source\PSoC4/CyDMA.c **** *******************************************************************************/
ARM GAS  C:\Users\Tim\AppData\Local\Temp\ccEK2rHG.s 			page 21


 520:.\Generated_Source\PSoC4/CyDMA.c **** cystatus CyDmaChFree(int32 channel)
 521:.\Generated_Source\PSoC4/CyDMA.c **** {
 567              		.loc 1 521 0
 568              		.cfi_startproc
 569              	.LVL33:
 570 0000 10B5     		push	{r4, lr}
 571              		.cfi_def_cfa_offset 8
 572              		.cfi_offset 4, -8
 573              		.cfi_offset 14, -4
 574 0002 041E     		sub	r4, r0, #0
 575              	.LVL34:
 522:.\Generated_Source\PSoC4/CyDMA.c ****     uint32   channelMask;
 523:.\Generated_Source\PSoC4/CyDMA.c ****     cystatus result = CYRET_BAD_PARAM;
 524:.\Generated_Source\PSoC4/CyDMA.c **** 
 525:.\Generated_Source\PSoC4/CyDMA.c ****     CYASSERT((channel >= 0) && (channel < CYDMA_CH_NR));
 576              		.loc 1 525 0
 577 0004 1F2C     		cmp	r4, #31
 578 0006 02D9     		bls	.L59
 579              		.loc 1 525 0 is_stmt 0 discriminator 1
 580 0008 0020     		mov	r0, #0
 581              	.LVL35:
 582 000a FFF7FEFF 		bl	CyHalt
 583              	.LVL36:
 584              	.L59:
 526:.\Generated_Source\PSoC4/CyDMA.c ****     
 527:.\Generated_Source\PSoC4/CyDMA.c ****     channelMask = (uint32)(1UL << channel);
 585              		.loc 1 527 0 is_stmt 1
 586 000e 0120     		mov	r0, #1
 587 0010 A040     		lsl	r0, r0, r4
 588              	.LVL37:
 528:.\Generated_Source\PSoC4/CyDMA.c **** 
 529:.\Generated_Source\PSoC4/CyDMA.c ****     /* Check against attempt to free channel allocated for DMA instance
 530:.\Generated_Source\PSoC4/CyDMA.c ****     * placed on schematic.
 531:.\Generated_Source\PSoC4/CyDMA.c ****     */
 532:.\Generated_Source\PSoC4/CyDMA.c ****     if(0u == (channelMask & DMA_CHANNELS_USED__MASK))
 533:.\Generated_Source\PSoC4/CyDMA.c ****     {
 534:.\Generated_Source\PSoC4/CyDMA.c ****         CyDmaChannelUsedMask &= (uint32)~channelMask;
 589              		.loc 1 534 0
 590 0012 034A     		ldr	r2, .L60
 591 0014 5368     		ldr	r3, [r2, #4]
 592 0016 8343     		bic	r3, r0
 593 0018 5360     		str	r3, [r2, #4]
 594              	.LVL38:
 535:.\Generated_Source\PSoC4/CyDMA.c ****         result = CYRET_SUCCESS;
 536:.\Generated_Source\PSoC4/CyDMA.c ****     }
 537:.\Generated_Source\PSoC4/CyDMA.c ****     
 538:.\Generated_Source\PSoC4/CyDMA.c ****     return (result);
 539:.\Generated_Source\PSoC4/CyDMA.c **** }
 595              		.loc 1 539 0
 596 001a 0020     		mov	r0, #0
 597              	.LVL39:
 598              		@ sp needed
 599              	.LVL40:
 600 001c 10BD     		pop	{r4, pc}
 601              	.L61:
 602 001e C046     		.align	2
 603              	.L60:
ARM GAS  C:\Users\Tim\AppData\Local\Temp\ccEK2rHG.s 			page 22


 604 0020 00000000 		.word	.LANCHOR1
 605              		.cfi_endproc
 606              	.LFE19:
 607              		.size	CyDmaChFree, .-CyDmaChFree
 608              		.section	.text.CyDmaChEnable,"ax",%progbits
 609              		.align	2
 610              		.global	CyDmaChEnable
 611              		.code	16
 612              		.thumb_func
 613              		.type	CyDmaChEnable, %function
 614              	CyDmaChEnable:
 615              	.LFB20:
 540:.\Generated_Source\PSoC4/CyDMA.c **** 
 541:.\Generated_Source\PSoC4/CyDMA.c **** 
 542:.\Generated_Source\PSoC4/CyDMA.c **** /*******************************************************************************
 543:.\Generated_Source\PSoC4/CyDMA.c **** * Function Name: CyDmaChEnable
 544:.\Generated_Source\PSoC4/CyDMA.c **** ********************************************************************************
 545:.\Generated_Source\PSoC4/CyDMA.c **** *
 546:.\Generated_Source\PSoC4/CyDMA.c **** * Summary:
 547:.\Generated_Source\PSoC4/CyDMA.c **** *  Enables the DMA channel.
 548:.\Generated_Source\PSoC4/CyDMA.c **** *
 549:.\Generated_Source\PSoC4/CyDMA.c **** * Parameters:
 550:.\Generated_Source\PSoC4/CyDMA.c **** *  channel: Channel used by this function.
 551:.\Generated_Source\PSoC4/CyDMA.c **** *                   
 552:.\Generated_Source\PSoC4/CyDMA.c **** * Return:
 553:.\Generated_Source\PSoC4/CyDMA.c **** *  None.
 554:.\Generated_Source\PSoC4/CyDMA.c **** *
 555:.\Generated_Source\PSoC4/CyDMA.c **** * Side effect:
 556:.\Generated_Source\PSoC4/CyDMA.c **** *  If this function is called before CyDmaSetConfiguration(), and
 557:.\Generated_Source\PSoC4/CyDMA.c **** *  CyDmaSetSrcAddress() and CyDmaSetDstAddress(), the operation of
 558:.\Generated_Source\PSoC4/CyDMA.c **** *  the DMA is undefined and could result in system data corruption. 
 559:.\Generated_Source\PSoC4/CyDMA.c **** *
 560:.\Generated_Source\PSoC4/CyDMA.c **** *******************************************************************************/
 561:.\Generated_Source\PSoC4/CyDMA.c **** void CyDmaChEnable(int32 channel)
 562:.\Generated_Source\PSoC4/CyDMA.c **** {
 616              		.loc 1 562 0
 617              		.cfi_startproc
 618              	.LVL41:
 619 0000 10B5     		push	{r4, lr}
 620              		.cfi_def_cfa_offset 8
 621              		.cfi_offset 4, -8
 622              		.cfi_offset 14, -4
 623 0002 041E     		sub	r4, r0, #0
 563:.\Generated_Source\PSoC4/CyDMA.c ****     CYASSERT((channel >= 0) && (channel < CYDMA_CH_NR));
 624              		.loc 1 563 0
 625 0004 1F2C     		cmp	r4, #31
 626 0006 02D9     		bls	.L63
 627              		.loc 1 563 0 is_stmt 0 discriminator 1
 628 0008 0020     		mov	r0, #0
 629              	.LVL42:
 630 000a FFF7FEFF 		bl	CyHalt
 631              	.LVL43:
 632              	.L63:
 564:.\Generated_Source\PSoC4/CyDMA.c **** 
 565:.\Generated_Source\PSoC4/CyDMA.c ****     CYDMA_CH_CTL_BASE.ctl[channel] |= CYDMA_ENABLED;
 633              		.loc 1 565 0 is_stmt 1
 634 000e 044A     		ldr	r2, .L64
ARM GAS  C:\Users\Tim\AppData\Local\Temp\ccEK2rHG.s 			page 23


 635 0010 A400     		lsl	r4, r4, #2
 636              	.LVL44:
 637 0012 A358     		ldr	r3, [r4, r2]
 638 0014 8021     		mov	r1, #128
 639 0016 0906     		lsl	r1, r1, #24
 640 0018 0B43     		orr	r3, r1
 641 001a A350     		str	r3, [r4, r2]
 566:.\Generated_Source\PSoC4/CyDMA.c **** }
 642              		.loc 1 566 0
 643              		@ sp needed
 644 001c 10BD     		pop	{r4, pc}
 645              	.L65:
 646 001e C046     		.align	2
 647              	.L64:
 648 0020 80101040 		.word	1074794624
 649              		.cfi_endproc
 650              	.LFE20:
 651              		.size	CyDmaChEnable, .-CyDmaChEnable
 652              		.section	.text.CyDmaChDisable,"ax",%progbits
 653              		.align	2
 654              		.global	CyDmaChDisable
 655              		.code	16
 656              		.thumb_func
 657              		.type	CyDmaChDisable, %function
 658              	CyDmaChDisable:
 659              	.LFB21:
 567:.\Generated_Source\PSoC4/CyDMA.c **** 
 568:.\Generated_Source\PSoC4/CyDMA.c **** 
 569:.\Generated_Source\PSoC4/CyDMA.c **** /*******************************************************************************
 570:.\Generated_Source\PSoC4/CyDMA.c **** * Function Name: CyDmaChDisable
 571:.\Generated_Source\PSoC4/CyDMA.c **** ********************************************************************************
 572:.\Generated_Source\PSoC4/CyDMA.c **** *
 573:.\Generated_Source\PSoC4/CyDMA.c **** * Summary:
 574:.\Generated_Source\PSoC4/CyDMA.c **** *  Disables the DMA channel.
 575:.\Generated_Source\PSoC4/CyDMA.c **** *
 576:.\Generated_Source\PSoC4/CyDMA.c **** * Parameters:
 577:.\Generated_Source\PSoC4/CyDMA.c **** *  channel: Channel used by this function.
 578:.\Generated_Source\PSoC4/CyDMA.c **** *                   
 579:.\Generated_Source\PSoC4/CyDMA.c **** * Return:
 580:.\Generated_Source\PSoC4/CyDMA.c **** *  None.
 581:.\Generated_Source\PSoC4/CyDMA.c **** *
 582:.\Generated_Source\PSoC4/CyDMA.c **** * Side effect:
 583:.\Generated_Source\PSoC4/CyDMA.c **** *  If this function is called during a DMA transfer the transfer is aborted. 
 584:.\Generated_Source\PSoC4/CyDMA.c **** *
 585:.\Generated_Source\PSoC4/CyDMA.c **** *******************************************************************************/
 586:.\Generated_Source\PSoC4/CyDMA.c **** void CyDmaChDisable(int32 channel)
 587:.\Generated_Source\PSoC4/CyDMA.c **** {
 660              		.loc 1 587 0
 661              		.cfi_startproc
 662              	.LVL45:
 663 0000 10B5     		push	{r4, lr}
 664              		.cfi_def_cfa_offset 8
 665              		.cfi_offset 4, -8
 666              		.cfi_offset 14, -4
 667 0002 041E     		sub	r4, r0, #0
 588:.\Generated_Source\PSoC4/CyDMA.c ****     CYASSERT((channel >= 0) && (channel < CYDMA_CH_NR));
 668              		.loc 1 588 0
ARM GAS  C:\Users\Tim\AppData\Local\Temp\ccEK2rHG.s 			page 24


 669 0004 1F2C     		cmp	r4, #31
 670 0006 02D9     		bls	.L67
 671              		.loc 1 588 0 is_stmt 0 discriminator 1
 672 0008 0020     		mov	r0, #0
 673              	.LVL46:
 674 000a FFF7FEFF 		bl	CyHalt
 675              	.LVL47:
 676              	.L67:
 589:.\Generated_Source\PSoC4/CyDMA.c **** 
 590:.\Generated_Source\PSoC4/CyDMA.c ****     CYDMA_CH_CTL_BASE.ctl[channel] &= (uint32)~CYDMA_ENABLED;
 677              		.loc 1 590 0 is_stmt 1
 678 000e 034A     		ldr	r2, .L68
 679 0010 A400     		lsl	r4, r4, #2
 680              	.LVL48:
 681 0012 A358     		ldr	r3, [r4, r2]
 682 0014 5B00     		lsl	r3, r3, #1
 683 0016 5B08     		lsr	r3, r3, #1
 684 0018 A350     		str	r3, [r4, r2]
 591:.\Generated_Source\PSoC4/CyDMA.c **** }
 685              		.loc 1 591 0
 686              		@ sp needed
 687 001a 10BD     		pop	{r4, pc}
 688              	.L69:
 689              		.align	2
 690              	.L68:
 691 001c 80101040 		.word	1074794624
 692              		.cfi_endproc
 693              	.LFE21:
 694              		.size	CyDmaChDisable, .-CyDmaChDisable
 695              		.section	.text.CyDmaTrigger,"ax",%progbits
 696              		.align	2
 697              		.global	CyDmaTrigger
 698              		.code	16
 699              		.thumb_func
 700              		.type	CyDmaTrigger, %function
 701              	CyDmaTrigger:
 702              	.LFB22:
 592:.\Generated_Source\PSoC4/CyDMA.c **** 
 593:.\Generated_Source\PSoC4/CyDMA.c **** 
 594:.\Generated_Source\PSoC4/CyDMA.c **** /*******************************************************************************
 595:.\Generated_Source\PSoC4/CyDMA.c **** * Function Name: CyDmaTrigger
 596:.\Generated_Source\PSoC4/CyDMA.c **** ********************************************************************************
 597:.\Generated_Source\PSoC4/CyDMA.c **** *
 598:.\Generated_Source\PSoC4/CyDMA.c **** * Summary:
 599:.\Generated_Source\PSoC4/CyDMA.c **** *  Triggers the DMA channel, this is useful only for software triggers. This is
 600:.\Generated_Source\PSoC4/CyDMA.c **** *  not needed when hardware triggers are used.
 601:.\Generated_Source\PSoC4/CyDMA.c **** *
 602:.\Generated_Source\PSoC4/CyDMA.c **** * Parameters:
 603:.\Generated_Source\PSoC4/CyDMA.c **** *  channel: Channel used by this function.
 604:.\Generated_Source\PSoC4/CyDMA.c **** *                   
 605:.\Generated_Source\PSoC4/CyDMA.c **** * Return:
 606:.\Generated_Source\PSoC4/CyDMA.c **** *  None. 
 607:.\Generated_Source\PSoC4/CyDMA.c **** *
 608:.\Generated_Source\PSoC4/CyDMA.c **** *******************************************************************************/
 609:.\Generated_Source\PSoC4/CyDMA.c **** void CyDmaTrigger(int32 channel)
 610:.\Generated_Source\PSoC4/CyDMA.c **** {
 703              		.loc 1 610 0
ARM GAS  C:\Users\Tim\AppData\Local\Temp\ccEK2rHG.s 			page 25


 704              		.cfi_startproc
 705              	.LVL49:
 706 0000 10B5     		push	{r4, lr}
 707              		.cfi_def_cfa_offset 8
 708              		.cfi_offset 4, -8
 709              		.cfi_offset 14, -4
 710 0002 041E     		sub	r4, r0, #0
 611:.\Generated_Source\PSoC4/CyDMA.c ****     /* The LUT is device-dependent, thus it is generated during the build process. */
 612:.\Generated_Source\PSoC4/CyDMA.c ****     static const uint32 trCtlLut[] = {0xC0020000U, 0xC0020100U, 0xC0020200U, 0xC0020208U};
 613:.\Generated_Source\PSoC4/CyDMA.c **** 
 614:.\Generated_Source\PSoC4/CyDMA.c ****     CYASSERT((channel >= 0) && (channel < CYDMA_CH_NR));
 711              		.loc 1 614 0
 712 0004 1F2C     		cmp	r4, #31
 713 0006 02D9     		bls	.L71
 714              		.loc 1 614 0 is_stmt 0 discriminator 1
 715 0008 0020     		mov	r0, #0
 716              	.LVL50:
 717 000a FFF7FEFF 		bl	CyHalt
 718              	.LVL51:
 719              	.L71:
 615:.\Generated_Source\PSoC4/CyDMA.c **** 
 616:.\Generated_Source\PSoC4/CyDMA.c ****     CYDMA_TR_CTL_REG = trCtlLut[(uint32)channel >> CYDMA_TR_GROUP_SHR] | ((uint32)channel & CYDMA_T
 720              		.loc 1 616 0 is_stmt 1
 721 000e E308     		lsr	r3, r4, #3
 722 0010 9B00     		lsl	r3, r3, #2
 723 0012 044A     		ldr	r2, .L72
 724 0014 9B58     		ldr	r3, [r3, r2]
 725 0016 0722     		mov	r2, #7
 726 0018 1440     		and	r4, r2
 727              	.LVL52:
 728 001a 1C43     		orr	r4, r3
 729 001c 024B     		ldr	r3, .L72+4
 730 001e 1C60     		str	r4, [r3]
 617:.\Generated_Source\PSoC4/CyDMA.c **** }
 731              		.loc 1 617 0
 732              		@ sp needed
 733 0020 10BD     		pop	{r4, pc}
 734              	.L73:
 735 0022 C046     		.align	2
 736              	.L72:
 737 0024 00000000 		.word	.LANCHOR2
 738 0028 00060140 		.word	1073808896
 739              		.cfi_endproc
 740              	.LFE22:
 741              		.size	CyDmaTrigger, .-CyDmaTrigger
 742              		.section	.text.CyDmaSetPriority,"ax",%progbits
 743              		.align	2
 744              		.global	CyDmaSetPriority
 745              		.code	16
 746              		.thumb_func
 747              		.type	CyDmaSetPriority, %function
 748              	CyDmaSetPriority:
 749              	.LFB23:
 618:.\Generated_Source\PSoC4/CyDMA.c **** 
 619:.\Generated_Source\PSoC4/CyDMA.c **** 
 620:.\Generated_Source\PSoC4/CyDMA.c **** /*******************************************************************************
 621:.\Generated_Source\PSoC4/CyDMA.c **** * Function Name: CyDmaSetPriority
ARM GAS  C:\Users\Tim\AppData\Local\Temp\ccEK2rHG.s 			page 26


 622:.\Generated_Source\PSoC4/CyDMA.c **** ********************************************************************************
 623:.\Generated_Source\PSoC4/CyDMA.c **** *
 624:.\Generated_Source\PSoC4/CyDMA.c **** * Summary:
 625:.\Generated_Source\PSoC4/CyDMA.c **** *  Sets the priority for the channel.
 626:.\Generated_Source\PSoC4/CyDMA.c **** *
 627:.\Generated_Source\PSoC4/CyDMA.c **** * Parameters:
 628:.\Generated_Source\PSoC4/CyDMA.c **** *  channel:  Channel used by this function
 629:.\Generated_Source\PSoC4/CyDMA.c **** *  priority: Priority for channel. Priority can be 0,1,2, or 3.
 630:.\Generated_Source\PSoC4/CyDMA.c **** *            0 is the highest priority.
 631:.\Generated_Source\PSoC4/CyDMA.c **** *                   
 632:.\Generated_Source\PSoC4/CyDMA.c **** * Return:
 633:.\Generated_Source\PSoC4/CyDMA.c **** *  None.
 634:.\Generated_Source\PSoC4/CyDMA.c **** *
 635:.\Generated_Source\PSoC4/CyDMA.c **** * Side effect:
 636:.\Generated_Source\PSoC4/CyDMA.c **** *  This function should not be called while the channel is enabled.
 637:.\Generated_Source\PSoC4/CyDMA.c **** *
 638:.\Generated_Source\PSoC4/CyDMA.c **** *******************************************************************************/
 639:.\Generated_Source\PSoC4/CyDMA.c **** void CyDmaSetPriority(int32 channel, int32 priority)
 640:.\Generated_Source\PSoC4/CyDMA.c **** {
 750              		.loc 1 640 0
 751              		.cfi_startproc
 752              	.LVL53:
 753 0000 38B5     		push	{r3, r4, r5, lr}
 754              		.cfi_def_cfa_offset 16
 755              		.cfi_offset 3, -16
 756              		.cfi_offset 4, -12
 757              		.cfi_offset 5, -8
 758              		.cfi_offset 14, -4
 759 0002 041C     		mov	r4, r0
 760 0004 0D1C     		mov	r5, r1
 641:.\Generated_Source\PSoC4/CyDMA.c ****     uint32 regValue;
 642:.\Generated_Source\PSoC4/CyDMA.c **** 
 643:.\Generated_Source\PSoC4/CyDMA.c ****     CYASSERT((channel  >= 0) && (channel  <  CYDMA_CH_NR));
 761              		.loc 1 643 0
 762 0006 1F28     		cmp	r0, #31
 763 0008 02D9     		bls	.L75
 764              		.loc 1 643 0 is_stmt 0 discriminator 1
 765 000a 0020     		mov	r0, #0
 766              	.LVL54:
 767 000c FFF7FEFF 		bl	CyHalt
 768              	.LVL55:
 769              	.L75:
 644:.\Generated_Source\PSoC4/CyDMA.c ****     CYASSERT((priority >= 0) && (priority <= CY_DMA_MAX_PRIO));
 770              		.loc 1 644 0 is_stmt 1
 771 0010 032D     		cmp	r5, #3
 772 0012 02D9     		bls	.L76
 773              		.loc 1 644 0 is_stmt 0 discriminator 1
 774 0014 0020     		mov	r0, #0
 775 0016 FFF7FEFF 		bl	CyHalt
 776              	.LVL56:
 777              	.L76:
 645:.\Generated_Source\PSoC4/CyDMA.c **** 
 646:.\Generated_Source\PSoC4/CyDMA.c ****     regValue = CYDMA_CH_CTL_BASE.ctl[channel] & (uint32)~CYDMA_PRIO;
 778              		.loc 1 646 0 is_stmt 1
 779 001a 044A     		ldr	r2, .L77
 780 001c A400     		lsl	r4, r4, #2
 781              	.LVL57:
ARM GAS  C:\Users\Tim\AppData\Local\Temp\ccEK2rHG.s 			page 27


 782 001e A158     		ldr	r1, [r4, r2]
 783 0020 034B     		ldr	r3, .L77+4
 784 0022 0B40     		and	r3, r1
 785              	.LVL58:
 647:.\Generated_Source\PSoC4/CyDMA.c ****     CYDMA_CH_CTL_BASE.ctl[channel] = regValue | (uint32)((uint32)priority << CYDMA_PRIO_POS);
 786              		.loc 1 647 0
 787 0024 2907     		lsl	r1, r5, #28
 788 0026 1943     		orr	r1, r3
 789 0028 A150     		str	r1, [r4, r2]
 648:.\Generated_Source\PSoC4/CyDMA.c **** }
 790              		.loc 1 648 0
 791              		@ sp needed
 792              	.LVL59:
 793 002a 38BD     		pop	{r3, r4, r5, pc}
 794              	.L78:
 795              		.align	2
 796              	.L77:
 797 002c 80101040 		.word	1074794624
 798 0030 FFFFFFCF 		.word	-805306369
 799              		.cfi_endproc
 800              	.LFE23:
 801              		.size	CyDmaSetPriority, .-CyDmaSetPriority
 802              		.section	.text.CyDmaGetPriority,"ax",%progbits
 803              		.align	2
 804              		.global	CyDmaGetPriority
 805              		.code	16
 806              		.thumb_func
 807              		.type	CyDmaGetPriority, %function
 808              	CyDmaGetPriority:
 809              	.LFB24:
 649:.\Generated_Source\PSoC4/CyDMA.c **** 
 650:.\Generated_Source\PSoC4/CyDMA.c **** 
 651:.\Generated_Source\PSoC4/CyDMA.c **** /*******************************************************************************
 652:.\Generated_Source\PSoC4/CyDMA.c **** * Function Name: CyDmaGetPriority
 653:.\Generated_Source\PSoC4/CyDMA.c **** ********************************************************************************
 654:.\Generated_Source\PSoC4/CyDMA.c **** *
 655:.\Generated_Source\PSoC4/CyDMA.c **** * Summary:
 656:.\Generated_Source\PSoC4/CyDMA.c **** *  Gets the priority for the channel.
 657:.\Generated_Source\PSoC4/CyDMA.c **** *
 658:.\Generated_Source\PSoC4/CyDMA.c **** * Parameters:
 659:.\Generated_Source\PSoC4/CyDMA.c **** *  channel: Channel used by this function.
 660:.\Generated_Source\PSoC4/CyDMA.c **** *                   
 661:.\Generated_Source\PSoC4/CyDMA.c **** * Return:
 662:.\Generated_Source\PSoC4/CyDMA.c **** *  Priority for channel. Priority can be 0,1,2, or 3. 0 is the highest priority.
 663:.\Generated_Source\PSoC4/CyDMA.c **** *
 664:.\Generated_Source\PSoC4/CyDMA.c **** *******************************************************************************/
 665:.\Generated_Source\PSoC4/CyDMA.c **** int32 CyDmaGetPriority(int32 channel)
 666:.\Generated_Source\PSoC4/CyDMA.c **** {
 810              		.loc 1 666 0
 811              		.cfi_startproc
 812              	.LVL60:
 813 0000 10B5     		push	{r4, lr}
 814              		.cfi_def_cfa_offset 8
 815              		.cfi_offset 4, -8
 816              		.cfi_offset 14, -4
 817 0002 041E     		sub	r4, r0, #0
 667:.\Generated_Source\PSoC4/CyDMA.c ****     uint32 priority;
ARM GAS  C:\Users\Tim\AppData\Local\Temp\ccEK2rHG.s 			page 28


 668:.\Generated_Source\PSoC4/CyDMA.c **** 
 669:.\Generated_Source\PSoC4/CyDMA.c ****     CYASSERT((channel >= 0) && (channel < CYDMA_CH_NR));
 818              		.loc 1 669 0
 819 0004 1F2C     		cmp	r4, #31
 820 0006 02D9     		bls	.L80
 821              		.loc 1 669 0 is_stmt 0 discriminator 1
 822 0008 0020     		mov	r0, #0
 823              	.LVL61:
 824 000a FFF7FEFF 		bl	CyHalt
 825              	.LVL62:
 826              	.L80:
 670:.\Generated_Source\PSoC4/CyDMA.c **** 
 671:.\Generated_Source\PSoC4/CyDMA.c ****     priority = (CYDMA_CH_CTL_BASE.ctl[channel] & CYDMA_PRIO) >> CYDMA_PRIO_POS;
 827              		.loc 1 671 0 is_stmt 1
 828 000e A400     		lsl	r4, r4, #2
 829              	.LVL63:
 830 0010 024B     		ldr	r3, .L81
 831 0012 E058     		ldr	r0, [r4, r3]
 832 0014 8000     		lsl	r0, r0, #2
 833 0016 800F     		lsr	r0, r0, #30
 834              	.LVL64:
 672:.\Generated_Source\PSoC4/CyDMA.c ****     return ((int32)priority);
 673:.\Generated_Source\PSoC4/CyDMA.c **** }
 835              		.loc 1 673 0
 836              		@ sp needed
 837 0018 10BD     		pop	{r4, pc}
 838              	.L82:
 839 001a C046     		.align	2
 840              	.L81:
 841 001c 80101040 		.word	1074794624
 842              		.cfi_endproc
 843              	.LFE24:
 844              		.size	CyDmaGetPriority, .-CyDmaGetPriority
 845              		.section	.text.CyDmaSetNextDescriptor,"ax",%progbits
 846              		.align	2
 847              		.global	CyDmaSetNextDescriptor
 848              		.code	16
 849              		.thumb_func
 850              		.type	CyDmaSetNextDescriptor, %function
 851              	CyDmaSetNextDescriptor:
 852              	.LFB25:
 674:.\Generated_Source\PSoC4/CyDMA.c **** 
 675:.\Generated_Source\PSoC4/CyDMA.c **** 
 676:.\Generated_Source\PSoC4/CyDMA.c **** /*******************************************************************************
 677:.\Generated_Source\PSoC4/CyDMA.c **** * Function Name: CyDmaSetNextDescriptor
 678:.\Generated_Source\PSoC4/CyDMA.c **** ********************************************************************************
 679:.\Generated_Source\PSoC4/CyDMA.c **** *
 680:.\Generated_Source\PSoC4/CyDMA.c **** * Summary:
 681:.\Generated_Source\PSoC4/CyDMA.c **** *  Sets the descriptor that should be run the next time the channel is
 682:.\Generated_Source\PSoC4/CyDMA.c **** *  triggered.
 683:.\Generated_Source\PSoC4/CyDMA.c **** *
 684:.\Generated_Source\PSoC4/CyDMA.c **** * Parameters:
 685:.\Generated_Source\PSoC4/CyDMA.c **** *  channel:    Channel used by this function.
 686:.\Generated_Source\PSoC4/CyDMA.c **** *  descriptor: Next Descriptor to run (0 or 1).
 687:.\Generated_Source\PSoC4/CyDMA.c **** *
 688:.\Generated_Source\PSoC4/CyDMA.c **** * Return:
 689:.\Generated_Source\PSoC4/CyDMA.c **** *  None.
ARM GAS  C:\Users\Tim\AppData\Local\Temp\ccEK2rHG.s 			page 29


 690:.\Generated_Source\PSoC4/CyDMA.c **** *                   
 691:.\Generated_Source\PSoC4/CyDMA.c **** * Side effect:
 692:.\Generated_Source\PSoC4/CyDMA.c **** *  This function should not be called while the channel is enabled.
 693:.\Generated_Source\PSoC4/CyDMA.c **** *
 694:.\Generated_Source\PSoC4/CyDMA.c **** *******************************************************************************/
 695:.\Generated_Source\PSoC4/CyDMA.c **** void CyDmaSetNextDescriptor(int32 channel, int32 descriptor)
 696:.\Generated_Source\PSoC4/CyDMA.c **** {
 853              		.loc 1 696 0
 854              		.cfi_startproc
 855              	.LVL65:
 856 0000 38B5     		push	{r3, r4, r5, lr}
 857              		.cfi_def_cfa_offset 16
 858              		.cfi_offset 3, -16
 859              		.cfi_offset 4, -12
 860              		.cfi_offset 5, -8
 861              		.cfi_offset 14, -4
 862 0002 041C     		mov	r4, r0
 863 0004 0D1C     		mov	r5, r1
 697:.\Generated_Source\PSoC4/CyDMA.c ****     uint32 regValue;
 698:.\Generated_Source\PSoC4/CyDMA.c **** 
 699:.\Generated_Source\PSoC4/CyDMA.c ****     CYASSERT((channel    >= 0) && (channel    < CYDMA_CH_NR));
 864              		.loc 1 699 0
 865 0006 1F28     		cmp	r0, #31
 866 0008 02D9     		bls	.L84
 867              		.loc 1 699 0 is_stmt 0 discriminator 1
 868 000a 0020     		mov	r0, #0
 869              	.LVL66:
 870 000c FFF7FEFF 		bl	CyHalt
 871              	.LVL67:
 872              	.L84:
 700:.\Generated_Source\PSoC4/CyDMA.c ****     CYASSERT((descriptor >= 0) && (descriptor < CYDMA_DESCR_NR));
 873              		.loc 1 700 0 is_stmt 1
 874 0010 012D     		cmp	r5, #1
 875 0012 02D9     		bls	.L85
 876              		.loc 1 700 0 is_stmt 0 discriminator 1
 877 0014 0020     		mov	r0, #0
 878 0016 FFF7FEFF 		bl	CyHalt
 879              	.LVL68:
 880              	.L85:
 701:.\Generated_Source\PSoC4/CyDMA.c **** 
 702:.\Generated_Source\PSoC4/CyDMA.c ****     regValue = CYDMA_CH_CTL_BASE.ctl[channel] & (uint32)~CYDMA_DESCRIPTOR;
 881              		.loc 1 702 0 is_stmt 1
 882 001a 044A     		ldr	r2, .L86
 883 001c A400     		lsl	r4, r4, #2
 884              	.LVL69:
 885 001e A158     		ldr	r1, [r4, r2]
 886 0020 034B     		ldr	r3, .L86+4
 887 0022 0B40     		and	r3, r1
 888              	.LVL70:
 703:.\Generated_Source\PSoC4/CyDMA.c ****     CYDMA_CH_CTL_BASE.ctl[channel] = regValue | (uint32)((uint32)descriptor << CYDMA_DESCRIPTOR_POS
 889              		.loc 1 703 0
 890 0024 A907     		lsl	r1, r5, #30
 891 0026 1943     		orr	r1, r3
 892 0028 A150     		str	r1, [r4, r2]
 704:.\Generated_Source\PSoC4/CyDMA.c **** }
 893              		.loc 1 704 0
 894              		@ sp needed
ARM GAS  C:\Users\Tim\AppData\Local\Temp\ccEK2rHG.s 			page 30


 895              	.LVL71:
 896 002a 38BD     		pop	{r3, r4, r5, pc}
 897              	.L87:
 898              		.align	2
 899              	.L86:
 900 002c 80101040 		.word	1074794624
 901 0030 FFFFFFBF 		.word	-1073741825
 902              		.cfi_endproc
 903              	.LFE25:
 904              		.size	CyDmaSetNextDescriptor, .-CyDmaSetNextDescriptor
 905              		.section	.text.CyDmaGetNextDescriptor,"ax",%progbits
 906              		.align	2
 907              		.global	CyDmaGetNextDescriptor
 908              		.code	16
 909              		.thumb_func
 910              		.type	CyDmaGetNextDescriptor, %function
 911              	CyDmaGetNextDescriptor:
 912              	.LFB26:
 705:.\Generated_Source\PSoC4/CyDMA.c **** 
 706:.\Generated_Source\PSoC4/CyDMA.c **** 
 707:.\Generated_Source\PSoC4/CyDMA.c **** /*******************************************************************************
 708:.\Generated_Source\PSoC4/CyDMA.c **** * Function Name: CyDmaGetNextDescriptor
 709:.\Generated_Source\PSoC4/CyDMA.c **** ********************************************************************************
 710:.\Generated_Source\PSoC4/CyDMA.c **** *
 711:.\Generated_Source\PSoC4/CyDMA.c **** * Summary:
 712:.\Generated_Source\PSoC4/CyDMA.c **** *  Returns the next descriptor that should be run, as set by 
 713:.\Generated_Source\PSoC4/CyDMA.c **** *  CyDmaSetNextDescriptor().
 714:.\Generated_Source\PSoC4/CyDMA.c **** *
 715:.\Generated_Source\PSoC4/CyDMA.c **** * Parameters:
 716:.\Generated_Source\PSoC4/CyDMA.c **** *  channel: channel used by this function.
 717:.\Generated_Source\PSoC4/CyDMA.c **** *                   
 718:.\Generated_Source\PSoC4/CyDMA.c **** * Return:
 719:.\Generated_Source\PSoC4/CyDMA.c **** *  Next Descriptor to run (0 or 1).
 720:.\Generated_Source\PSoC4/CyDMA.c **** *
 721:.\Generated_Source\PSoC4/CyDMA.c **** *******************************************************************************/
 722:.\Generated_Source\PSoC4/CyDMA.c **** int32 CyDmaGetNextDescriptor(int32 channel)
 723:.\Generated_Source\PSoC4/CyDMA.c **** {
 913              		.loc 1 723 0
 914              		.cfi_startproc
 915              	.LVL72:
 916 0000 10B5     		push	{r4, lr}
 917              		.cfi_def_cfa_offset 8
 918              		.cfi_offset 4, -8
 919              		.cfi_offset 14, -4
 920 0002 041E     		sub	r4, r0, #0
 724:.\Generated_Source\PSoC4/CyDMA.c ****     uint32 nextDescriptor;
 725:.\Generated_Source\PSoC4/CyDMA.c **** 
 726:.\Generated_Source\PSoC4/CyDMA.c ****     CYASSERT((channel >= 0) && (channel < CYDMA_CH_NR));
 921              		.loc 1 726 0
 922 0004 1F2C     		cmp	r4, #31
 923 0006 02D9     		bls	.L89
 924              		.loc 1 726 0 is_stmt 0 discriminator 1
 925 0008 0020     		mov	r0, #0
 926              	.LVL73:
 927 000a FFF7FEFF 		bl	CyHalt
 928              	.LVL74:
 929              	.L89:
ARM GAS  C:\Users\Tim\AppData\Local\Temp\ccEK2rHG.s 			page 31


 727:.\Generated_Source\PSoC4/CyDMA.c **** 
 728:.\Generated_Source\PSoC4/CyDMA.c ****     nextDescriptor = (CYDMA_CH_CTL_BASE.ctl[channel] & CYDMA_DESCRIPTOR) >> CYDMA_DESCRIPTOR_POS;
 930              		.loc 1 728 0 is_stmt 1
 931 000e A400     		lsl	r4, r4, #2
 932              	.LVL75:
 933 0010 024B     		ldr	r3, .L90
 934 0012 E058     		ldr	r0, [r4, r3]
 935 0014 4000     		lsl	r0, r0, #1
 936 0016 C00F     		lsr	r0, r0, #31
 937              	.LVL76:
 729:.\Generated_Source\PSoC4/CyDMA.c ****     return ((int32)nextDescriptor);
 730:.\Generated_Source\PSoC4/CyDMA.c **** }
 938              		.loc 1 730 0
 939              		@ sp needed
 940 0018 10BD     		pop	{r4, pc}
 941              	.L91:
 942 001a C046     		.align	2
 943              	.L90:
 944 001c 80101040 		.word	1074794624
 945              		.cfi_endproc
 946              	.LFE26:
 947              		.size	CyDmaGetNextDescriptor, .-CyDmaGetNextDescriptor
 948              		.section	.text.CyDmaSetConfiguration,"ax",%progbits
 949              		.align	2
 950              		.global	CyDmaSetConfiguration
 951              		.code	16
 952              		.thumb_func
 953              		.type	CyDmaSetConfiguration, %function
 954              	CyDmaSetConfiguration:
 955              	.LFB27:
 731:.\Generated_Source\PSoC4/CyDMA.c **** 
 732:.\Generated_Source\PSoC4/CyDMA.c **** 
 733:.\Generated_Source\PSoC4/CyDMA.c **** /*******************************************************************************
 734:.\Generated_Source\PSoC4/CyDMA.c **** * Function Name: CyDmaSetConfiguration
 735:.\Generated_Source\PSoC4/CyDMA.c **** ********************************************************************************
 736:.\Generated_Source\PSoC4/CyDMA.c **** *
 737:.\Generated_Source\PSoC4/CyDMA.c **** * Summary:
 738:.\Generated_Source\PSoC4/CyDMA.c **** *  Sets configuration information for the specified descriptor.
 739:.\Generated_Source\PSoC4/CyDMA.c **** *
 740:.\Generated_Source\PSoC4/CyDMA.c **** * Parameters:
 741:.\Generated_Source\PSoC4/CyDMA.c **** *  channel:    DMA channel modified by this function.
 742:.\Generated_Source\PSoC4/CyDMA.c **** *  descriptor: Descriptor (0 or 1) modified by this function.
 743:.\Generated_Source\PSoC4/CyDMA.c **** *  config:     Pointer to a configuration structure. Refer to cydma_init_struct
 744:.\Generated_Source\PSoC4/CyDMA.c **** *              structure definition in CyDMA_P4.h and/or DMA channel datasheet
 745:.\Generated_Source\PSoC4/CyDMA.c **** *              for more information.
 746:.\Generated_Source\PSoC4/CyDMA.c **** *                   
 747:.\Generated_Source\PSoC4/CyDMA.c **** * Return:
 748:.\Generated_Source\PSoC4/CyDMA.c **** *  None.
 749:.\Generated_Source\PSoC4/CyDMA.c **** *
 750:.\Generated_Source\PSoC4/CyDMA.c **** * Side effect:
 751:.\Generated_Source\PSoC4/CyDMA.c **** *  The status register associated with the specified descriptor is reset to
 752:.\Generated_Source\PSoC4/CyDMA.c **** *  zero after this function call. This function also validates the descriptor.
 753:.\Generated_Source\PSoC4/CyDMA.c **** *  This function should not be called while the descriptor is active.
 754:.\Generated_Source\PSoC4/CyDMA.c **** *  This can be checked by calling CyDmaGetStatus().
 755:.\Generated_Source\PSoC4/CyDMA.c **** *
 756:.\Generated_Source\PSoC4/CyDMA.c **** *******************************************************************************/
 757:.\Generated_Source\PSoC4/CyDMA.c **** void CyDmaSetConfiguration(int32 channel, int32 descriptor, const cydma_init_struct * config)
ARM GAS  C:\Users\Tim\AppData\Local\Temp\ccEK2rHG.s 			page 32


 758:.\Generated_Source\PSoC4/CyDMA.c **** {  
 956              		.loc 1 758 0
 957              		.cfi_startproc
 958              	.LVL77:
 959 0000 70B5     		push	{r4, r5, r6, lr}
 960              		.cfi_def_cfa_offset 16
 961              		.cfi_offset 4, -16
 962              		.cfi_offset 5, -12
 963              		.cfi_offset 6, -8
 964              		.cfi_offset 14, -4
 965 0002 061C     		mov	r6, r0
 966 0004 0D1C     		mov	r5, r1
 967 0006 141C     		mov	r4, r2
 759:.\Generated_Source\PSoC4/CyDMA.c ****     CYASSERT((channel        >= 0) && (channel         < CYDMA_CH_NR));
 968              		.loc 1 759 0
 969 0008 1F28     		cmp	r0, #31
 970 000a 02D9     		bls	.L93
 971              		.loc 1 759 0 is_stmt 0 discriminator 1
 972 000c 0020     		mov	r0, #0
 973              	.LVL78:
 974 000e FFF7FEFF 		bl	CyHalt
 975              	.LVL79:
 976              	.L93:
 760:.\Generated_Source\PSoC4/CyDMA.c ****     CYASSERT((descriptor     >= 0) && (descriptor      < CYDMA_DESCR_NR));
 977              		.loc 1 760 0 is_stmt 1
 978 0012 012D     		cmp	r5, #1
 979 0014 02D9     		bls	.L94
 980              		.loc 1 760 0 is_stmt 0 discriminator 1
 981 0016 0020     		mov	r0, #0
 982 0018 FFF7FEFF 		bl	CyHalt
 983              	.LVL80:
 984              	.L94:
 761:.\Generated_Source\PSoC4/CyDMA.c **** 
 762:.\Generated_Source\PSoC4/CyDMA.c ****     CYASSERT(0u == (config->dataElementSize     & (uint32)~CYDMA_DATA_SIZE));   
 985              		.loc 1 762 0 is_stmt 1
 986 001c 294B     		ldr	r3, .L103
 987 001e 2268     		ldr	r2, [r4]
 988 0020 1A42     		tst	r2, r3
 989 0022 02D0     		beq	.L95
 990              		.loc 1 762 0 is_stmt 0 discriminator 1
 991 0024 0020     		mov	r0, #0
 992 0026 FFF7FEFF 		bl	CyHalt
 993              	.LVL81:
 994              	.L95:
 763:.\Generated_Source\PSoC4/CyDMA.c ****     CYASSERT((config->numDataElements > 0)     && (config->numDataElements <= CYDMA_MAX_DATA_NR));
 995              		.loc 1 763 0 is_stmt 1
 996 002a 6368     		ldr	r3, [r4, #4]
 997 002c 013B     		sub	r3, r3, #1
 998 002e 264A     		ldr	r2, .L103+4
 999 0030 9342     		cmp	r3, r2
 1000 0032 02D9     		bls	.L96
 1001              		.loc 1 763 0 is_stmt 0 discriminator 1
 1002 0034 0020     		mov	r0, #0
 1003 0036 FFF7FEFF 		bl	CyHalt
 1004              	.LVL82:
 1005              	.L96:
 764:.\Generated_Source\PSoC4/CyDMA.c ****     CYASSERT(0u == (config->srcDstTransferWidth & (uint32)~CYDMA_TRANSFER_WIDTH));
ARM GAS  C:\Users\Tim\AppData\Local\Temp\ccEK2rHG.s 			page 33


 1006              		.loc 1 764 0 is_stmt 1
 1007 003a 244B     		ldr	r3, .L103+8
 1008 003c A268     		ldr	r2, [r4, #8]
 1009 003e 1A42     		tst	r2, r3
 1010 0040 02D0     		beq	.L97
 1011              		.loc 1 764 0 is_stmt 0 discriminator 1
 1012 0042 0020     		mov	r0, #0
 1013 0044 FFF7FEFF 		bl	CyHalt
 1014              	.LVL83:
 1015              	.L97:
 765:.\Generated_Source\PSoC4/CyDMA.c ****     CYASSERT(0u == (config->addressIncrement    & (uint32)~CYDMA_ADDR_INCR));
 1016              		.loc 1 765 0 is_stmt 1
 1017 0048 214B     		ldr	r3, .L103+12
 1018 004a E268     		ldr	r2, [r4, #12]
 1019 004c 1A42     		tst	r2, r3
 1020 004e 02D0     		beq	.L98
 1021              		.loc 1 765 0 is_stmt 0 discriminator 1
 1022 0050 0020     		mov	r0, #0
 1023 0052 FFF7FEFF 		bl	CyHalt
 1024              	.LVL84:
 1025              	.L98:
 766:.\Generated_Source\PSoC4/CyDMA.c ****     CYASSERT(0u == (config->triggerType         & (uint32)~CYDMA_TRIGGER_TYPE));
 1026              		.loc 1 766 0 is_stmt 1
 1027 0056 1F4B     		ldr	r3, .L103+16
 1028 0058 2269     		ldr	r2, [r4, #16]
 1029 005a 1A42     		tst	r2, r3
 1030 005c 02D0     		beq	.L99
 1031              		.loc 1 766 0 is_stmt 0 discriminator 1
 1032 005e 0020     		mov	r0, #0
 1033 0060 FFF7FEFF 		bl	CyHalt
 1034              	.LVL85:
 1035              	.L99:
 767:.\Generated_Source\PSoC4/CyDMA.c ****     CYASSERT(0u == (config->transferMode        & (uint32)~CYDMA_TRANSFER_MODE));
 1036              		.loc 1 767 0 is_stmt 1
 1037 0064 6369     		ldr	r3, [r4, #20]
 1038 0066 9B00     		lsl	r3, r3, #2
 1039 0068 02D0     		beq	.L100
 1040              		.loc 1 767 0 is_stmt 0 discriminator 1
 1041 006a 0020     		mov	r0, #0
 1042 006c FFF7FEFF 		bl	CyHalt
 1043              	.LVL86:
 1044              	.L100:
 768:.\Generated_Source\PSoC4/CyDMA.c ****     CYASSERT(0u == (config->preemptable         & (uint32)~CYDMA_PREEMPTABLE));
 1045              		.loc 1 768 0 is_stmt 1
 1046 0070 194B     		ldr	r3, .L103+20
 1047 0072 A269     		ldr	r2, [r4, #24]
 1048 0074 1A42     		tst	r2, r3
 1049 0076 02D0     		beq	.L101
 1050              		.loc 1 768 0 is_stmt 0 discriminator 1
 1051 0078 0020     		mov	r0, #0
 1052 007a FFF7FEFF 		bl	CyHalt
 1053              	.LVL87:
 1054              	.L101:
 769:.\Generated_Source\PSoC4/CyDMA.c ****     CYASSERT(0u == (config->actions             & (uint32)~CYDMA_POST_COMPLETE_ACTIONS));
 1055              		.loc 1 769 0 is_stmt 1
 1056 007e 174B     		ldr	r3, .L103+24
 1057 0080 E269     		ldr	r2, [r4, #28]
ARM GAS  C:\Users\Tim\AppData\Local\Temp\ccEK2rHG.s 			page 34


 1058 0082 1A42     		tst	r2, r3
 1059 0084 02D0     		beq	.L102
 1060              		.loc 1 769 0 is_stmt 0 discriminator 1
 1061 0086 0020     		mov	r0, #0
 1062 0088 FFF7FEFF 		bl	CyHalt
 1063              	.LVL88:
 1064              	.L102:
 770:.\Generated_Source\PSoC4/CyDMA.c ****     
 771:.\Generated_Source\PSoC4/CyDMA.c ****     CYDMA_DESCR_BASE.descriptor[channel][descriptor].ctl = config->dataElementSize     |
 772:.\Generated_Source\PSoC4/CyDMA.c ****                                                   ((uint32)config->numDataElements-1u) |
 1065              		.loc 1 772 0 is_stmt 1
 1066 008c 6368     		ldr	r3, [r4, #4]
 1067 008e 013B     		sub	r3, r3, #1
 771:.\Generated_Source\PSoC4/CyDMA.c ****                                                   ((uint32)config->numDataElements-1u) |
 1068              		.loc 1 771 0
 1069 0090 2268     		ldr	r2, [r4]
 1070 0092 1343     		orr	r3, r2
 1071              		.loc 1 772 0
 1072 0094 A268     		ldr	r2, [r4, #8]
 1073 0096 1343     		orr	r3, r2
 773:.\Generated_Source\PSoC4/CyDMA.c ****                                                            config->srcDstTransferWidth |
 1074              		.loc 1 773 0
 1075 0098 E268     		ldr	r2, [r4, #12]
 1076 009a 1343     		orr	r3, r2
 774:.\Generated_Source\PSoC4/CyDMA.c ****                                                            config->addressIncrement    |
 1077              		.loc 1 774 0
 1078 009c 2269     		ldr	r2, [r4, #16]
 1079 009e 1343     		orr	r3, r2
 775:.\Generated_Source\PSoC4/CyDMA.c ****                                                            config->triggerType         |
 1080              		.loc 1 775 0
 1081 00a0 6269     		ldr	r2, [r4, #20]
 1082 00a2 1343     		orr	r3, r2
 776:.\Generated_Source\PSoC4/CyDMA.c ****                                                            config->transferMode        |
 1083              		.loc 1 776 0
 1084 00a4 A269     		ldr	r2, [r4, #24]
 1085 00a6 1343     		orr	r3, r2
 777:.\Generated_Source\PSoC4/CyDMA.c ****                                                            config->preemptable         |
 778:.\Generated_Source\PSoC4/CyDMA.c ****                                                            config->actions;
 1086              		.loc 1 778 0
 1087 00a8 E269     		ldr	r2, [r4, #28]
 777:.\Generated_Source\PSoC4/CyDMA.c ****                                                            config->preemptable         |
 1088              		.loc 1 777 0
 1089 00aa 1343     		orr	r3, r2
 771:.\Generated_Source\PSoC4/CyDMA.c ****                                                   ((uint32)config->numDataElements-1u) |
 1090              		.loc 1 771 0
 1091 00ac 7600     		lsl	r6, r6, #1
 1092              	.LVL89:
 1093 00ae 7519     		add	r5, r6, r5
 1094              	.LVL90:
 1095 00b0 2D01     		lsl	r5, r5, #4
 1096 00b2 0B4A     		ldr	r2, .L103+28
 1097 00b4 9446     		mov	ip, r2
 1098 00b6 6544     		add	r5, r5, ip
 1099 00b8 AB60     		str	r3, [r5, #8]
 779:.\Generated_Source\PSoC4/CyDMA.c **** 
 780:.\Generated_Source\PSoC4/CyDMA.c ****     CYDMA_DESCR_BASE.descriptor[channel][descriptor].status = CYDMA_VALID;
 1100              		.loc 1 780 0
ARM GAS  C:\Users\Tim\AppData\Local\Temp\ccEK2rHG.s 			page 35


 1101 00ba 8023     		mov	r3, #128
 1102 00bc 1B06     		lsl	r3, r3, #24
 1103 00be EB60     		str	r3, [r5, #12]
 781:.\Generated_Source\PSoC4/CyDMA.c **** }
 1104              		.loc 1 781 0
 1105              		@ sp needed
 1106              	.LVL91:
 1107 00c0 70BD     		pop	{r4, r5, r6, pc}
 1108              	.L104:
 1109 00c2 C046     		.align	2
 1110              	.L103:
 1111 00c4 FFFFFCFF 		.word	-196609
 1112 00c8 FFFF0000 		.word	65535
 1113 00cc FFFFAFFF 		.word	-5242881
 1114 00d0 FFFF5FFF 		.word	-10485761
 1115 00d4 FFFFFFFC 		.word	-50331649
 1116 00d8 FFFFFFEF 		.word	-268435457
 1117 00dc FFFFFFD3 		.word	-738197505
 1118 00e0 00181040 		.word	1074796544
 1119              		.cfi_endproc
 1120              	.LFE27:
 1121              		.size	CyDmaSetConfiguration, .-CyDmaSetConfiguration
 1122              		.section	.text.CyDmaValidateDescriptor,"ax",%progbits
 1123              		.align	2
 1124              		.global	CyDmaValidateDescriptor
 1125              		.code	16
 1126              		.thumb_func
 1127              		.type	CyDmaValidateDescriptor, %function
 1128              	CyDmaValidateDescriptor:
 1129              	.LFB28:
 782:.\Generated_Source\PSoC4/CyDMA.c **** 
 783:.\Generated_Source\PSoC4/CyDMA.c **** 
 784:.\Generated_Source\PSoC4/CyDMA.c **** /*******************************************************************************
 785:.\Generated_Source\PSoC4/CyDMA.c **** * Function Name: CyDmaValidateDescriptor
 786:.\Generated_Source\PSoC4/CyDMA.c **** ********************************************************************************
 787:.\Generated_Source\PSoC4/CyDMA.c **** *
 788:.\Generated_Source\PSoC4/CyDMA.c **** * Summary:
 789:.\Generated_Source\PSoC4/CyDMA.c **** *  Validates the specified descriptor after it has been invalidated.
 790:.\Generated_Source\PSoC4/CyDMA.c **** *
 791:.\Generated_Source\PSoC4/CyDMA.c **** * Parameters:
 792:.\Generated_Source\PSoC4/CyDMA.c **** *  channel:    Channel used by this function.
 793:.\Generated_Source\PSoC4/CyDMA.c **** *  descriptor: Descriptor (0 or 1) modified by this function.
 794:.\Generated_Source\PSoC4/CyDMA.c **** *                   
 795:.\Generated_Source\PSoC4/CyDMA.c **** * Return:
 796:.\Generated_Source\PSoC4/CyDMA.c **** *  None. 
 797:.\Generated_Source\PSoC4/CyDMA.c **** *
 798:.\Generated_Source\PSoC4/CyDMA.c **** * Side effect:
 799:.\Generated_Source\PSoC4/CyDMA.c **** *  The status register associated with the specified descriptor is reset to
 800:.\Generated_Source\PSoC4/CyDMA.c **** *  zero after this function call.
 801:.\Generated_Source\PSoC4/CyDMA.c **** *  This function should not be called when the specified descriptor is active
 802:.\Generated_Source\PSoC4/CyDMA.c **** *  in the DMA transfer engine. This can be checked by calling CyDmaGetStatus().
 803:.\Generated_Source\PSoC4/CyDMA.c **** *
 804:.\Generated_Source\PSoC4/CyDMA.c **** *******************************************************************************/
 805:.\Generated_Source\PSoC4/CyDMA.c **** void CyDmaValidateDescriptor(int32 channel, int32 descriptor)
 806:.\Generated_Source\PSoC4/CyDMA.c **** {
 1130              		.loc 1 806 0
 1131              		.cfi_startproc
ARM GAS  C:\Users\Tim\AppData\Local\Temp\ccEK2rHG.s 			page 36


 1132              	.LVL92:
 1133 0000 38B5     		push	{r3, r4, r5, lr}
 1134              		.cfi_def_cfa_offset 16
 1135              		.cfi_offset 3, -16
 1136              		.cfi_offset 4, -12
 1137              		.cfi_offset 5, -8
 1138              		.cfi_offset 14, -4
 1139 0002 051C     		mov	r5, r0
 1140 0004 0C1C     		mov	r4, r1
 807:.\Generated_Source\PSoC4/CyDMA.c ****     CYASSERT((channel    >= 0) && (channel    < CYDMA_CH_NR));
 1141              		.loc 1 807 0
 1142 0006 1F28     		cmp	r0, #31
 1143 0008 02D9     		bls	.L106
 1144              		.loc 1 807 0 is_stmt 0 discriminator 1
 1145 000a 0020     		mov	r0, #0
 1146              	.LVL93:
 1147 000c FFF7FEFF 		bl	CyHalt
 1148              	.LVL94:
 1149              	.L106:
 808:.\Generated_Source\PSoC4/CyDMA.c ****     CYASSERT((descriptor >= 0) && (descriptor < CYDMA_DESCR_NR));
 1150              		.loc 1 808 0 is_stmt 1
 1151 0010 012C     		cmp	r4, #1
 1152 0012 02D9     		bls	.L107
 1153              		.loc 1 808 0 is_stmt 0 discriminator 1
 1154 0014 0020     		mov	r0, #0
 1155 0016 FFF7FEFF 		bl	CyHalt
 1156              	.LVL95:
 1157              	.L107:
 809:.\Generated_Source\PSoC4/CyDMA.c **** 
 810:.\Generated_Source\PSoC4/CyDMA.c ****     CYDMA_DESCR_BASE.descriptor[channel][descriptor].status = CYDMA_VALID;
 1158              		.loc 1 810 0 is_stmt 1
 1159 001a 6D00     		lsl	r5, r5, #1
 1160              	.LVL96:
 1161 001c 2C19     		add	r4, r5, r4
 1162              	.LVL97:
 1163 001e 2401     		lsl	r4, r4, #4
 1164 0020 034B     		ldr	r3, .L108
 1165 0022 9C46     		mov	ip, r3
 1166 0024 6444     		add	r4, r4, ip
 1167 0026 8023     		mov	r3, #128
 1168 0028 1B06     		lsl	r3, r3, #24
 1169 002a 6360     		str	r3, [r4, #4]
 811:.\Generated_Source\PSoC4/CyDMA.c **** }
 1170              		.loc 1 811 0
 1171              		@ sp needed
 1172 002c 38BD     		pop	{r3, r4, r5, pc}
 1173              	.L109:
 1174 002e C046     		.align	2
 1175              	.L108:
 1176 0030 08181040 		.word	1074796552
 1177              		.cfi_endproc
 1178              	.LFE28:
 1179              		.size	CyDmaValidateDescriptor, .-CyDmaValidateDescriptor
 1180              		.section	.text.CyDmaGetDescriptorStatus,"ax",%progbits
 1181              		.align	2
 1182              		.global	CyDmaGetDescriptorStatus
 1183              		.code	16
ARM GAS  C:\Users\Tim\AppData\Local\Temp\ccEK2rHG.s 			page 37


 1184              		.thumb_func
 1185              		.type	CyDmaGetDescriptorStatus, %function
 1186              	CyDmaGetDescriptorStatus:
 1187              	.LFB29:
 812:.\Generated_Source\PSoC4/CyDMA.c **** 
 813:.\Generated_Source\PSoC4/CyDMA.c **** 
 814:.\Generated_Source\PSoC4/CyDMA.c **** /*******************************************************************************
 815:.\Generated_Source\PSoC4/CyDMA.c **** * Function Name: CyDmaGetDescriptorStatus
 816:.\Generated_Source\PSoC4/CyDMA.c **** ********************************************************************************
 817:.\Generated_Source\PSoC4/CyDMA.c **** *
 818:.\Generated_Source\PSoC4/CyDMA.c **** * Summary:
 819:.\Generated_Source\PSoC4/CyDMA.c **** *  Returns the status of the specified descriptor.
 820:.\Generated_Source\PSoC4/CyDMA.c **** *
 821:.\Generated_Source\PSoC4/CyDMA.c **** * Parameters:
 822:.\Generated_Source\PSoC4/CyDMA.c **** *  channel:    Channel used by this function.
 823:.\Generated_Source\PSoC4/CyDMA.c **** *  descriptor: Descriptor (0 or 1) modified by this function.
 824:.\Generated_Source\PSoC4/CyDMA.c **** *                   
 825:.\Generated_Source\PSoC4/CyDMA.c **** * Return:
 826:.\Generated_Source\PSoC4/CyDMA.c **** *  Returns the contents of the specified descriptors status register. Refer to 
 827:.\Generated_Source\PSoC4/CyDMA.c **** *  descriptor status register bit definitions in CyDMA_P4.h or the API
 828:.\Generated_Source\PSoC4/CyDMA.c **** *  description in the DMA channel datasheet for more information.
 829:.\Generated_Source\PSoC4/CyDMA.c **** *
 830:.\Generated_Source\PSoC4/CyDMA.c **** *******************************************************************************/
 831:.\Generated_Source\PSoC4/CyDMA.c **** uint32 CyDmaGetDescriptorStatus(int32 channel, int32 descriptor)
 832:.\Generated_Source\PSoC4/CyDMA.c **** {
 1188              		.loc 1 832 0
 1189              		.cfi_startproc
 1190              	.LVL98:
 1191 0000 38B5     		push	{r3, r4, r5, lr}
 1192              		.cfi_def_cfa_offset 16
 1193              		.cfi_offset 3, -16
 1194              		.cfi_offset 4, -12
 1195              		.cfi_offset 5, -8
 1196              		.cfi_offset 14, -4
 1197 0002 051C     		mov	r5, r0
 1198 0004 0C1C     		mov	r4, r1
 833:.\Generated_Source\PSoC4/CyDMA.c ****     CYASSERT((channel    >= 0) && (channel    < CYDMA_CH_NR));
 1199              		.loc 1 833 0
 1200 0006 1F28     		cmp	r0, #31
 1201 0008 02D9     		bls	.L111
 1202              		.loc 1 833 0 is_stmt 0 discriminator 1
 1203 000a 0020     		mov	r0, #0
 1204              	.LVL99:
 1205 000c FFF7FEFF 		bl	CyHalt
 1206              	.LVL100:
 1207              	.L111:
 834:.\Generated_Source\PSoC4/CyDMA.c ****     CYASSERT((descriptor >= 0) && (descriptor < CYDMA_DESCR_NR));
 1208              		.loc 1 834 0 is_stmt 1
 1209 0010 012C     		cmp	r4, #1
 1210 0012 02D9     		bls	.L112
 1211              		.loc 1 834 0 is_stmt 0 discriminator 1
 1212 0014 0020     		mov	r0, #0
 1213 0016 FFF7FEFF 		bl	CyHalt
 1214              	.LVL101:
 1215              	.L112:
 835:.\Generated_Source\PSoC4/CyDMA.c **** 
 836:.\Generated_Source\PSoC4/CyDMA.c ****     return (CYDMA_DESCR_BASE.descriptor[channel][descriptor].status);
ARM GAS  C:\Users\Tim\AppData\Local\Temp\ccEK2rHG.s 			page 38


 1216              		.loc 1 836 0 is_stmt 1
 1217 001a 6D00     		lsl	r5, r5, #1
 1218              	.LVL102:
 1219 001c 2C19     		add	r4, r5, r4
 1220              	.LVL103:
 1221 001e 2401     		lsl	r4, r4, #4
 1222 0020 024B     		ldr	r3, .L113
 1223 0022 9C46     		mov	ip, r3
 1224 0024 6444     		add	r4, r4, ip
 1225 0026 6068     		ldr	r0, [r4, #4]
 837:.\Generated_Source\PSoC4/CyDMA.c **** }
 1226              		.loc 1 837 0
 1227              		@ sp needed
 1228 0028 38BD     		pop	{r3, r4, r5, pc}
 1229              	.L114:
 1230 002a C046     		.align	2
 1231              	.L113:
 1232 002c 08181040 		.word	1074796552
 1233              		.cfi_endproc
 1234              	.LFE29:
 1235              		.size	CyDmaGetDescriptorStatus, .-CyDmaGetDescriptorStatus
 1236              		.section	.text.CyDmaSetSrcAddress,"ax",%progbits
 1237              		.align	2
 1238              		.global	CyDmaSetSrcAddress
 1239              		.code	16
 1240              		.thumb_func
 1241              		.type	CyDmaSetSrcAddress, %function
 1242              	CyDmaSetSrcAddress:
 1243              	.LFB30:
 838:.\Generated_Source\PSoC4/CyDMA.c **** 
 839:.\Generated_Source\PSoC4/CyDMA.c **** 
 840:.\Generated_Source\PSoC4/CyDMA.c **** /*******************************************************************************
 841:.\Generated_Source\PSoC4/CyDMA.c **** * Function Name: CyDmaSetSrcAddress
 842:.\Generated_Source\PSoC4/CyDMA.c **** ********************************************************************************
 843:.\Generated_Source\PSoC4/CyDMA.c **** *
 844:.\Generated_Source\PSoC4/CyDMA.c **** * Summary:
 845:.\Generated_Source\PSoC4/CyDMA.c **** *  Configures the source address for the specified descriptor.
 846:.\Generated_Source\PSoC4/CyDMA.c **** *
 847:.\Generated_Source\PSoC4/CyDMA.c **** * Parameters:
 848:.\Generated_Source\PSoC4/CyDMA.c **** *  channel:    Channel used by this function.
 849:.\Generated_Source\PSoC4/CyDMA.c **** *  descriptor: Descriptor (0 or 1) modified by this function.
 850:.\Generated_Source\PSoC4/CyDMA.c **** *  srcAddress: Address of DMA transfer source.
 851:.\Generated_Source\PSoC4/CyDMA.c **** *                   
 852:.\Generated_Source\PSoC4/CyDMA.c **** * Return:
 853:.\Generated_Source\PSoC4/CyDMA.c **** *  None.
 854:.\Generated_Source\PSoC4/CyDMA.c **** *
 855:.\Generated_Source\PSoC4/CyDMA.c **** * Side effect:
 856:.\Generated_Source\PSoC4/CyDMA.c **** *  This function should not be called when the specified descriptor is active
 857:.\Generated_Source\PSoC4/CyDMA.c **** *  in the DMA transfer engine. This can be checked by calling CyDmaGetStatus(). 
 858:.\Generated_Source\PSoC4/CyDMA.c **** *
 859:.\Generated_Source\PSoC4/CyDMA.c **** *******************************************************************************/
 860:.\Generated_Source\PSoC4/CyDMA.c **** void CyDmaSetSrcAddress(int32 channel, int32 descriptor, void * srcAddress)
 861:.\Generated_Source\PSoC4/CyDMA.c **** {
 1244              		.loc 1 861 0
 1245              		.cfi_startproc
 1246              	.LVL104:
 1247 0000 70B5     		push	{r4, r5, r6, lr}
ARM GAS  C:\Users\Tim\AppData\Local\Temp\ccEK2rHG.s 			page 39


 1248              		.cfi_def_cfa_offset 16
 1249              		.cfi_offset 4, -16
 1250              		.cfi_offset 5, -12
 1251              		.cfi_offset 6, -8
 1252              		.cfi_offset 14, -4
 1253 0002 051C     		mov	r5, r0
 1254 0004 0C1C     		mov	r4, r1
 1255 0006 161C     		mov	r6, r2
 862:.\Generated_Source\PSoC4/CyDMA.c ****     CYASSERT((channel    >= 0) && (channel    < CYDMA_CH_NR));
 1256              		.loc 1 862 0
 1257 0008 1F28     		cmp	r0, #31
 1258 000a 02D9     		bls	.L116
 1259              		.loc 1 862 0 is_stmt 0 discriminator 1
 1260 000c 0020     		mov	r0, #0
 1261              	.LVL105:
 1262 000e FFF7FEFF 		bl	CyHalt
 1263              	.LVL106:
 1264              	.L116:
 863:.\Generated_Source\PSoC4/CyDMA.c ****     CYASSERT((descriptor >= 0) && (descriptor < CYDMA_DESCR_NR));
 1265              		.loc 1 863 0 is_stmt 1
 1266 0012 012C     		cmp	r4, #1
 1267 0014 02D9     		bls	.L117
 1268              		.loc 1 863 0 is_stmt 0 discriminator 1
 1269 0016 0020     		mov	r0, #0
 1270 0018 FFF7FEFF 		bl	CyHalt
 1271              	.LVL107:
 1272              	.L117:
 864:.\Generated_Source\PSoC4/CyDMA.c **** 
 865:.\Generated_Source\PSoC4/CyDMA.c ****     CYDMA_DESCR_BASE.descriptor[channel][descriptor].src = srcAddress;
 1273              		.loc 1 865 0 is_stmt 1
 1274 001c 6D00     		lsl	r5, r5, #1
 1275              	.LVL108:
 1276 001e 2C19     		add	r4, r5, r4
 1277              	.LVL109:
 1278 0020 2401     		lsl	r4, r4, #4
 1279 0022 014B     		ldr	r3, .L118
 1280 0024 E650     		str	r6, [r4, r3]
 866:.\Generated_Source\PSoC4/CyDMA.c **** }
 1281              		.loc 1 866 0
 1282              		@ sp needed
 1283              	.LVL110:
 1284 0026 70BD     		pop	{r4, r5, r6, pc}
 1285              	.L119:
 1286              		.align	2
 1287              	.L118:
 1288 0028 00181040 		.word	1074796544
 1289              		.cfi_endproc
 1290              	.LFE30:
 1291              		.size	CyDmaSetSrcAddress, .-CyDmaSetSrcAddress
 1292              		.section	.text.CyDmaGetSrcAddress,"ax",%progbits
 1293              		.align	2
 1294              		.global	CyDmaGetSrcAddress
 1295              		.code	16
 1296              		.thumb_func
 1297              		.type	CyDmaGetSrcAddress, %function
 1298              	CyDmaGetSrcAddress:
 1299              	.LFB31:
ARM GAS  C:\Users\Tim\AppData\Local\Temp\ccEK2rHG.s 			page 40


 867:.\Generated_Source\PSoC4/CyDMA.c **** 
 868:.\Generated_Source\PSoC4/CyDMA.c **** 
 869:.\Generated_Source\PSoC4/CyDMA.c **** /*******************************************************************************
 870:.\Generated_Source\PSoC4/CyDMA.c **** * Function Name: CyDmaGetSrcAddress
 871:.\Generated_Source\PSoC4/CyDMA.c **** ********************************************************************************
 872:.\Generated_Source\PSoC4/CyDMA.c **** *
 873:.\Generated_Source\PSoC4/CyDMA.c **** * Summary:
 874:.\Generated_Source\PSoC4/CyDMA.c **** *  Returns the source address for the specified descriptor, set by 
 875:.\Generated_Source\PSoC4/CyDMA.c **** *  CyDmaSetSrcAddress().
 876:.\Generated_Source\PSoC4/CyDMA.c **** *
 877:.\Generated_Source\PSoC4/CyDMA.c **** * Parameters:
 878:.\Generated_Source\PSoC4/CyDMA.c **** *  channel:    Channel used by this function.
 879:.\Generated_Source\PSoC4/CyDMA.c **** *  descriptor: Specifies descriptor (0 or 1) used by this function.
 880:.\Generated_Source\PSoC4/CyDMA.c **** *                   
 881:.\Generated_Source\PSoC4/CyDMA.c **** * Return:
 882:.\Generated_Source\PSoC4/CyDMA.c **** *  Source address written to specified descriptor.
 883:.\Generated_Source\PSoC4/CyDMA.c **** *
 884:.\Generated_Source\PSoC4/CyDMA.c **** *******************************************************************************/
 885:.\Generated_Source\PSoC4/CyDMA.c **** void * CyDmaGetSrcAddress(int32 channel, int32 descriptor)
 886:.\Generated_Source\PSoC4/CyDMA.c **** {
 1300              		.loc 1 886 0
 1301              		.cfi_startproc
 1302              	.LVL111:
 1303 0000 38B5     		push	{r3, r4, r5, lr}
 1304              		.cfi_def_cfa_offset 16
 1305              		.cfi_offset 3, -16
 1306              		.cfi_offset 4, -12
 1307              		.cfi_offset 5, -8
 1308              		.cfi_offset 14, -4
 1309 0002 051C     		mov	r5, r0
 1310 0004 0C1C     		mov	r4, r1
 887:.\Generated_Source\PSoC4/CyDMA.c ****     CYASSERT((channel    >= 0) && (channel    < CYDMA_CH_NR));
 1311              		.loc 1 887 0
 1312 0006 1F28     		cmp	r0, #31
 1313 0008 02D9     		bls	.L121
 1314              		.loc 1 887 0 is_stmt 0 discriminator 1
 1315 000a 0020     		mov	r0, #0
 1316              	.LVL112:
 1317 000c FFF7FEFF 		bl	CyHalt
 1318              	.LVL113:
 1319              	.L121:
 888:.\Generated_Source\PSoC4/CyDMA.c ****     CYASSERT((descriptor >= 0) && (descriptor < CYDMA_DESCR_NR));
 1320              		.loc 1 888 0 is_stmt 1
 1321 0010 012C     		cmp	r4, #1
 1322 0012 02D9     		bls	.L122
 1323              		.loc 1 888 0 is_stmt 0 discriminator 1
 1324 0014 0020     		mov	r0, #0
 1325 0016 FFF7FEFF 		bl	CyHalt
 1326              	.LVL114:
 1327              	.L122:
 889:.\Generated_Source\PSoC4/CyDMA.c **** 
 890:.\Generated_Source\PSoC4/CyDMA.c ****     return (CYDMA_DESCR_BASE.descriptor[channel][descriptor].src);
 1328              		.loc 1 890 0 is_stmt 1
 1329 001a 6D00     		lsl	r5, r5, #1
 1330              	.LVL115:
 1331 001c 2C19     		add	r4, r5, r4
 1332              	.LVL116:
ARM GAS  C:\Users\Tim\AppData\Local\Temp\ccEK2rHG.s 			page 41


 1333 001e 2401     		lsl	r4, r4, #4
 1334 0020 014B     		ldr	r3, .L123
 1335 0022 E058     		ldr	r0, [r4, r3]
 891:.\Generated_Source\PSoC4/CyDMA.c **** }
 1336              		.loc 1 891 0
 1337              		@ sp needed
 1338 0024 38BD     		pop	{r3, r4, r5, pc}
 1339              	.L124:
 1340 0026 C046     		.align	2
 1341              	.L123:
 1342 0028 00181040 		.word	1074796544
 1343              		.cfi_endproc
 1344              	.LFE31:
 1345              		.size	CyDmaGetSrcAddress, .-CyDmaGetSrcAddress
 1346              		.section	.text.CyDmaSetDstAddress,"ax",%progbits
 1347              		.align	2
 1348              		.global	CyDmaSetDstAddress
 1349              		.code	16
 1350              		.thumb_func
 1351              		.type	CyDmaSetDstAddress, %function
 1352              	CyDmaSetDstAddress:
 1353              	.LFB32:
 892:.\Generated_Source\PSoC4/CyDMA.c **** 
 893:.\Generated_Source\PSoC4/CyDMA.c **** 
 894:.\Generated_Source\PSoC4/CyDMA.c **** /*******************************************************************************
 895:.\Generated_Source\PSoC4/CyDMA.c **** * Function Name: CyDmaSetDstAddress
 896:.\Generated_Source\PSoC4/CyDMA.c **** ********************************************************************************
 897:.\Generated_Source\PSoC4/CyDMA.c **** *
 898:.\Generated_Source\PSoC4/CyDMA.c **** * Summary:
 899:.\Generated_Source\PSoC4/CyDMA.c **** *  Configures the destination address for the specified descriptor.
 900:.\Generated_Source\PSoC4/CyDMA.c **** *
 901:.\Generated_Source\PSoC4/CyDMA.c **** * Parameters:
 902:.\Generated_Source\PSoC4/CyDMA.c **** *  channel:    Channel used by this function.
 903:.\Generated_Source\PSoC4/CyDMA.c **** *  descriptor: Descriptor (0 or 1) modified by this function.
 904:.\Generated_Source\PSoC4/CyDMA.c **** *  dstAddress: Address of DMA transfer destination.
 905:.\Generated_Source\PSoC4/CyDMA.c **** *                   
 906:.\Generated_Source\PSoC4/CyDMA.c **** * Return:
 907:.\Generated_Source\PSoC4/CyDMA.c **** *  None.
 908:.\Generated_Source\PSoC4/CyDMA.c **** *
 909:.\Generated_Source\PSoC4/CyDMA.c **** * Side effect:
 910:.\Generated_Source\PSoC4/CyDMA.c **** *  This function should not be called when the specified descriptor is active
 911:.\Generated_Source\PSoC4/CyDMA.c **** *  in the DMA transfer engine. This can be checked by calling CyDmaGetStatus(). 
 912:.\Generated_Source\PSoC4/CyDMA.c **** *
 913:.\Generated_Source\PSoC4/CyDMA.c **** *******************************************************************************/
 914:.\Generated_Source\PSoC4/CyDMA.c **** void CyDmaSetDstAddress(int32 channel, int32 descriptor, void * dstAddress)
 915:.\Generated_Source\PSoC4/CyDMA.c **** {
 1354              		.loc 1 915 0
 1355              		.cfi_startproc
 1356              	.LVL117:
 1357 0000 70B5     		push	{r4, r5, r6, lr}
 1358              		.cfi_def_cfa_offset 16
 1359              		.cfi_offset 4, -16
 1360              		.cfi_offset 5, -12
 1361              		.cfi_offset 6, -8
 1362              		.cfi_offset 14, -4
 1363 0002 051C     		mov	r5, r0
 1364 0004 0C1C     		mov	r4, r1
ARM GAS  C:\Users\Tim\AppData\Local\Temp\ccEK2rHG.s 			page 42


 1365 0006 161C     		mov	r6, r2
 916:.\Generated_Source\PSoC4/CyDMA.c ****     CYASSERT((channel    >= 0) && (channel    < CYDMA_CH_NR));
 1366              		.loc 1 916 0
 1367 0008 1F28     		cmp	r0, #31
 1368 000a 02D9     		bls	.L126
 1369              		.loc 1 916 0 is_stmt 0 discriminator 1
 1370 000c 0020     		mov	r0, #0
 1371              	.LVL118:
 1372 000e FFF7FEFF 		bl	CyHalt
 1373              	.LVL119:
 1374              	.L126:
 917:.\Generated_Source\PSoC4/CyDMA.c ****     CYASSERT((descriptor >= 0) && (descriptor < CYDMA_DESCR_NR));
 1375              		.loc 1 917 0 is_stmt 1
 1376 0012 012C     		cmp	r4, #1
 1377 0014 02D9     		bls	.L127
 1378              		.loc 1 917 0 is_stmt 0 discriminator 1
 1379 0016 0020     		mov	r0, #0
 1380 0018 FFF7FEFF 		bl	CyHalt
 1381              	.LVL120:
 1382              	.L127:
 918:.\Generated_Source\PSoC4/CyDMA.c **** 
 919:.\Generated_Source\PSoC4/CyDMA.c ****     CYDMA_DESCR_BASE.descriptor[channel][descriptor].dst = dstAddress;
 1383              		.loc 1 919 0 is_stmt 1
 1384 001c 6D00     		lsl	r5, r5, #1
 1385              	.LVL121:
 1386 001e 2C19     		add	r4, r5, r4
 1387              	.LVL122:
 1388 0020 2401     		lsl	r4, r4, #4
 1389 0022 024B     		ldr	r3, .L128
 1390 0024 9C46     		mov	ip, r3
 1391 0026 6444     		add	r4, r4, ip
 1392 0028 6660     		str	r6, [r4, #4]
 920:.\Generated_Source\PSoC4/CyDMA.c **** }
 1393              		.loc 1 920 0
 1394              		@ sp needed
 1395              	.LVL123:
 1396 002a 70BD     		pop	{r4, r5, r6, pc}
 1397              	.L129:
 1398              		.align	2
 1399              	.L128:
 1400 002c 00181040 		.word	1074796544
 1401              		.cfi_endproc
 1402              	.LFE32:
 1403              		.size	CyDmaSetDstAddress, .-CyDmaSetDstAddress
 1404              		.section	.text.CyDmaGetDstAddress,"ax",%progbits
 1405              		.align	2
 1406              		.global	CyDmaGetDstAddress
 1407              		.code	16
 1408              		.thumb_func
 1409              		.type	CyDmaGetDstAddress, %function
 1410              	CyDmaGetDstAddress:
 1411              	.LFB33:
 921:.\Generated_Source\PSoC4/CyDMA.c **** 
 922:.\Generated_Source\PSoC4/CyDMA.c **** 
 923:.\Generated_Source\PSoC4/CyDMA.c **** /*******************************************************************************
 924:.\Generated_Source\PSoC4/CyDMA.c **** * Function Name: CyDmaGetDstAddress
 925:.\Generated_Source\PSoC4/CyDMA.c **** ********************************************************************************
ARM GAS  C:\Users\Tim\AppData\Local\Temp\ccEK2rHG.s 			page 43


 926:.\Generated_Source\PSoC4/CyDMA.c **** *
 927:.\Generated_Source\PSoC4/CyDMA.c **** * Summary:
 928:.\Generated_Source\PSoC4/CyDMA.c **** *  Returns the destination address for the specified descriptor, set by 
 929:.\Generated_Source\PSoC4/CyDMA.c **** *  CyDmaSetDstAddress().
 930:.\Generated_Source\PSoC4/CyDMA.c **** *
 931:.\Generated_Source\PSoC4/CyDMA.c **** * Parameters:
 932:.\Generated_Source\PSoC4/CyDMA.c **** *  channel:    Channel used by this function.
 933:.\Generated_Source\PSoC4/CyDMA.c **** *  descriptor: Specifies descriptor (0 or 1) used by this function.
 934:.\Generated_Source\PSoC4/CyDMA.c **** *                   
 935:.\Generated_Source\PSoC4/CyDMA.c **** * Return:
 936:.\Generated_Source\PSoC4/CyDMA.c **** *  Destination address written to specified descriptor.
 937:.\Generated_Source\PSoC4/CyDMA.c **** *
 938:.\Generated_Source\PSoC4/CyDMA.c **** *******************************************************************************/
 939:.\Generated_Source\PSoC4/CyDMA.c **** void * CyDmaGetDstAddress(int32 channel, int32 descriptor)
 940:.\Generated_Source\PSoC4/CyDMA.c **** {
 1412              		.loc 1 940 0
 1413              		.cfi_startproc
 1414              	.LVL124:
 1415 0000 38B5     		push	{r3, r4, r5, lr}
 1416              		.cfi_def_cfa_offset 16
 1417              		.cfi_offset 3, -16
 1418              		.cfi_offset 4, -12
 1419              		.cfi_offset 5, -8
 1420              		.cfi_offset 14, -4
 1421 0002 051C     		mov	r5, r0
 1422 0004 0C1C     		mov	r4, r1
 941:.\Generated_Source\PSoC4/CyDMA.c ****     CYASSERT((channel    >= 0) && (channel    < CYDMA_CH_NR));
 1423              		.loc 1 941 0
 1424 0006 1F28     		cmp	r0, #31
 1425 0008 02D9     		bls	.L131
 1426              		.loc 1 941 0 is_stmt 0 discriminator 1
 1427 000a 0020     		mov	r0, #0
 1428              	.LVL125:
 1429 000c FFF7FEFF 		bl	CyHalt
 1430              	.LVL126:
 1431              	.L131:
 942:.\Generated_Source\PSoC4/CyDMA.c ****     CYASSERT((descriptor >= 0) && (descriptor < CYDMA_DESCR_NR));
 1432              		.loc 1 942 0 is_stmt 1
 1433 0010 012C     		cmp	r4, #1
 1434 0012 02D9     		bls	.L132
 1435              		.loc 1 942 0 is_stmt 0 discriminator 1
 1436 0014 0020     		mov	r0, #0
 1437 0016 FFF7FEFF 		bl	CyHalt
 1438              	.LVL127:
 1439              	.L132:
 943:.\Generated_Source\PSoC4/CyDMA.c **** 
 944:.\Generated_Source\PSoC4/CyDMA.c ****     return (CYDMA_DESCR_BASE.descriptor[channel][descriptor].dst);
 1440              		.loc 1 944 0 is_stmt 1
 1441 001a 6D00     		lsl	r5, r5, #1
 1442              	.LVL128:
 1443 001c 2C19     		add	r4, r5, r4
 1444              	.LVL129:
 1445 001e 2401     		lsl	r4, r4, #4
 1446 0020 024B     		ldr	r3, .L133
 1447 0022 9C46     		mov	ip, r3
 1448 0024 6444     		add	r4, r4, ip
 1449 0026 6068     		ldr	r0, [r4, #4]
ARM GAS  C:\Users\Tim\AppData\Local\Temp\ccEK2rHG.s 			page 44


 945:.\Generated_Source\PSoC4/CyDMA.c **** }
 1450              		.loc 1 945 0
 1451              		@ sp needed
 1452 0028 38BD     		pop	{r3, r4, r5, pc}
 1453              	.L134:
 1454 002a C046     		.align	2
 1455              	.L133:
 1456 002c 00181040 		.word	1074796544
 1457              		.cfi_endproc
 1458              	.LFE33:
 1459              		.size	CyDmaGetDstAddress, .-CyDmaGetDstAddress
 1460              		.section	.text.CyDmaSetDataElementSize,"ax",%progbits
 1461              		.align	2
 1462              		.global	CyDmaSetDataElementSize
 1463              		.code	16
 1464              		.thumb_func
 1465              		.type	CyDmaSetDataElementSize, %function
 1466              	CyDmaSetDataElementSize:
 1467              	.LFB34:
 946:.\Generated_Source\PSoC4/CyDMA.c **** 
 947:.\Generated_Source\PSoC4/CyDMA.c **** /*******************************************************************************
 948:.\Generated_Source\PSoC4/CyDMA.c **** * Function Name: CyDmaSetDataElementSize
 949:.\Generated_Source\PSoC4/CyDMA.c **** ********************************************************************************
 950:.\Generated_Source\PSoC4/CyDMA.c **** *
 951:.\Generated_Source\PSoC4/CyDMA.c **** * Summary:
 952:.\Generated_Source\PSoC4/CyDMA.c **** *  Sets the data element size for the specified descriptor.
 953:.\Generated_Source\PSoC4/CyDMA.c **** *
 954:.\Generated_Source\PSoC4/CyDMA.c **** * Parameters:
 955:.\Generated_Source\PSoC4/CyDMA.c **** *  channel:         Channel used by this function.
 956:.\Generated_Source\PSoC4/CyDMA.c **** *  descriptor:      Descriptor (0 or 1) modified by this function.
 957:.\Generated_Source\PSoC4/CyDMA.c **** *  dataElementSize: Specifies the size of the data element. The DMA transfer
 958:.\Generated_Source\PSoC4/CyDMA.c **** *                   engine transfers one data element at a time. How these
 959:.\Generated_Source\PSoC4/CyDMA.c **** *                   transfers occur is controlled by the transfer mode.
 960:.\Generated_Source\PSoC4/CyDMA.c **** *                   Refer to the API bit field definitions in CyDMA_P4.h
 961:.\Generated_Source\PSoC4/CyDMA.c **** *                   or API description in the DMA channel datasheet for the 
 962:.\Generated_Source\PSoC4/CyDMA.c **** *                   parameter options.
 963:.\Generated_Source\PSoC4/CyDMA.c **** *
 964:.\Generated_Source\PSoC4/CyDMA.c **** * Return:
 965:.\Generated_Source\PSoC4/CyDMA.c **** *  None.
 966:.\Generated_Source\PSoC4/CyDMA.c **** *
 967:.\Generated_Source\PSoC4/CyDMA.c **** * Side effect:
 968:.\Generated_Source\PSoC4/CyDMA.c **** *  This function should not be called when the specified descriptor is active
 969:.\Generated_Source\PSoC4/CyDMA.c **** *  in the DMA transfer engine. This can be checked by calling CyDmaGetStatus(). 
 970:.\Generated_Source\PSoC4/CyDMA.c **** *
 971:.\Generated_Source\PSoC4/CyDMA.c **** *******************************************************************************/
 972:.\Generated_Source\PSoC4/CyDMA.c **** void CyDmaSetDataElementSize(int32 channel, int32 descriptor, uint32 dataElementSize)
 973:.\Generated_Source\PSoC4/CyDMA.c **** {
 1468              		.loc 1 973 0
 1469              		.cfi_startproc
 1470              	.LVL130:
 1471 0000 70B5     		push	{r4, r5, r6, lr}
 1472              		.cfi_def_cfa_offset 16
 1473              		.cfi_offset 4, -16
 1474              		.cfi_offset 5, -12
 1475              		.cfi_offset 6, -8
 1476              		.cfi_offset 14, -4
 1477 0002 061C     		mov	r6, r0
ARM GAS  C:\Users\Tim\AppData\Local\Temp\ccEK2rHG.s 			page 45


 1478 0004 0C1C     		mov	r4, r1
 1479 0006 151C     		mov	r5, r2
 974:.\Generated_Source\PSoC4/CyDMA.c ****     uint32 regValue;
 975:.\Generated_Source\PSoC4/CyDMA.c ****     
 976:.\Generated_Source\PSoC4/CyDMA.c ****     CYASSERT((channel    >= 0) && (channel    < CYDMA_CH_NR));
 1480              		.loc 1 976 0
 1481 0008 1F28     		cmp	r0, #31
 1482 000a 02D9     		bls	.L136
 1483              		.loc 1 976 0 is_stmt 0 discriminator 1
 1484 000c 0020     		mov	r0, #0
 1485              	.LVL131:
 1486 000e FFF7FEFF 		bl	CyHalt
 1487              	.LVL132:
 1488              	.L136:
 977:.\Generated_Source\PSoC4/CyDMA.c ****     CYASSERT((descriptor >= 0) && (descriptor < CYDMA_DESCR_NR));
 1489              		.loc 1 977 0 is_stmt 1
 1490 0012 012C     		cmp	r4, #1
 1491 0014 02D9     		bls	.L137
 1492              		.loc 1 977 0 is_stmt 0 discriminator 1
 1493 0016 0020     		mov	r0, #0
 1494 0018 FFF7FEFF 		bl	CyHalt
 1495              	.LVL133:
 1496              	.L137:
 978:.\Generated_Source\PSoC4/CyDMA.c ****     CYASSERT(0u == (dataElementSize & (uint32)~CYDMA_DATA_SIZE));
 1497              		.loc 1 978 0 is_stmt 1
 1498 001c 084B     		ldr	r3, .L139
 1499 001e 1D42     		tst	r5, r3
 1500 0020 02D0     		beq	.L138
 1501              		.loc 1 978 0 is_stmt 0 discriminator 1
 1502 0022 0020     		mov	r0, #0
 1503 0024 FFF7FEFF 		bl	CyHalt
 1504              	.LVL134:
 1505              	.L138:
 979:.\Generated_Source\PSoC4/CyDMA.c **** 
 980:.\Generated_Source\PSoC4/CyDMA.c ****     regValue = CYDMA_DESCR_BASE.descriptor[channel][descriptor].ctl & (uint32)~CYDMA_DATA_SIZE;
 1506              		.loc 1 980 0 is_stmt 1
 1507 0028 7600     		lsl	r6, r6, #1
 1508              	.LVL135:
 1509 002a 3419     		add	r4, r6, r4
 1510              	.LVL136:
 1511 002c 2401     		lsl	r4, r4, #4
 1512 002e 054B     		ldr	r3, .L139+4
 1513 0030 9C46     		mov	ip, r3
 1514 0032 6444     		add	r4, r4, ip
 1515 0034 A268     		ldr	r2, [r4, #8]
 1516 0036 024B     		ldr	r3, .L139
 1517 0038 1340     		and	r3, r2
 1518              	.LVL137:
 981:.\Generated_Source\PSoC4/CyDMA.c ****     CYDMA_DESCR_BASE.descriptor[channel][descriptor].ctl = regValue | dataElementSize;
 1519              		.loc 1 981 0
 1520 003a 1D43     		orr	r5, r3
 1521              	.LVL138:
 1522 003c A560     		str	r5, [r4, #8]
 982:.\Generated_Source\PSoC4/CyDMA.c **** }
 1523              		.loc 1 982 0
 1524              		@ sp needed
 1525 003e 70BD     		pop	{r4, r5, r6, pc}
ARM GAS  C:\Users\Tim\AppData\Local\Temp\ccEK2rHG.s 			page 46


 1526              	.L140:
 1527              		.align	2
 1528              	.L139:
 1529 0040 FFFFFCFF 		.word	-196609
 1530 0044 00181040 		.word	1074796544
 1531              		.cfi_endproc
 1532              	.LFE34:
 1533              		.size	CyDmaSetDataElementSize, .-CyDmaSetDataElementSize
 1534              		.section	.text.CyDmaGetDataElementSize,"ax",%progbits
 1535              		.align	2
 1536              		.global	CyDmaGetDataElementSize
 1537              		.code	16
 1538              		.thumb_func
 1539              		.type	CyDmaGetDataElementSize, %function
 1540              	CyDmaGetDataElementSize:
 1541              	.LFB35:
 983:.\Generated_Source\PSoC4/CyDMA.c **** 
 984:.\Generated_Source\PSoC4/CyDMA.c **** 
 985:.\Generated_Source\PSoC4/CyDMA.c **** /*******************************************************************************
 986:.\Generated_Source\PSoC4/CyDMA.c **** * Function Name: CyDmaGetDataElementSize
 987:.\Generated_Source\PSoC4/CyDMA.c **** ********************************************************************************
 988:.\Generated_Source\PSoC4/CyDMA.c **** *
 989:.\Generated_Source\PSoC4/CyDMA.c **** * Summary:
 990:.\Generated_Source\PSoC4/CyDMA.c **** *  Returns the data element size configured for the specified descriptor, set by
 991:.\Generated_Source\PSoC4/CyDMA.c **** *  CyDmaSetDataElementSize() or CyDmaSetConfiguration.
 992:.\Generated_Source\PSoC4/CyDMA.c **** *
 993:.\Generated_Source\PSoC4/CyDMA.c **** * Parameters:
 994:.\Generated_Source\PSoC4/CyDMA.c **** *  channel:    Channel used by this function.
 995:.\Generated_Source\PSoC4/CyDMA.c **** *  descriptor: Descriptor (0 or 1) modified by this function.
 996:.\Generated_Source\PSoC4/CyDMA.c **** *                   
 997:.\Generated_Source\PSoC4/CyDMA.c **** * Return:
 998:.\Generated_Source\PSoC4/CyDMA.c **** *  The size of the data element. The DMA transfer engine transfers one data
 999:.\Generated_Source\PSoC4/CyDMA.c **** *  element at a time. How these transfers occur is controlled by the transfer
1000:.\Generated_Source\PSoC4/CyDMA.c **** *  mode. Refer to the API bit field definitions in CyDMA_P4.h or the API 
1001:.\Generated_Source\PSoC4/CyDMA.c **** *  description in the DMA channel datasheet for more information.
1002:.\Generated_Source\PSoC4/CyDMA.c **** *
1003:.\Generated_Source\PSoC4/CyDMA.c **** * Note:
1004:.\Generated_Source\PSoC4/CyDMA.c **** *  The size of the source and destination can be configured to use the
1005:.\Generated_Source\PSoC4/CyDMA.c **** *  data element size, or a Word, this is set in CyDmaSetSrcDstTransferWidth().
1006:.\Generated_Source\PSoC4/CyDMA.c **** *
1007:.\Generated_Source\PSoC4/CyDMA.c **** *******************************************************************************/
1008:.\Generated_Source\PSoC4/CyDMA.c **** uint32 CyDmaGetDataElementSize(int32 channel, int32 descriptor)
1009:.\Generated_Source\PSoC4/CyDMA.c **** {
 1542              		.loc 1 1009 0
 1543              		.cfi_startproc
 1544              	.LVL139:
 1545 0000 38B5     		push	{r3, r4, r5, lr}
 1546              		.cfi_def_cfa_offset 16
 1547              		.cfi_offset 3, -16
 1548              		.cfi_offset 4, -12
 1549              		.cfi_offset 5, -8
 1550              		.cfi_offset 14, -4
 1551 0002 051C     		mov	r5, r0
 1552 0004 0C1C     		mov	r4, r1
1010:.\Generated_Source\PSoC4/CyDMA.c ****     CYASSERT((channel    >= 0) && (channel    < CYDMA_CH_NR));
 1553              		.loc 1 1010 0
 1554 0006 1F28     		cmp	r0, #31
ARM GAS  C:\Users\Tim\AppData\Local\Temp\ccEK2rHG.s 			page 47


 1555 0008 02D9     		bls	.L142
 1556              		.loc 1 1010 0 is_stmt 0 discriminator 1
 1557 000a 0020     		mov	r0, #0
 1558              	.LVL140:
 1559 000c FFF7FEFF 		bl	CyHalt
 1560              	.LVL141:
 1561              	.L142:
1011:.\Generated_Source\PSoC4/CyDMA.c ****     CYASSERT((descriptor >= 0) && (descriptor < CYDMA_DESCR_NR));
 1562              		.loc 1 1011 0 is_stmt 1
 1563 0010 012C     		cmp	r4, #1
 1564 0012 02D9     		bls	.L143
 1565              		.loc 1 1011 0 is_stmt 0 discriminator 1
 1566 0014 0020     		mov	r0, #0
 1567 0016 FFF7FEFF 		bl	CyHalt
 1568              	.LVL142:
 1569              	.L143:
1012:.\Generated_Source\PSoC4/CyDMA.c **** 
1013:.\Generated_Source\PSoC4/CyDMA.c ****     return (CYDMA_DESCR_BASE.descriptor[channel][descriptor].ctl & CYDMA_DATA_SIZE);
 1570              		.loc 1 1013 0 is_stmt 1
 1571 001a 6D00     		lsl	r5, r5, #1
 1572              	.LVL143:
 1573 001c 2C19     		add	r4, r5, r4
 1574              	.LVL144:
 1575 001e 2401     		lsl	r4, r4, #4
 1576 0020 034B     		ldr	r3, .L144
 1577 0022 9C46     		mov	ip, r3
 1578 0024 6444     		add	r4, r4, ip
 1579 0026 A068     		ldr	r0, [r4, #8]
 1580 0028 C023     		mov	r3, #192
 1581 002a 9B02     		lsl	r3, r3, #10
 1582 002c 1840     		and	r0, r3
1014:.\Generated_Source\PSoC4/CyDMA.c **** }
 1583              		.loc 1 1014 0
 1584              		@ sp needed
 1585 002e 38BD     		pop	{r3, r4, r5, pc}
 1586              	.L145:
 1587              		.align	2
 1588              	.L144:
 1589 0030 00181040 		.word	1074796544
 1590              		.cfi_endproc
 1591              	.LFE35:
 1592              		.size	CyDmaGetDataElementSize, .-CyDmaGetDataElementSize
 1593              		.section	.text.CyDmaSetNumDataElements,"ax",%progbits
 1594              		.align	2
 1595              		.global	CyDmaSetNumDataElements
 1596              		.code	16
 1597              		.thumb_func
 1598              		.type	CyDmaSetNumDataElements, %function
 1599              	CyDmaSetNumDataElements:
 1600              	.LFB36:
1015:.\Generated_Source\PSoC4/CyDMA.c **** 
1016:.\Generated_Source\PSoC4/CyDMA.c **** 
1017:.\Generated_Source\PSoC4/CyDMA.c **** /*******************************************************************************
1018:.\Generated_Source\PSoC4/CyDMA.c **** * Function Name: CyDmaSetNumDataElements
1019:.\Generated_Source\PSoC4/CyDMA.c **** ********************************************************************************
1020:.\Generated_Source\PSoC4/CyDMA.c **** *
1021:.\Generated_Source\PSoC4/CyDMA.c **** * Summary:
ARM GAS  C:\Users\Tim\AppData\Local\Temp\ccEK2rHG.s 			page 48


1022:.\Generated_Source\PSoC4/CyDMA.c **** *  Sets the number of data elements to transfer for specified descriptor.
1023:.\Generated_Source\PSoC4/CyDMA.c **** *
1024:.\Generated_Source\PSoC4/CyDMA.c **** * Parameters:
1025:.\Generated_Source\PSoC4/CyDMA.c **** *  channel:         Channel used by this function.
1026:.\Generated_Source\PSoC4/CyDMA.c **** *  descriptor:      Descriptor (0 or 1) modified by this function.
1027:.\Generated_Source\PSoC4/CyDMA.c **** *  numDataElements: Total number of data elements this descriptor transfers.
1028:.\Generated_Source\PSoC4/CyDMA.c **** *                   Valid ranges are 1 to 65536.
1029:.\Generated_Source\PSoC4/CyDMA.c **** *                   
1030:.\Generated_Source\PSoC4/CyDMA.c **** * Return:
1031:.\Generated_Source\PSoC4/CyDMA.c **** *  None.
1032:.\Generated_Source\PSoC4/CyDMA.c **** *
1033:.\Generated_Source\PSoC4/CyDMA.c **** * Side effect:
1034:.\Generated_Source\PSoC4/CyDMA.c **** *  This function should not be called when the specified descriptor is active
1035:.\Generated_Source\PSoC4/CyDMA.c **** *  in the DMA transfer engine. This can be checked by calling CyDmaGetStatus(). 
1036:.\Generated_Source\PSoC4/CyDMA.c **** *
1037:.\Generated_Source\PSoC4/CyDMA.c **** *******************************************************************************/
1038:.\Generated_Source\PSoC4/CyDMA.c **** void CyDmaSetNumDataElements(int32 channel, int32 descriptor, int32 numDataElements)
1039:.\Generated_Source\PSoC4/CyDMA.c **** {
 1601              		.loc 1 1039 0
 1602              		.cfi_startproc
 1603              	.LVL145:
 1604 0000 70B5     		push	{r4, r5, r6, lr}
 1605              		.cfi_def_cfa_offset 16
 1606              		.cfi_offset 4, -16
 1607              		.cfi_offset 5, -12
 1608              		.cfi_offset 6, -8
 1609              		.cfi_offset 14, -4
 1610 0002 061C     		mov	r6, r0
 1611 0004 0C1C     		mov	r4, r1
 1612 0006 151C     		mov	r5, r2
1040:.\Generated_Source\PSoC4/CyDMA.c ****     uint32 regValue;
1041:.\Generated_Source\PSoC4/CyDMA.c ****     
1042:.\Generated_Source\PSoC4/CyDMA.c ****     CYASSERT((channel        >= 0) && (channel         <  CYDMA_CH_NR));
 1613              		.loc 1 1042 0
 1614 0008 1F28     		cmp	r0, #31
 1615 000a 02D9     		bls	.L147
 1616              		.loc 1 1042 0 is_stmt 0 discriminator 1
 1617 000c 0020     		mov	r0, #0
 1618              	.LVL146:
 1619 000e FFF7FEFF 		bl	CyHalt
 1620              	.LVL147:
 1621              	.L147:
1043:.\Generated_Source\PSoC4/CyDMA.c ****     CYASSERT((descriptor     >= 0) && (descriptor      <  CYDMA_DESCR_NR));
 1622              		.loc 1 1043 0 is_stmt 1
 1623 0012 012C     		cmp	r4, #1
 1624 0014 02D9     		bls	.L148
 1625              		.loc 1 1043 0 is_stmt 0 discriminator 1
 1626 0016 0020     		mov	r0, #0
 1627 0018 FFF7FEFF 		bl	CyHalt
 1628              	.LVL148:
 1629              	.L148:
1044:.\Generated_Source\PSoC4/CyDMA.c ****     CYASSERT((numDataElements > 0) && (numDataElements <= CYDMA_MAX_DATA_NR));
 1630              		.loc 1 1044 0 is_stmt 1
 1631 001c 6B1E     		sub	r3, r5, #1
 1632 001e 094A     		ldr	r2, .L150
 1633 0020 9342     		cmp	r3, r2
 1634 0022 02D9     		bls	.L149
ARM GAS  C:\Users\Tim\AppData\Local\Temp\ccEK2rHG.s 			page 49


 1635              		.loc 1 1044 0 is_stmt 0 discriminator 1
 1636 0024 0020     		mov	r0, #0
 1637 0026 FFF7FEFF 		bl	CyHalt
 1638              	.LVL149:
 1639              	.L149:
1045:.\Generated_Source\PSoC4/CyDMA.c ****     
1046:.\Generated_Source\PSoC4/CyDMA.c ****     --numDataElements;
 1640              		.loc 1 1046 0 is_stmt 1
 1641 002a 6B1E     		sub	r3, r5, #1
 1642              	.LVL150:
1047:.\Generated_Source\PSoC4/CyDMA.c ****     regValue = CYDMA_DESCR_BASE.descriptor[channel][descriptor].ctl & (uint32)~CYDMA_DATA_NR;
 1643              		.loc 1 1047 0
 1644 002c 7600     		lsl	r6, r6, #1
 1645              	.LVL151:
 1646 002e 3419     		add	r4, r6, r4
 1647              	.LVL152:
 1648 0030 2401     		lsl	r4, r4, #4
 1649 0032 054A     		ldr	r2, .L150+4
 1650 0034 9446     		mov	ip, r2
 1651 0036 6444     		add	r4, r4, ip
 1652 0038 A568     		ldr	r5, [r4, #8]
 1653 003a 2D0C     		lsr	r5, r5, #16
 1654 003c 2D04     		lsl	r5, r5, #16
 1655              	.LVL153:
1048:.\Generated_Source\PSoC4/CyDMA.c ****     CYDMA_DESCR_BASE.descriptor[channel][descriptor].ctl = regValue | (uint32)numDataElements;
 1656              		.loc 1 1048 0
 1657 003e 1D43     		orr	r5, r3
 1658              	.LVL154:
 1659 0040 A560     		str	r5, [r4, #8]
1049:.\Generated_Source\PSoC4/CyDMA.c **** }
 1660              		.loc 1 1049 0
 1661              		@ sp needed
 1662 0042 70BD     		pop	{r4, r5, r6, pc}
 1663              	.L151:
 1664              		.align	2
 1665              	.L150:
 1666 0044 FFFF0000 		.word	65535
 1667 0048 00181040 		.word	1074796544
 1668              		.cfi_endproc
 1669              	.LFE36:
 1670              		.size	CyDmaSetNumDataElements, .-CyDmaSetNumDataElements
 1671              		.section	.text.CyDmaGetNumDataElements,"ax",%progbits
 1672              		.align	2
 1673              		.global	CyDmaGetNumDataElements
 1674              		.code	16
 1675              		.thumb_func
 1676              		.type	CyDmaGetNumDataElements, %function
 1677              	CyDmaGetNumDataElements:
 1678              	.LFB37:
1050:.\Generated_Source\PSoC4/CyDMA.c **** 
1051:.\Generated_Source\PSoC4/CyDMA.c **** 
1052:.\Generated_Source\PSoC4/CyDMA.c **** /*******************************************************************************
1053:.\Generated_Source\PSoC4/CyDMA.c **** * Function Name: CyDmaGetNumDataElements
1054:.\Generated_Source\PSoC4/CyDMA.c **** ********************************************************************************
1055:.\Generated_Source\PSoC4/CyDMA.c **** *
1056:.\Generated_Source\PSoC4/CyDMA.c **** * Summary:
1057:.\Generated_Source\PSoC4/CyDMA.c **** *  Returns the number of data elements to be transferred. Only reflects the
ARM GAS  C:\Users\Tim\AppData\Local\Temp\ccEK2rHG.s 			page 50


1058:.\Generated_Source\PSoC4/CyDMA.c **** *  value written by CyDmaSetNumDataElements() or CyDmaSetConfiguration(). This
1059:.\Generated_Source\PSoC4/CyDMA.c **** *  does not reflect how many elements have been transferred. For that
1060:.\Generated_Source\PSoC4/CyDMA.c **** *  information use the CyDmaGetDescriptorStatus() function.
1061:.\Generated_Source\PSoC4/CyDMA.c **** *
1062:.\Generated_Source\PSoC4/CyDMA.c **** * Parameters:
1063:.\Generated_Source\PSoC4/CyDMA.c **** *  channel:    Channel used by this function.
1064:.\Generated_Source\PSoC4/CyDMA.c **** *  descriptor: Descriptor (0 or 1) modified by this function.
1065:.\Generated_Source\PSoC4/CyDMA.c **** *                   
1066:.\Generated_Source\PSoC4/CyDMA.c **** * Return:
1067:.\Generated_Source\PSoC4/CyDMA.c **** *  Number of data elements to transfer.
1068:.\Generated_Source\PSoC4/CyDMA.c **** *
1069:.\Generated_Source\PSoC4/CyDMA.c **** *******************************************************************************/
1070:.\Generated_Source\PSoC4/CyDMA.c **** int32 CyDmaGetNumDataElements(int32 channel, int32 descriptor)
1071:.\Generated_Source\PSoC4/CyDMA.c **** {
 1679              		.loc 1 1071 0
 1680              		.cfi_startproc
 1681              	.LVL155:
 1682 0000 38B5     		push	{r3, r4, r5, lr}
 1683              		.cfi_def_cfa_offset 16
 1684              		.cfi_offset 3, -16
 1685              		.cfi_offset 4, -12
 1686              		.cfi_offset 5, -8
 1687              		.cfi_offset 14, -4
 1688 0002 051C     		mov	r5, r0
 1689 0004 0C1C     		mov	r4, r1
1072:.\Generated_Source\PSoC4/CyDMA.c ****     uint32 numElements;
1073:.\Generated_Source\PSoC4/CyDMA.c **** 
1074:.\Generated_Source\PSoC4/CyDMA.c ****     CYASSERT((channel    >= 0) && (channel    < CYDMA_CH_NR));
 1690              		.loc 1 1074 0
 1691 0006 1F28     		cmp	r0, #31
 1692 0008 02D9     		bls	.L153
 1693              		.loc 1 1074 0 is_stmt 0 discriminator 1
 1694 000a 0020     		mov	r0, #0
 1695              	.LVL156:
 1696 000c FFF7FEFF 		bl	CyHalt
 1697              	.LVL157:
 1698              	.L153:
1075:.\Generated_Source\PSoC4/CyDMA.c ****     CYASSERT((descriptor >= 0) && (descriptor < CYDMA_DESCR_NR));
 1699              		.loc 1 1075 0 is_stmt 1
 1700 0010 012C     		cmp	r4, #1
 1701 0012 02D9     		bls	.L154
 1702              		.loc 1 1075 0 is_stmt 0 discriminator 1
 1703 0014 0020     		mov	r0, #0
 1704 0016 FFF7FEFF 		bl	CyHalt
 1705              	.LVL158:
 1706              	.L154:
1076:.\Generated_Source\PSoC4/CyDMA.c ****     
1077:.\Generated_Source\PSoC4/CyDMA.c ****     numElements = (CYDMA_DESCR_BASE.descriptor[channel][descriptor].ctl & CYDMA_DATA_NR) + 1u;
 1707              		.loc 1 1077 0 is_stmt 1
 1708 001a 6D00     		lsl	r5, r5, #1
 1709              	.LVL159:
 1710 001c 2C19     		add	r4, r5, r4
 1711              	.LVL160:
 1712 001e 2401     		lsl	r4, r4, #4
 1713 0020 034B     		ldr	r3, .L155
 1714 0022 9C46     		mov	ip, r3
 1715 0024 6444     		add	r4, r4, ip
ARM GAS  C:\Users\Tim\AppData\Local\Temp\ccEK2rHG.s 			page 51


 1716 0026 A068     		ldr	r0, [r4, #8]
 1717 0028 0004     		lsl	r0, r0, #16
 1718 002a 000C     		lsr	r0, r0, #16
 1719 002c 0130     		add	r0, r0, #1
 1720              	.LVL161:
1078:.\Generated_Source\PSoC4/CyDMA.c ****     return ((int32)numElements);
1079:.\Generated_Source\PSoC4/CyDMA.c **** }
 1721              		.loc 1 1079 0
 1722              		@ sp needed
 1723 002e 38BD     		pop	{r3, r4, r5, pc}
 1724              	.L156:
 1725              		.align	2
 1726              	.L155:
 1727 0030 00181040 		.word	1074796544
 1728              		.cfi_endproc
 1729              	.LFE37:
 1730              		.size	CyDmaGetNumDataElements, .-CyDmaGetNumDataElements
 1731              		.section	.text.CyDmaSetSrcDstTransferWidth,"ax",%progbits
 1732              		.align	2
 1733              		.global	CyDmaSetSrcDstTransferWidth
 1734              		.code	16
 1735              		.thumb_func
 1736              		.type	CyDmaSetSrcDstTransferWidth, %function
 1737              	CyDmaSetSrcDstTransferWidth:
 1738              	.LFB38:
1080:.\Generated_Source\PSoC4/CyDMA.c **** 
1081:.\Generated_Source\PSoC4/CyDMA.c **** 
1082:.\Generated_Source\PSoC4/CyDMA.c **** /*******************************************************************************
1083:.\Generated_Source\PSoC4/CyDMA.c **** * Function Name: CyDmaSetSrcDstTransferWidth
1084:.\Generated_Source\PSoC4/CyDMA.c **** ********************************************************************************
1085:.\Generated_Source\PSoC4/CyDMA.c **** *
1086:.\Generated_Source\PSoC4/CyDMA.c **** * Summary:
1087:.\Generated_Source\PSoC4/CyDMA.c **** *  Sets the width of the source and destination. The DMA can either read and
1088:.\Generated_Source\PSoC4/CyDMA.c **** *  write data from the source and destination at the size specified by
1089:.\Generated_Source\PSoC4/CyDMA.c **** *  CyDmaSetDataElementSize() or by a word (4bytes). This also determines how
1090:.\Generated_Source\PSoC4/CyDMA.c **** *  many bytes the addresses are incremented if increment source and destination
1091:.\Generated_Source\PSoC4/CyDMA.c **** *  address are turned on.
1092:.\Generated_Source\PSoC4/CyDMA.c **** *
1093:.\Generated_Source\PSoC4/CyDMA.c **** * Parameters:
1094:.\Generated_Source\PSoC4/CyDMA.c **** *  channel:       Channel used by this function.
1095:.\Generated_Source\PSoC4/CyDMA.c **** *  descriptor:    Descriptor (0 or 1) modified by this function.
1096:.\Generated_Source\PSoC4/CyDMA.c **** *  transferWidth: Specifies the source and destination widths. Refer to 
1097:.\Generated_Source\PSoC4/CyDMA.c **** *                 the API bit field definitions in CyDMA_P4.h or the API
1098:.\Generated_Source\PSoC4/CyDMA.c **** *                 description in the DMA channel datasheet for the parameter
1099:.\Generated_Source\PSoC4/CyDMA.c **** *                 options.
1100:.\Generated_Source\PSoC4/CyDMA.c **** *                   
1101:.\Generated_Source\PSoC4/CyDMA.c **** * Return:
1102:.\Generated_Source\PSoC4/CyDMA.c **** *  None.
1103:.\Generated_Source\PSoC4/CyDMA.c **** *
1104:.\Generated_Source\PSoC4/CyDMA.c **** * Side effect:
1105:.\Generated_Source\PSoC4/CyDMA.c **** *  This function should not be called when the specified descriptor is active
1106:.\Generated_Source\PSoC4/CyDMA.c **** *  in the DMA transfer engine. This can be checked by calling CyDmaGetStatus(). 
1107:.\Generated_Source\PSoC4/CyDMA.c **** *
1108:.\Generated_Source\PSoC4/CyDMA.c **** *******************************************************************************/
1109:.\Generated_Source\PSoC4/CyDMA.c **** void CyDmaSetSrcDstTransferWidth(int32 channel, int32 descriptor, uint32 transferWidth)
1110:.\Generated_Source\PSoC4/CyDMA.c **** {
 1739              		.loc 1 1110 0
ARM GAS  C:\Users\Tim\AppData\Local\Temp\ccEK2rHG.s 			page 52


 1740              		.cfi_startproc
 1741              	.LVL162:
 1742 0000 70B5     		push	{r4, r5, r6, lr}
 1743              		.cfi_def_cfa_offset 16
 1744              		.cfi_offset 4, -16
 1745              		.cfi_offset 5, -12
 1746              		.cfi_offset 6, -8
 1747              		.cfi_offset 14, -4
 1748 0002 061C     		mov	r6, r0
 1749 0004 0C1C     		mov	r4, r1
 1750 0006 151C     		mov	r5, r2
1111:.\Generated_Source\PSoC4/CyDMA.c ****     uint32 regValue;
1112:.\Generated_Source\PSoC4/CyDMA.c **** 
1113:.\Generated_Source\PSoC4/CyDMA.c ****     CYASSERT((channel    >= 0) && (channel    < CYDMA_CH_NR));
 1751              		.loc 1 1113 0
 1752 0008 1F28     		cmp	r0, #31
 1753 000a 02D9     		bls	.L158
 1754              		.loc 1 1113 0 is_stmt 0 discriminator 1
 1755 000c 0020     		mov	r0, #0
 1756              	.LVL163:
 1757 000e FFF7FEFF 		bl	CyHalt
 1758              	.LVL164:
 1759              	.L158:
1114:.\Generated_Source\PSoC4/CyDMA.c ****     CYASSERT((descriptor >= 0) && (descriptor < CYDMA_DESCR_NR));
 1760              		.loc 1 1114 0 is_stmt 1
 1761 0012 012C     		cmp	r4, #1
 1762 0014 02D9     		bls	.L159
 1763              		.loc 1 1114 0 is_stmt 0 discriminator 1
 1764 0016 0020     		mov	r0, #0
 1765 0018 FFF7FEFF 		bl	CyHalt
 1766              	.LVL165:
 1767              	.L159:
1115:.\Generated_Source\PSoC4/CyDMA.c ****     CYASSERT(0u == (transferWidth & (uint32)~CYDMA_TRANSFER_WIDTH));
 1768              		.loc 1 1115 0 is_stmt 1
 1769 001c 084B     		ldr	r3, .L161
 1770 001e 1D42     		tst	r5, r3
 1771 0020 02D0     		beq	.L160
 1772              		.loc 1 1115 0 is_stmt 0 discriminator 1
 1773 0022 0020     		mov	r0, #0
 1774 0024 FFF7FEFF 		bl	CyHalt
 1775              	.LVL166:
 1776              	.L160:
1116:.\Generated_Source\PSoC4/CyDMA.c **** 
1117:.\Generated_Source\PSoC4/CyDMA.c ****     regValue = CYDMA_DESCR_BASE.descriptor[channel][descriptor].ctl & (uint32)~CYDMA_TRANSFER_WIDTH
 1777              		.loc 1 1117 0 is_stmt 1
 1778 0028 7600     		lsl	r6, r6, #1
 1779              	.LVL167:
 1780 002a 3419     		add	r4, r6, r4
 1781              	.LVL168:
 1782 002c 2401     		lsl	r4, r4, #4
 1783 002e 054B     		ldr	r3, .L161+4
 1784 0030 9C46     		mov	ip, r3
 1785 0032 6444     		add	r4, r4, ip
 1786 0034 A268     		ldr	r2, [r4, #8]
 1787 0036 024B     		ldr	r3, .L161
 1788 0038 1340     		and	r3, r2
 1789              	.LVL169:
ARM GAS  C:\Users\Tim\AppData\Local\Temp\ccEK2rHG.s 			page 53


1118:.\Generated_Source\PSoC4/CyDMA.c ****     CYDMA_DESCR_BASE.descriptor[channel][descriptor].ctl = regValue | transferWidth;
 1790              		.loc 1 1118 0
 1791 003a 1D43     		orr	r5, r3
 1792              	.LVL170:
 1793 003c A560     		str	r5, [r4, #8]
1119:.\Generated_Source\PSoC4/CyDMA.c **** }
 1794              		.loc 1 1119 0
 1795              		@ sp needed
 1796 003e 70BD     		pop	{r4, r5, r6, pc}
 1797              	.L162:
 1798              		.align	2
 1799              	.L161:
 1800 0040 FFFFAFFF 		.word	-5242881
 1801 0044 00181040 		.word	1074796544
 1802              		.cfi_endproc
 1803              	.LFE38:
 1804              		.size	CyDmaSetSrcDstTransferWidth, .-CyDmaSetSrcDstTransferWidth
 1805              		.section	.text.CyDmaGetSrcDstTransferWidth,"ax",%progbits
 1806              		.align	2
 1807              		.global	CyDmaGetSrcDstTransferWidth
 1808              		.code	16
 1809              		.thumb_func
 1810              		.type	CyDmaGetSrcDstTransferWidth, %function
 1811              	CyDmaGetSrcDstTransferWidth:
 1812              	.LFB39:
1120:.\Generated_Source\PSoC4/CyDMA.c **** 
1121:.\Generated_Source\PSoC4/CyDMA.c **** 
1122:.\Generated_Source\PSoC4/CyDMA.c **** /*******************************************************************************
1123:.\Generated_Source\PSoC4/CyDMA.c **** * Function Name: CyDmaGetSrcDstTransferWidth
1124:.\Generated_Source\PSoC4/CyDMA.c **** ********************************************************************************
1125:.\Generated_Source\PSoC4/CyDMA.c **** *
1126:.\Generated_Source\PSoC4/CyDMA.c **** * Summary:
1127:.\Generated_Source\PSoC4/CyDMA.c **** *  Returns the width of the source and destination, as set by 
1128:.\Generated_Source\PSoC4/CyDMA.c **** *  CyDmaSetSrcDstTransferWidth() or CyDmaSetConfiguration().
1129:.\Generated_Source\PSoC4/CyDMA.c **** *
1130:.\Generated_Source\PSoC4/CyDMA.c **** * Parameters:
1131:.\Generated_Source\PSoC4/CyDMA.c **** *  channel:    Channel used by this function.
1132:.\Generated_Source\PSoC4/CyDMA.c **** *  descriptor: Descriptor (0 or 1) modified by this function.
1133:.\Generated_Source\PSoC4/CyDMA.c **** *                   
1134:.\Generated_Source\PSoC4/CyDMA.c **** * Return:
1135:.\Generated_Source\PSoC4/CyDMA.c **** *  Width of source and destination. Refer to the API bit field definitions in
1136:.\Generated_Source\PSoC4/CyDMA.c **** *  CyDMA_P4.h or the API description in the DMA channel datasheet for more
1137:.\Generated_Source\PSoC4/CyDMA.c **** *  information.
1138:.\Generated_Source\PSoC4/CyDMA.c **** *
1139:.\Generated_Source\PSoC4/CyDMA.c **** *******************************************************************************/
1140:.\Generated_Source\PSoC4/CyDMA.c **** uint32 CyDmaGetSrcDstTransferWidth(int32 channel, int32 descriptor)
1141:.\Generated_Source\PSoC4/CyDMA.c **** {
 1813              		.loc 1 1141 0
 1814              		.cfi_startproc
 1815              	.LVL171:
 1816 0000 38B5     		push	{r3, r4, r5, lr}
 1817              		.cfi_def_cfa_offset 16
 1818              		.cfi_offset 3, -16
 1819              		.cfi_offset 4, -12
 1820              		.cfi_offset 5, -8
 1821              		.cfi_offset 14, -4
 1822 0002 051C     		mov	r5, r0
ARM GAS  C:\Users\Tim\AppData\Local\Temp\ccEK2rHG.s 			page 54


 1823 0004 0C1C     		mov	r4, r1
1142:.\Generated_Source\PSoC4/CyDMA.c ****     CYASSERT((channel    >= 0) && (channel    < CYDMA_CH_NR));
 1824              		.loc 1 1142 0
 1825 0006 1F28     		cmp	r0, #31
 1826 0008 02D9     		bls	.L164
 1827              		.loc 1 1142 0 is_stmt 0 discriminator 1
 1828 000a 0020     		mov	r0, #0
 1829              	.LVL172:
 1830 000c FFF7FEFF 		bl	CyHalt
 1831              	.LVL173:
 1832              	.L164:
1143:.\Generated_Source\PSoC4/CyDMA.c ****     CYASSERT((descriptor >= 0) && (descriptor < CYDMA_DESCR_NR));
 1833              		.loc 1 1143 0 is_stmt 1
 1834 0010 012C     		cmp	r4, #1
 1835 0012 02D9     		bls	.L165
 1836              		.loc 1 1143 0 is_stmt 0 discriminator 1
 1837 0014 0020     		mov	r0, #0
 1838 0016 FFF7FEFF 		bl	CyHalt
 1839              	.LVL174:
 1840              	.L165:
1144:.\Generated_Source\PSoC4/CyDMA.c ****     return (CYDMA_DESCR_BASE.descriptor[channel][descriptor].ctl & CYDMA_TRANSFER_WIDTH);
 1841              		.loc 1 1144 0 is_stmt 1
 1842 001a 6D00     		lsl	r5, r5, #1
 1843              	.LVL175:
 1844 001c 2C19     		add	r4, r5, r4
 1845              	.LVL176:
 1846 001e 2401     		lsl	r4, r4, #4
 1847 0020 034B     		ldr	r3, .L166
 1848 0022 9C46     		mov	ip, r3
 1849 0024 6444     		add	r4, r4, ip
 1850 0026 A068     		ldr	r0, [r4, #8]
 1851 0028 A023     		mov	r3, #160
 1852 002a DB03     		lsl	r3, r3, #15
 1853 002c 1840     		and	r0, r3
1145:.\Generated_Source\PSoC4/CyDMA.c **** }
 1854              		.loc 1 1145 0
 1855              		@ sp needed
 1856 002e 38BD     		pop	{r3, r4, r5, pc}
 1857              	.L167:
 1858              		.align	2
 1859              	.L166:
 1860 0030 00181040 		.word	1074796544
 1861              		.cfi_endproc
 1862              	.LFE39:
 1863              		.size	CyDmaGetSrcDstTransferWidth, .-CyDmaGetSrcDstTransferWidth
 1864              		.section	.text.CyDmaSetAddressIncrement,"ax",%progbits
 1865              		.align	2
 1866              		.global	CyDmaSetAddressIncrement
 1867              		.code	16
 1868              		.thumb_func
 1869              		.type	CyDmaSetAddressIncrement, %function
 1870              	CyDmaSetAddressIncrement:
 1871              	.LFB40:
1146:.\Generated_Source\PSoC4/CyDMA.c **** 
1147:.\Generated_Source\PSoC4/CyDMA.c **** 
1148:.\Generated_Source\PSoC4/CyDMA.c **** /*******************************************************************************
1149:.\Generated_Source\PSoC4/CyDMA.c **** * Function Name: CyDmaSetAddressIncrement
ARM GAS  C:\Users\Tim\AppData\Local\Temp\ccEK2rHG.s 			page 55


1150:.\Generated_Source\PSoC4/CyDMA.c **** ********************************************************************************
1151:.\Generated_Source\PSoC4/CyDMA.c **** *
1152:.\Generated_Source\PSoC4/CyDMA.c **** * Summary:
1153:.\Generated_Source\PSoC4/CyDMA.c **** *  Sets whether the source or destination addresses are incremented after the
1154:.\Generated_Source\PSoC4/CyDMA.c **** *  transfer of each data element. The amount that the source and destination
1155:.\Generated_Source\PSoC4/CyDMA.c **** *  address are incremented is determined by the CyDmaSetSrcDstTransferWidth()
1156:.\Generated_Source\PSoC4/CyDMA.c **** *  function. The addresses will either be incremented by the data element size
1157:.\Generated_Source\PSoC4/CyDMA.c **** *  or by a word (4 bytes).
1158:.\Generated_Source\PSoC4/CyDMA.c **** *
1159:.\Generated_Source\PSoC4/CyDMA.c **** * Parameters:
1160:.\Generated_Source\PSoC4/CyDMA.c **** *  channel:          Channel used by this function.
1161:.\Generated_Source\PSoC4/CyDMA.c **** *  descriptor:       Descriptor (0 or 1) modified by this function.
1162:.\Generated_Source\PSoC4/CyDMA.c **** *  addressIncrement: Address increment settings. Refer to the API bit fields 
1163:.\Generated_Source\PSoC4/CyDMA.c **** *                    definition in CyDMA_P4.h or the API description in the DMA
1164:.\Generated_Source\PSoC4/CyDMA.c **** *                    channel datasheet for the parameter options.
1165:.\Generated_Source\PSoC4/CyDMA.c **** *    
1166:.\Generated_Source\PSoC4/CyDMA.c **** * Return:
1167:.\Generated_Source\PSoC4/CyDMA.c **** *  None.
1168:.\Generated_Source\PSoC4/CyDMA.c **** *
1169:.\Generated_Source\PSoC4/CyDMA.c **** * Side effect:
1170:.\Generated_Source\PSoC4/CyDMA.c **** *  This function should not be called when the specified descriptor is active
1171:.\Generated_Source\PSoC4/CyDMA.c **** *  in the DMA transfer engine. This can be checked by calling CyDmaGetStatus(). 
1172:.\Generated_Source\PSoC4/CyDMA.c **** *
1173:.\Generated_Source\PSoC4/CyDMA.c **** *******************************************************************************/
1174:.\Generated_Source\PSoC4/CyDMA.c **** void CyDmaSetAddressIncrement(int32 channel, int32 descriptor, uint32 addressIncrement)
1175:.\Generated_Source\PSoC4/CyDMA.c **** {
 1872              		.loc 1 1175 0
 1873              		.cfi_startproc
 1874              	.LVL177:
 1875 0000 70B5     		push	{r4, r5, r6, lr}
 1876              		.cfi_def_cfa_offset 16
 1877              		.cfi_offset 4, -16
 1878              		.cfi_offset 5, -12
 1879              		.cfi_offset 6, -8
 1880              		.cfi_offset 14, -4
 1881 0002 061C     		mov	r6, r0
 1882 0004 0C1C     		mov	r4, r1
 1883 0006 151C     		mov	r5, r2
1176:.\Generated_Source\PSoC4/CyDMA.c ****     uint32 regValue;
1177:.\Generated_Source\PSoC4/CyDMA.c **** 
1178:.\Generated_Source\PSoC4/CyDMA.c ****     CYASSERT((channel    >= 0) && (channel    < CYDMA_CH_NR));
 1884              		.loc 1 1178 0
 1885 0008 1F28     		cmp	r0, #31
 1886 000a 02D9     		bls	.L169
 1887              		.loc 1 1178 0 is_stmt 0 discriminator 1
 1888 000c 0020     		mov	r0, #0
 1889              	.LVL178:
 1890 000e FFF7FEFF 		bl	CyHalt
 1891              	.LVL179:
 1892              	.L169:
1179:.\Generated_Source\PSoC4/CyDMA.c ****     CYASSERT((descriptor >= 0) && (descriptor < CYDMA_DESCR_NR));
 1893              		.loc 1 1179 0 is_stmt 1
 1894 0012 012C     		cmp	r4, #1
 1895 0014 02D9     		bls	.L170
 1896              		.loc 1 1179 0 is_stmt 0 discriminator 1
 1897 0016 0020     		mov	r0, #0
 1898 0018 FFF7FEFF 		bl	CyHalt
ARM GAS  C:\Users\Tim\AppData\Local\Temp\ccEK2rHG.s 			page 56


 1899              	.LVL180:
 1900              	.L170:
1180:.\Generated_Source\PSoC4/CyDMA.c ****     CYASSERT(0u == (addressIncrement & (uint32)~CYDMA_ADDR_INCR));
 1901              		.loc 1 1180 0 is_stmt 1
 1902 001c 084B     		ldr	r3, .L172
 1903 001e 1D42     		tst	r5, r3
 1904 0020 02D0     		beq	.L171
 1905              		.loc 1 1180 0 is_stmt 0 discriminator 1
 1906 0022 0020     		mov	r0, #0
 1907 0024 FFF7FEFF 		bl	CyHalt
 1908              	.LVL181:
 1909              	.L171:
1181:.\Generated_Source\PSoC4/CyDMA.c **** 
1182:.\Generated_Source\PSoC4/CyDMA.c ****     regValue = CYDMA_DESCR_BASE.descriptor[channel][descriptor].ctl & (uint32)~CYDMA_ADDR_INCR;
 1910              		.loc 1 1182 0 is_stmt 1
 1911 0028 7600     		lsl	r6, r6, #1
 1912              	.LVL182:
 1913 002a 3419     		add	r4, r6, r4
 1914              	.LVL183:
 1915 002c 2401     		lsl	r4, r4, #4
 1916 002e 054B     		ldr	r3, .L172+4
 1917 0030 9C46     		mov	ip, r3
 1918 0032 6444     		add	r4, r4, ip
 1919 0034 A268     		ldr	r2, [r4, #8]
 1920 0036 024B     		ldr	r3, .L172
 1921 0038 1340     		and	r3, r2
 1922              	.LVL184:
1183:.\Generated_Source\PSoC4/CyDMA.c ****     CYDMA_DESCR_BASE.descriptor[channel][descriptor].ctl = regValue | addressIncrement;
 1923              		.loc 1 1183 0
 1924 003a 1D43     		orr	r5, r3
 1925              	.LVL185:
 1926 003c A560     		str	r5, [r4, #8]
1184:.\Generated_Source\PSoC4/CyDMA.c **** }
 1927              		.loc 1 1184 0
 1928              		@ sp needed
 1929 003e 70BD     		pop	{r4, r5, r6, pc}
 1930              	.L173:
 1931              		.align	2
 1932              	.L172:
 1933 0040 FFFF5FFF 		.word	-10485761
 1934 0044 00181040 		.word	1074796544
 1935              		.cfi_endproc
 1936              	.LFE40:
 1937              		.size	CyDmaSetAddressIncrement, .-CyDmaSetAddressIncrement
 1938              		.section	.text.CyDmaGetAddressIncrement,"ax",%progbits
 1939              		.align	2
 1940              		.global	CyDmaGetAddressIncrement
 1941              		.code	16
 1942              		.thumb_func
 1943              		.type	CyDmaGetAddressIncrement, %function
 1944              	CyDmaGetAddressIncrement:
 1945              	.LFB41:
1185:.\Generated_Source\PSoC4/CyDMA.c **** 
1186:.\Generated_Source\PSoC4/CyDMA.c **** 
1187:.\Generated_Source\PSoC4/CyDMA.c **** /*******************************************************************************
1188:.\Generated_Source\PSoC4/CyDMA.c **** * Function Name: CyDmaGetAddressIncrement
1189:.\Generated_Source\PSoC4/CyDMA.c **** ********************************************************************************
ARM GAS  C:\Users\Tim\AppData\Local\Temp\ccEK2rHG.s 			page 57


1190:.\Generated_Source\PSoC4/CyDMA.c **** *
1191:.\Generated_Source\PSoC4/CyDMA.c **** * Summary:
1192:.\Generated_Source\PSoC4/CyDMA.c **** *  Returns address increment settings as set by CyDmaSetAddressIncrement() or
1193:.\Generated_Source\PSoC4/CyDMA.c **** *  CyDmaSetConfiguration().
1194:.\Generated_Source\PSoC4/CyDMA.c **** *
1195:.\Generated_Source\PSoC4/CyDMA.c **** * Parameters:
1196:.\Generated_Source\PSoC4/CyDMA.c **** *  channel:    Channel used by this function.
1197:.\Generated_Source\PSoC4/CyDMA.c **** *  descriptor: Descriptor (0 or 1) modified by this function.
1198:.\Generated_Source\PSoC4/CyDMA.c **** *                   
1199:.\Generated_Source\PSoC4/CyDMA.c **** * Return:
1200:.\Generated_Source\PSoC4/CyDMA.c **** *  Address increment settings. Refer to the API bit field definitions in
1201:.\Generated_Source\PSoC4/CyDMA.c **** *  CyDMA_P4.h or the API description in the DMA channel datasheet for more
1202:.\Generated_Source\PSoC4/CyDMA.c **** *  information.
1203:.\Generated_Source\PSoC4/CyDMA.c **** *
1204:.\Generated_Source\PSoC4/CyDMA.c **** *******************************************************************************/
1205:.\Generated_Source\PSoC4/CyDMA.c **** uint32 CyDmaGetAddressIncrement(int32 channel, int32 descriptor)
1206:.\Generated_Source\PSoC4/CyDMA.c **** {
 1946              		.loc 1 1206 0
 1947              		.cfi_startproc
 1948              	.LVL186:
 1949 0000 38B5     		push	{r3, r4, r5, lr}
 1950              		.cfi_def_cfa_offset 16
 1951              		.cfi_offset 3, -16
 1952              		.cfi_offset 4, -12
 1953              		.cfi_offset 5, -8
 1954              		.cfi_offset 14, -4
 1955 0002 051C     		mov	r5, r0
 1956 0004 0C1C     		mov	r4, r1
1207:.\Generated_Source\PSoC4/CyDMA.c ****     CYASSERT((channel    >= 0) && (channel    < CYDMA_CH_NR));
 1957              		.loc 1 1207 0
 1958 0006 1F28     		cmp	r0, #31
 1959 0008 02D9     		bls	.L175
 1960              		.loc 1 1207 0 is_stmt 0 discriminator 1
 1961 000a 0020     		mov	r0, #0
 1962              	.LVL187:
 1963 000c FFF7FEFF 		bl	CyHalt
 1964              	.LVL188:
 1965              	.L175:
1208:.\Generated_Source\PSoC4/CyDMA.c ****     CYASSERT((descriptor >= 0) && (descriptor < CYDMA_DESCR_NR));
 1966              		.loc 1 1208 0 is_stmt 1
 1967 0010 012C     		cmp	r4, #1
 1968 0012 02D9     		bls	.L176
 1969              		.loc 1 1208 0 is_stmt 0 discriminator 1
 1970 0014 0020     		mov	r0, #0
 1971 0016 FFF7FEFF 		bl	CyHalt
 1972              	.LVL189:
 1973              	.L176:
1209:.\Generated_Source\PSoC4/CyDMA.c **** 
1210:.\Generated_Source\PSoC4/CyDMA.c ****     return (CYDMA_DESCR_BASE.descriptor[channel][descriptor].ctl & CYDMA_ADDR_INCR);
 1974              		.loc 1 1210 0 is_stmt 1
 1975 001a 6D00     		lsl	r5, r5, #1
 1976              	.LVL190:
 1977 001c 2C19     		add	r4, r5, r4
 1978              	.LVL191:
 1979 001e 2401     		lsl	r4, r4, #4
 1980 0020 034B     		ldr	r3, .L177
 1981 0022 9C46     		mov	ip, r3
ARM GAS  C:\Users\Tim\AppData\Local\Temp\ccEK2rHG.s 			page 58


 1982 0024 6444     		add	r4, r4, ip
 1983 0026 A068     		ldr	r0, [r4, #8]
 1984 0028 A023     		mov	r3, #160
 1985 002a 1B04     		lsl	r3, r3, #16
 1986 002c 1840     		and	r0, r3
1211:.\Generated_Source\PSoC4/CyDMA.c **** }
 1987              		.loc 1 1211 0
 1988              		@ sp needed
 1989 002e 38BD     		pop	{r3, r4, r5, pc}
 1990              	.L178:
 1991              		.align	2
 1992              	.L177:
 1993 0030 00181040 		.word	1074796544
 1994              		.cfi_endproc
 1995              	.LFE41:
 1996              		.size	CyDmaGetAddressIncrement, .-CyDmaGetAddressIncrement
 1997              		.section	.text.CyDmaSetTriggerType,"ax",%progbits
 1998              		.align	2
 1999              		.global	CyDmaSetTriggerType
 2000              		.code	16
 2001              		.thumb_func
 2002              		.type	CyDmaSetTriggerType, %function
 2003              	CyDmaSetTriggerType:
 2004              	.LFB42:
1212:.\Generated_Source\PSoC4/CyDMA.c **** 
1213:.\Generated_Source\PSoC4/CyDMA.c **** 
1214:.\Generated_Source\PSoC4/CyDMA.c **** /*******************************************************************************
1215:.\Generated_Source\PSoC4/CyDMA.c **** * Function Name: CyDmaSetTriggerType
1216:.\Generated_Source\PSoC4/CyDMA.c **** ********************************************************************************
1217:.\Generated_Source\PSoC4/CyDMA.c **** *
1218:.\Generated_Source\PSoC4/CyDMA.c **** * Summary:
1219:.\Generated_Source\PSoC4/CyDMA.c **** *  Sets the type of input trigger for the DMA For level sensitive triggers sets
1220:.\Generated_Source\PSoC4/CyDMA.c **** *  how long the DMA waits for the trigger to go low (deactivate) before
1221:.\Generated_Source\PSoC4/CyDMA.c **** *  triggering the channel again.
1222:.\Generated_Source\PSoC4/CyDMA.c **** *
1223:.\Generated_Source\PSoC4/CyDMA.c **** * Parameters:
1224:.\Generated_Source\PSoC4/CyDMA.c **** *  channel:     Channel used by this function.
1225:.\Generated_Source\PSoC4/CyDMA.c **** *  descriptor:  Descriptor (0 or 1) modified by this function.
1226:.\Generated_Source\PSoC4/CyDMA.c **** *  triggerType: Type of DMA trigger. Refer to the API bit field definitions
1227:.\Generated_Source\PSoC4/CyDMA.c **** *               in CyDMA_P4.h or the API description in the DMA channel
1228:.\Generated_Source\PSoC4/CyDMA.c **** *               datasheet for the parameter options.
1229:.\Generated_Source\PSoC4/CyDMA.c **** *                   
1230:.\Generated_Source\PSoC4/CyDMA.c **** * Return:
1231:.\Generated_Source\PSoC4/CyDMA.c **** *  None.
1232:.\Generated_Source\PSoC4/CyDMA.c **** *
1233:.\Generated_Source\PSoC4/CyDMA.c **** * Side effect:
1234:.\Generated_Source\PSoC4/CyDMA.c **** *  This function should not be called when the specified descriptor is active
1235:.\Generated_Source\PSoC4/CyDMA.c **** *  in the DMA transfer engine. This can be checked by calling CyDmaGetStatus(). 
1236:.\Generated_Source\PSoC4/CyDMA.c **** *
1237:.\Generated_Source\PSoC4/CyDMA.c **** *******************************************************************************/
1238:.\Generated_Source\PSoC4/CyDMA.c **** void CyDmaSetTriggerType(int32 channel, int32 descriptor, uint32 triggerType)
1239:.\Generated_Source\PSoC4/CyDMA.c **** {
 2005              		.loc 1 1239 0
 2006              		.cfi_startproc
 2007              	.LVL192:
 2008 0000 70B5     		push	{r4, r5, r6, lr}
 2009              		.cfi_def_cfa_offset 16
ARM GAS  C:\Users\Tim\AppData\Local\Temp\ccEK2rHG.s 			page 59


 2010              		.cfi_offset 4, -16
 2011              		.cfi_offset 5, -12
 2012              		.cfi_offset 6, -8
 2013              		.cfi_offset 14, -4
 2014 0002 061C     		mov	r6, r0
 2015 0004 0C1C     		mov	r4, r1
 2016 0006 151C     		mov	r5, r2
1240:.\Generated_Source\PSoC4/CyDMA.c ****     uint32 regValue;
1241:.\Generated_Source\PSoC4/CyDMA.c **** 
1242:.\Generated_Source\PSoC4/CyDMA.c ****     CYASSERT((channel    >= 0) && (channel    < CYDMA_CH_NR));
 2017              		.loc 1 1242 0
 2018 0008 1F28     		cmp	r0, #31
 2019 000a 02D9     		bls	.L180
 2020              		.loc 1 1242 0 is_stmt 0 discriminator 1
 2021 000c 0020     		mov	r0, #0
 2022              	.LVL193:
 2023 000e FFF7FEFF 		bl	CyHalt
 2024              	.LVL194:
 2025              	.L180:
1243:.\Generated_Source\PSoC4/CyDMA.c ****     CYASSERT((descriptor >= 0) && (descriptor < CYDMA_DESCR_NR));
 2026              		.loc 1 1243 0 is_stmt 1
 2027 0012 012C     		cmp	r4, #1
 2028 0014 02D9     		bls	.L181
 2029              		.loc 1 1243 0 is_stmt 0 discriminator 1
 2030 0016 0020     		mov	r0, #0
 2031 0018 FFF7FEFF 		bl	CyHalt
 2032              	.LVL195:
 2033              	.L181:
1244:.\Generated_Source\PSoC4/CyDMA.c ****     CYASSERT(0u == (triggerType & (uint32)~CYDMA_TRIGGER_TYPE));
 2034              		.loc 1 1244 0 is_stmt 1
 2035 001c 084B     		ldr	r3, .L183
 2036 001e 1D42     		tst	r5, r3
 2037 0020 02D0     		beq	.L182
 2038              		.loc 1 1244 0 is_stmt 0 discriminator 1
 2039 0022 0020     		mov	r0, #0
 2040 0024 FFF7FEFF 		bl	CyHalt
 2041              	.LVL196:
 2042              	.L182:
1245:.\Generated_Source\PSoC4/CyDMA.c **** 
1246:.\Generated_Source\PSoC4/CyDMA.c ****     regValue = CYDMA_DESCR_BASE.descriptor[channel][descriptor].ctl & (uint32)~CYDMA_TRIGGER_TYPE;
 2043              		.loc 1 1246 0 is_stmt 1
 2044 0028 7600     		lsl	r6, r6, #1
 2045              	.LVL197:
 2046 002a 3419     		add	r4, r6, r4
 2047              	.LVL198:
 2048 002c 2401     		lsl	r4, r4, #4
 2049 002e 054B     		ldr	r3, .L183+4
 2050 0030 9C46     		mov	ip, r3
 2051 0032 6444     		add	r4, r4, ip
 2052 0034 A268     		ldr	r2, [r4, #8]
 2053 0036 024B     		ldr	r3, .L183
 2054 0038 1340     		and	r3, r2
 2055              	.LVL199:
1247:.\Generated_Source\PSoC4/CyDMA.c ****     CYDMA_DESCR_BASE.descriptor[channel][descriptor].ctl = regValue | triggerType;
 2056              		.loc 1 1247 0
 2057 003a 1D43     		orr	r5, r3
 2058              	.LVL200:
ARM GAS  C:\Users\Tim\AppData\Local\Temp\ccEK2rHG.s 			page 60


 2059 003c A560     		str	r5, [r4, #8]
1248:.\Generated_Source\PSoC4/CyDMA.c **** }
 2060              		.loc 1 1248 0
 2061              		@ sp needed
 2062 003e 70BD     		pop	{r4, r5, r6, pc}
 2063              	.L184:
 2064              		.align	2
 2065              	.L183:
 2066 0040 FFFFFFFC 		.word	-50331649
 2067 0044 00181040 		.word	1074796544
 2068              		.cfi_endproc
 2069              	.LFE42:
 2070              		.size	CyDmaSetTriggerType, .-CyDmaSetTriggerType
 2071              		.section	.text.CyDmaGetTriggerType,"ax",%progbits
 2072              		.align	2
 2073              		.global	CyDmaGetTriggerType
 2074              		.code	16
 2075              		.thumb_func
 2076              		.type	CyDmaGetTriggerType, %function
 2077              	CyDmaGetTriggerType:
 2078              	.LFB43:
1249:.\Generated_Source\PSoC4/CyDMA.c **** 
1250:.\Generated_Source\PSoC4/CyDMA.c **** 
1251:.\Generated_Source\PSoC4/CyDMA.c **** /*******************************************************************************
1252:.\Generated_Source\PSoC4/CyDMA.c **** * Function Name: CyDmaGetTriggerType
1253:.\Generated_Source\PSoC4/CyDMA.c **** ********************************************************************************
1254:.\Generated_Source\PSoC4/CyDMA.c **** *
1255:.\Generated_Source\PSoC4/CyDMA.c **** * Summary:
1256:.\Generated_Source\PSoC4/CyDMA.c **** *  Returns the trigger deactivation settings as set by CyDmaSetTriggerType() or
1257:.\Generated_Source\PSoC4/CyDMA.c **** *  CyDmaSetConfiguration().
1258:.\Generated_Source\PSoC4/CyDMA.c **** *
1259:.\Generated_Source\PSoC4/CyDMA.c **** * Parameters:
1260:.\Generated_Source\PSoC4/CyDMA.c **** *  channel:    Channel used by this function.
1261:.\Generated_Source\PSoC4/CyDMA.c **** *  descriptor: Descriptor (0 or 1) modified by this function.
1262:.\Generated_Source\PSoC4/CyDMA.c **** *                   
1263:.\Generated_Source\PSoC4/CyDMA.c **** * Return:
1264:.\Generated_Source\PSoC4/CyDMA.c **** *  Trigger deactivation settings. Refer to the API bit field definitions in
1265:.\Generated_Source\PSoC4/CyDMA.c **** *  CyDMA_P4.h or the API description in the DMA channel datasheet for more
1266:.\Generated_Source\PSoC4/CyDMA.c **** *  information.
1267:.\Generated_Source\PSoC4/CyDMA.c **** *
1268:.\Generated_Source\PSoC4/CyDMA.c **** *******************************************************************************/
1269:.\Generated_Source\PSoC4/CyDMA.c **** uint32 CyDmaGetTriggerType(int32 channel, int32 descriptor)
1270:.\Generated_Source\PSoC4/CyDMA.c **** {
 2079              		.loc 1 1270 0
 2080              		.cfi_startproc
 2081              	.LVL201:
 2082 0000 38B5     		push	{r3, r4, r5, lr}
 2083              		.cfi_def_cfa_offset 16
 2084              		.cfi_offset 3, -16
 2085              		.cfi_offset 4, -12
 2086              		.cfi_offset 5, -8
 2087              		.cfi_offset 14, -4
 2088 0002 051C     		mov	r5, r0
 2089 0004 0C1C     		mov	r4, r1
1271:.\Generated_Source\PSoC4/CyDMA.c ****     CYASSERT((channel    >= 0) && (channel    < CYDMA_CH_NR));
 2090              		.loc 1 1271 0
 2091 0006 1F28     		cmp	r0, #31
ARM GAS  C:\Users\Tim\AppData\Local\Temp\ccEK2rHG.s 			page 61


 2092 0008 02D9     		bls	.L186
 2093              		.loc 1 1271 0 is_stmt 0 discriminator 1
 2094 000a 0020     		mov	r0, #0
 2095              	.LVL202:
 2096 000c FFF7FEFF 		bl	CyHalt
 2097              	.LVL203:
 2098              	.L186:
1272:.\Generated_Source\PSoC4/CyDMA.c ****     CYASSERT((descriptor >= 0) && (descriptor < CYDMA_DESCR_NR));
 2099              		.loc 1 1272 0 is_stmt 1
 2100 0010 012C     		cmp	r4, #1
 2101 0012 02D9     		bls	.L187
 2102              		.loc 1 1272 0 is_stmt 0 discriminator 1
 2103 0014 0020     		mov	r0, #0
 2104 0016 FFF7FEFF 		bl	CyHalt
 2105              	.LVL204:
 2106              	.L187:
1273:.\Generated_Source\PSoC4/CyDMA.c **** 
1274:.\Generated_Source\PSoC4/CyDMA.c ****     return (CYDMA_DESCR_BASE.descriptor[channel][descriptor].ctl & CYDMA_TRIGGER_TYPE);
 2107              		.loc 1 1274 0 is_stmt 1
 2108 001a 6D00     		lsl	r5, r5, #1
 2109              	.LVL205:
 2110 001c 2C19     		add	r4, r5, r4
 2111              	.LVL206:
 2112 001e 2401     		lsl	r4, r4, #4
 2113 0020 034B     		ldr	r3, .L188
 2114 0022 9C46     		mov	ip, r3
 2115 0024 6444     		add	r4, r4, ip
 2116 0026 A068     		ldr	r0, [r4, #8]
 2117 0028 C023     		mov	r3, #192
 2118 002a 9B04     		lsl	r3, r3, #18
 2119 002c 1840     		and	r0, r3
1275:.\Generated_Source\PSoC4/CyDMA.c **** }
 2120              		.loc 1 1275 0
 2121              		@ sp needed
 2122 002e 38BD     		pop	{r3, r4, r5, pc}
 2123              	.L189:
 2124              		.align	2
 2125              	.L188:
 2126 0030 00181040 		.word	1074796544
 2127              		.cfi_endproc
 2128              	.LFE43:
 2129              		.size	CyDmaGetTriggerType, .-CyDmaGetTriggerType
 2130              		.section	.text.CyDmaSetTransferMode,"ax",%progbits
 2131              		.align	2
 2132              		.global	CyDmaSetTransferMode
 2133              		.code	16
 2134              		.thumb_func
 2135              		.type	CyDmaSetTransferMode, %function
 2136              	CyDmaSetTransferMode:
 2137              	.LFB44:
1276:.\Generated_Source\PSoC4/CyDMA.c **** 
1277:.\Generated_Source\PSoC4/CyDMA.c **** 
1278:.\Generated_Source\PSoC4/CyDMA.c **** /*******************************************************************************
1279:.\Generated_Source\PSoC4/CyDMA.c **** * Function Name: CyDmaSetTransferMode
1280:.\Generated_Source\PSoC4/CyDMA.c **** ********************************************************************************
1281:.\Generated_Source\PSoC4/CyDMA.c **** *
1282:.\Generated_Source\PSoC4/CyDMA.c **** * Summary:
ARM GAS  C:\Users\Tim\AppData\Local\Temp\ccEK2rHG.s 			page 62


1283:.\Generated_Source\PSoC4/CyDMA.c **** *  Sets the DMA transfer mode. This determines how the DMA reacts to each trigger
1284:.\Generated_Source\PSoC4/CyDMA.c **** *  event.
1285:.\Generated_Source\PSoC4/CyDMA.c **** *
1286:.\Generated_Source\PSoC4/CyDMA.c **** * Parameters:
1287:.\Generated_Source\PSoC4/CyDMA.c **** *  channel:      Channel used by this function.
1288:.\Generated_Source\PSoC4/CyDMA.c **** *  descriptor:   Descriptor (0 or 1) modified by this function.
1289:.\Generated_Source\PSoC4/CyDMA.c **** *  transferMode: Specifies the DMA transfer mode settings. Refer to the API bit
1290:.\Generated_Source\PSoC4/CyDMA.c **** *                field definitions in CyDMA_P4.h or the API description in the
1291:.\Generated_Source\PSoC4/CyDMA.c **** *                DMA channel datasheet for the parameter options.
1292:.\Generated_Source\PSoC4/CyDMA.c **** *                   
1293:.\Generated_Source\PSoC4/CyDMA.c **** * Return:
1294:.\Generated_Source\PSoC4/CyDMA.c **** *  None.
1295:.\Generated_Source\PSoC4/CyDMA.c **** *
1296:.\Generated_Source\PSoC4/CyDMA.c **** * Side effect:
1297:.\Generated_Source\PSoC4/CyDMA.c **** *  This function should not be called when the specified descriptor is active
1298:.\Generated_Source\PSoC4/CyDMA.c **** *  in the DMA transfer engine. This can be checked by calling CyDmaGetStatus(). 
1299:.\Generated_Source\PSoC4/CyDMA.c **** *
1300:.\Generated_Source\PSoC4/CyDMA.c **** *******************************************************************************/
1301:.\Generated_Source\PSoC4/CyDMA.c **** void CyDmaSetTransferMode(int32 channel, int32 descriptor, uint32 transferMode)
1302:.\Generated_Source\PSoC4/CyDMA.c **** {
 2138              		.loc 1 1302 0
 2139              		.cfi_startproc
 2140              	.LVL207:
 2141 0000 70B5     		push	{r4, r5, r6, lr}
 2142              		.cfi_def_cfa_offset 16
 2143              		.cfi_offset 4, -16
 2144              		.cfi_offset 5, -12
 2145              		.cfi_offset 6, -8
 2146              		.cfi_offset 14, -4
 2147 0002 061C     		mov	r6, r0
 2148 0004 0C1C     		mov	r4, r1
 2149 0006 151C     		mov	r5, r2
1303:.\Generated_Source\PSoC4/CyDMA.c ****     uint32 regValue;
1304:.\Generated_Source\PSoC4/CyDMA.c **** 
1305:.\Generated_Source\PSoC4/CyDMA.c ****     CYASSERT((channel    >= 0) && (channel    < CYDMA_CH_NR));
 2150              		.loc 1 1305 0
 2151 0008 1F28     		cmp	r0, #31
 2152 000a 02D9     		bls	.L191
 2153              		.loc 1 1305 0 is_stmt 0 discriminator 1
 2154 000c 0020     		mov	r0, #0
 2155              	.LVL208:
 2156 000e FFF7FEFF 		bl	CyHalt
 2157              	.LVL209:
 2158              	.L191:
1306:.\Generated_Source\PSoC4/CyDMA.c ****     CYASSERT((descriptor >= 0) && (descriptor < CYDMA_DESCR_NR));
 2159              		.loc 1 1306 0 is_stmt 1
 2160 0012 012C     		cmp	r4, #1
 2161 0014 02D9     		bls	.L192
 2162              		.loc 1 1306 0 is_stmt 0 discriminator 1
 2163 0016 0020     		mov	r0, #0
 2164 0018 FFF7FEFF 		bl	CyHalt
 2165              	.LVL210:
 2166              	.L192:
1307:.\Generated_Source\PSoC4/CyDMA.c ****     CYASSERT(0u == (transferMode & (uint32)~CYDMA_TRANSFER_MODE));
 2167              		.loc 1 1307 0 is_stmt 1
 2168 001c AB00     		lsl	r3, r5, #2
 2169 001e 02D0     		beq	.L193
ARM GAS  C:\Users\Tim\AppData\Local\Temp\ccEK2rHG.s 			page 63


 2170              		.loc 1 1307 0 is_stmt 0 discriminator 1
 2171 0020 0020     		mov	r0, #0
 2172 0022 FFF7FEFF 		bl	CyHalt
 2173              	.LVL211:
 2174              	.L193:
1308:.\Generated_Source\PSoC4/CyDMA.c **** 
1309:.\Generated_Source\PSoC4/CyDMA.c ****     regValue = CYDMA_DESCR_BASE.descriptor[channel][descriptor].ctl & (uint32)~CYDMA_TRANSFER_MODE;
 2175              		.loc 1 1309 0 is_stmt 1
 2176 0026 7600     		lsl	r6, r6, #1
 2177              	.LVL212:
 2178 0028 3419     		add	r4, r6, r4
 2179              	.LVL213:
 2180 002a 2401     		lsl	r4, r4, #4
 2181 002c 044B     		ldr	r3, .L194
 2182 002e 9C46     		mov	ip, r3
 2183 0030 6444     		add	r4, r4, ip
 2184 0032 A268     		ldr	r2, [r4, #8]
 2185 0034 9200     		lsl	r2, r2, #2
 2186 0036 9208     		lsr	r2, r2, #2
 2187              	.LVL214:
1310:.\Generated_Source\PSoC4/CyDMA.c ****     CYDMA_DESCR_BASE.descriptor[channel][descriptor].ctl = regValue | transferMode;
 2188              		.loc 1 1310 0
 2189 0038 2A43     		orr	r2, r5
 2190              	.LVL215:
 2191 003a A260     		str	r2, [r4, #8]
1311:.\Generated_Source\PSoC4/CyDMA.c **** }
 2192              		.loc 1 1311 0
 2193              		@ sp needed
 2194              	.LVL216:
 2195 003c 70BD     		pop	{r4, r5, r6, pc}
 2196              	.L195:
 2197 003e C046     		.align	2
 2198              	.L194:
 2199 0040 00181040 		.word	1074796544
 2200              		.cfi_endproc
 2201              	.LFE44:
 2202              		.size	CyDmaSetTransferMode, .-CyDmaSetTransferMode
 2203              		.section	.text.CyDmaGetTransferMode,"ax",%progbits
 2204              		.align	2
 2205              		.global	CyDmaGetTransferMode
 2206              		.code	16
 2207              		.thumb_func
 2208              		.type	CyDmaGetTransferMode, %function
 2209              	CyDmaGetTransferMode:
 2210              	.LFB45:
1312:.\Generated_Source\PSoC4/CyDMA.c **** 
1313:.\Generated_Source\PSoC4/CyDMA.c **** 
1314:.\Generated_Source\PSoC4/CyDMA.c **** /*******************************************************************************
1315:.\Generated_Source\PSoC4/CyDMA.c **** * Function Name: CyDmaGetTransferMode
1316:.\Generated_Source\PSoC4/CyDMA.c **** ********************************************************************************
1317:.\Generated_Source\PSoC4/CyDMA.c **** *
1318:.\Generated_Source\PSoC4/CyDMA.c **** * Summary:
1319:.\Generated_Source\PSoC4/CyDMA.c **** *  Returns the transfer mode for the specified descriptor as set by 
1320:.\Generated_Source\PSoC4/CyDMA.c **** *  CyDmaSetTransferMode() or CyDmaSetConfiguration.
1321:.\Generated_Source\PSoC4/CyDMA.c **** *
1322:.\Generated_Source\PSoC4/CyDMA.c **** * Parameters:
1323:.\Generated_Source\PSoC4/CyDMA.c **** *  channel:    Channel used by this function.
ARM GAS  C:\Users\Tim\AppData\Local\Temp\ccEK2rHG.s 			page 64


1324:.\Generated_Source\PSoC4/CyDMA.c **** *  descriptor: Descriptor (0 or 1) modified by this function.
1325:.\Generated_Source\PSoC4/CyDMA.c **** *                   
1326:.\Generated_Source\PSoC4/CyDMA.c **** * Return:
1327:.\Generated_Source\PSoC4/CyDMA.c **** *  DMA transfer mode settings. Refer to the API bit field definitions in
1328:.\Generated_Source\PSoC4/CyDMA.c **** *  CyDMA_P4.h or the API description in the DMA channel datasheet for more
1329:.\Generated_Source\PSoC4/CyDMA.c **** *  information.
1330:.\Generated_Source\PSoC4/CyDMA.c **** *
1331:.\Generated_Source\PSoC4/CyDMA.c **** *******************************************************************************/
1332:.\Generated_Source\PSoC4/CyDMA.c **** uint32 CyDmaGetTransferMode(int32 channel, int32 descriptor)
1333:.\Generated_Source\PSoC4/CyDMA.c **** {
 2211              		.loc 1 1333 0
 2212              		.cfi_startproc
 2213              	.LVL217:
 2214 0000 38B5     		push	{r3, r4, r5, lr}
 2215              		.cfi_def_cfa_offset 16
 2216              		.cfi_offset 3, -16
 2217              		.cfi_offset 4, -12
 2218              		.cfi_offset 5, -8
 2219              		.cfi_offset 14, -4
 2220 0002 051C     		mov	r5, r0
 2221 0004 0C1C     		mov	r4, r1
1334:.\Generated_Source\PSoC4/CyDMA.c ****     CYASSERT((channel    >= 0) && (channel    < CYDMA_CH_NR));
 2222              		.loc 1 1334 0
 2223 0006 1F28     		cmp	r0, #31
 2224 0008 02D9     		bls	.L197
 2225              		.loc 1 1334 0 is_stmt 0 discriminator 1
 2226 000a 0020     		mov	r0, #0
 2227              	.LVL218:
 2228 000c FFF7FEFF 		bl	CyHalt
 2229              	.LVL219:
 2230              	.L197:
1335:.\Generated_Source\PSoC4/CyDMA.c ****     CYASSERT((descriptor >= 0) && (descriptor < CYDMA_DESCR_NR));
 2231              		.loc 1 1335 0 is_stmt 1
 2232 0010 012C     		cmp	r4, #1
 2233 0012 02D9     		bls	.L198
 2234              		.loc 1 1335 0 is_stmt 0 discriminator 1
 2235 0014 0020     		mov	r0, #0
 2236 0016 FFF7FEFF 		bl	CyHalt
 2237              	.LVL220:
 2238              	.L198:
1336:.\Generated_Source\PSoC4/CyDMA.c **** 
1337:.\Generated_Source\PSoC4/CyDMA.c ****     return (CYDMA_DESCR_BASE.descriptor[channel][descriptor].ctl & CYDMA_TRANSFER_MODE);
 2239              		.loc 1 1337 0 is_stmt 1
 2240 001a 6D00     		lsl	r5, r5, #1
 2241              	.LVL221:
 2242 001c 2C19     		add	r4, r5, r4
 2243              	.LVL222:
 2244 001e 2401     		lsl	r4, r4, #4
 2245 0020 034B     		ldr	r3, .L199
 2246 0022 9C46     		mov	ip, r3
 2247 0024 6444     		add	r4, r4, ip
 2248 0026 A068     		ldr	r0, [r4, #8]
 2249 0028 800F     		lsr	r0, r0, #30
 2250 002a 8007     		lsl	r0, r0, #30
1338:.\Generated_Source\PSoC4/CyDMA.c **** }
 2251              		.loc 1 1338 0
 2252              		@ sp needed
ARM GAS  C:\Users\Tim\AppData\Local\Temp\ccEK2rHG.s 			page 65


 2253 002c 38BD     		pop	{r3, r4, r5, pc}
 2254              	.L200:
 2255 002e C046     		.align	2
 2256              	.L199:
 2257 0030 00181040 		.word	1074796544
 2258              		.cfi_endproc
 2259              	.LFE45:
 2260              		.size	CyDmaGetTransferMode, .-CyDmaGetTransferMode
 2261              		.section	.text.CyDmaSetPreemptable,"ax",%progbits
 2262              		.align	2
 2263              		.global	CyDmaSetPreemptable
 2264              		.code	16
 2265              		.thumb_func
 2266              		.type	CyDmaSetPreemptable, %function
 2267              	CyDmaSetPreemptable:
 2268              	.LFB46:
1339:.\Generated_Source\PSoC4/CyDMA.c **** 
1340:.\Generated_Source\PSoC4/CyDMA.c **** 
1341:.\Generated_Source\PSoC4/CyDMA.c **** /*******************************************************************************
1342:.\Generated_Source\PSoC4/CyDMA.c **** * Function Name: CyDmaSetPreemptable
1343:.\Generated_Source\PSoC4/CyDMA.c **** ********************************************************************************
1344:.\Generated_Source\PSoC4/CyDMA.c **** *
1345:.\Generated_Source\PSoC4/CyDMA.c **** * Summary:
1346:.\Generated_Source\PSoC4/CyDMA.c **** *  Determines if the descriptor is preemptable.
1347:.\Generated_Source\PSoC4/CyDMA.c **** *
1348:.\Generated_Source\PSoC4/CyDMA.c **** * Parameters:
1349:.\Generated_Source\PSoC4/CyDMA.c **** *  channel:     Channel used by this function.
1350:.\Generated_Source\PSoC4/CyDMA.c **** *  descriptor:  Descriptor (0 or 1) modified by this function.
1351:.\Generated_Source\PSoC4/CyDMA.c **** *  preemptable: Descriptor preemption settings. Refer to the API bit fields
1352:.\Generated_Source\PSoC4/CyDMA.c **** *               definition in CyDMA_P4.h or the API description in the DMA 
1353:.\Generated_Source\PSoC4/CyDMA.c **** *               channel datasheet for the parameter options.
1354:.\Generated_Source\PSoC4/CyDMA.c **** *                   
1355:.\Generated_Source\PSoC4/CyDMA.c **** * Return:
1356:.\Generated_Source\PSoC4/CyDMA.c **** *  None.
1357:.\Generated_Source\PSoC4/CyDMA.c **** *
1358:.\Generated_Source\PSoC4/CyDMA.c **** * Side effect:
1359:.\Generated_Source\PSoC4/CyDMA.c **** *  This function should not be called when the specified descriptor is active
1360:.\Generated_Source\PSoC4/CyDMA.c **** *  in the DMA transfer engine. This can be checked by calling CyDmaGetStatus(). 
1361:.\Generated_Source\PSoC4/CyDMA.c **** *
1362:.\Generated_Source\PSoC4/CyDMA.c **** *******************************************************************************/
1363:.\Generated_Source\PSoC4/CyDMA.c **** void CyDmaSetPreemptable(int32 channel, int32 descriptor, uint32 preemptable)
1364:.\Generated_Source\PSoC4/CyDMA.c **** {
 2269              		.loc 1 1364 0
 2270              		.cfi_startproc
 2271              	.LVL223:
 2272 0000 70B5     		push	{r4, r5, r6, lr}
 2273              		.cfi_def_cfa_offset 16
 2274              		.cfi_offset 4, -16
 2275              		.cfi_offset 5, -12
 2276              		.cfi_offset 6, -8
 2277              		.cfi_offset 14, -4
 2278 0002 061C     		mov	r6, r0
 2279 0004 0C1C     		mov	r4, r1
 2280 0006 151C     		mov	r5, r2
1365:.\Generated_Source\PSoC4/CyDMA.c ****     uint32 regValue;
1366:.\Generated_Source\PSoC4/CyDMA.c **** 
1367:.\Generated_Source\PSoC4/CyDMA.c ****     CYASSERT((channel    >= 0) && (channel    < CYDMA_CH_NR));
ARM GAS  C:\Users\Tim\AppData\Local\Temp\ccEK2rHG.s 			page 66


 2281              		.loc 1 1367 0
 2282 0008 1F28     		cmp	r0, #31
 2283 000a 02D9     		bls	.L202
 2284              		.loc 1 1367 0 is_stmt 0 discriminator 1
 2285 000c 0020     		mov	r0, #0
 2286              	.LVL224:
 2287 000e FFF7FEFF 		bl	CyHalt
 2288              	.LVL225:
 2289              	.L202:
1368:.\Generated_Source\PSoC4/CyDMA.c ****     CYASSERT((descriptor >= 0) && (descriptor < CYDMA_DESCR_NR));
 2290              		.loc 1 1368 0 is_stmt 1
 2291 0012 012C     		cmp	r4, #1
 2292 0014 02D9     		bls	.L203
 2293              		.loc 1 1368 0 is_stmt 0 discriminator 1
 2294 0016 0020     		mov	r0, #0
 2295 0018 FFF7FEFF 		bl	CyHalt
 2296              	.LVL226:
 2297              	.L203:
1369:.\Generated_Source\PSoC4/CyDMA.c ****     CYASSERT(0u == (preemptable & (uint32)~CYDMA_PREEMPTABLE));
 2298              		.loc 1 1369 0 is_stmt 1
 2299 001c 084B     		ldr	r3, .L205
 2300 001e 1D42     		tst	r5, r3
 2301 0020 02D0     		beq	.L204
 2302              		.loc 1 1369 0 is_stmt 0 discriminator 1
 2303 0022 0020     		mov	r0, #0
 2304 0024 FFF7FEFF 		bl	CyHalt
 2305              	.LVL227:
 2306              	.L204:
1370:.\Generated_Source\PSoC4/CyDMA.c **** 
1371:.\Generated_Source\PSoC4/CyDMA.c ****     regValue = CYDMA_DESCR_BASE.descriptor[channel][descriptor].ctl & (uint32)~CYDMA_PREEMPTABLE;
 2307              		.loc 1 1371 0 is_stmt 1
 2308 0028 7600     		lsl	r6, r6, #1
 2309              	.LVL228:
 2310 002a 3419     		add	r4, r6, r4
 2311              	.LVL229:
 2312 002c 2401     		lsl	r4, r4, #4
 2313 002e 054B     		ldr	r3, .L205+4
 2314 0030 9C46     		mov	ip, r3
 2315 0032 6444     		add	r4, r4, ip
 2316 0034 A268     		ldr	r2, [r4, #8]
 2317 0036 024B     		ldr	r3, .L205
 2318 0038 1340     		and	r3, r2
 2319              	.LVL230:
1372:.\Generated_Source\PSoC4/CyDMA.c ****     CYDMA_DESCR_BASE.descriptor[channel][descriptor].ctl = regValue | preemptable;
 2320              		.loc 1 1372 0
 2321 003a 1D43     		orr	r5, r3
 2322              	.LVL231:
 2323 003c A560     		str	r5, [r4, #8]
1373:.\Generated_Source\PSoC4/CyDMA.c **** }
 2324              		.loc 1 1373 0
 2325              		@ sp needed
 2326 003e 70BD     		pop	{r4, r5, r6, pc}
 2327              	.L206:
 2328              		.align	2
 2329              	.L205:
 2330 0040 FFFFFFEF 		.word	-268435457
 2331 0044 00181040 		.word	1074796544
ARM GAS  C:\Users\Tim\AppData\Local\Temp\ccEK2rHG.s 			page 67


 2332              		.cfi_endproc
 2333              	.LFE46:
 2334              		.size	CyDmaSetPreemptable, .-CyDmaSetPreemptable
 2335              		.section	.text.CyDmaGetPreemptable,"ax",%progbits
 2336              		.align	2
 2337              		.global	CyDmaGetPreemptable
 2338              		.code	16
 2339              		.thumb_func
 2340              		.type	CyDmaGetPreemptable, %function
 2341              	CyDmaGetPreemptable:
 2342              	.LFB47:
1374:.\Generated_Source\PSoC4/CyDMA.c **** 
1375:.\Generated_Source\PSoC4/CyDMA.c **** 
1376:.\Generated_Source\PSoC4/CyDMA.c **** /*******************************************************************************
1377:.\Generated_Source\PSoC4/CyDMA.c **** * Function Name: CyDmaGetPreemptable
1378:.\Generated_Source\PSoC4/CyDMA.c **** ********************************************************************************
1379:.\Generated_Source\PSoC4/CyDMA.c **** *
1380:.\Generated_Source\PSoC4/CyDMA.c **** * Summary:
1381:.\Generated_Source\PSoC4/CyDMA.c **** *  Returns whether or not the descriptor is preemptable.
1382:.\Generated_Source\PSoC4/CyDMA.c **** *
1383:.\Generated_Source\PSoC4/CyDMA.c **** * Parameters:
1384:.\Generated_Source\PSoC4/CyDMA.c **** *  channel:    Channel used by this function.
1385:.\Generated_Source\PSoC4/CyDMA.c **** *  descriptor: Descriptor (0 or 1) modified by this function.
1386:.\Generated_Source\PSoC4/CyDMA.c **** *                   
1387:.\Generated_Source\PSoC4/CyDMA.c **** * Return:
1388:.\Generated_Source\PSoC4/CyDMA.c **** *  Descriptor preemption setting. Refer to the API bit field definitions in
1389:.\Generated_Source\PSoC4/CyDMA.c **** *  CyDMA_P4.h or the API description in the DMA channel datasheet for more
1390:.\Generated_Source\PSoC4/CyDMA.c **** *  information.
1391:.\Generated_Source\PSoC4/CyDMA.c **** *
1392:.\Generated_Source\PSoC4/CyDMA.c **** *******************************************************************************/
1393:.\Generated_Source\PSoC4/CyDMA.c **** uint32 CyDmaGetPreemptable(int32 channel, int32 descriptor)
1394:.\Generated_Source\PSoC4/CyDMA.c **** {
 2343              		.loc 1 1394 0
 2344              		.cfi_startproc
 2345              	.LVL232:
 2346 0000 38B5     		push	{r3, r4, r5, lr}
 2347              		.cfi_def_cfa_offset 16
 2348              		.cfi_offset 3, -16
 2349              		.cfi_offset 4, -12
 2350              		.cfi_offset 5, -8
 2351              		.cfi_offset 14, -4
 2352 0002 051C     		mov	r5, r0
 2353 0004 0C1C     		mov	r4, r1
1395:.\Generated_Source\PSoC4/CyDMA.c ****     CYASSERT((channel    >= 0) && (channel    < CYDMA_CH_NR));
 2354              		.loc 1 1395 0
 2355 0006 1F28     		cmp	r0, #31
 2356 0008 02D9     		bls	.L208
 2357              		.loc 1 1395 0 is_stmt 0 discriminator 1
 2358 000a 0020     		mov	r0, #0
 2359              	.LVL233:
 2360 000c FFF7FEFF 		bl	CyHalt
 2361              	.LVL234:
 2362              	.L208:
1396:.\Generated_Source\PSoC4/CyDMA.c ****     CYASSERT((descriptor >= 0) && (descriptor < CYDMA_DESCR_NR));
 2363              		.loc 1 1396 0 is_stmt 1
 2364 0010 012C     		cmp	r4, #1
 2365 0012 02D9     		bls	.L209
ARM GAS  C:\Users\Tim\AppData\Local\Temp\ccEK2rHG.s 			page 68


 2366              		.loc 1 1396 0 is_stmt 0 discriminator 1
 2367 0014 0020     		mov	r0, #0
 2368 0016 FFF7FEFF 		bl	CyHalt
 2369              	.LVL235:
 2370              	.L209:
1397:.\Generated_Source\PSoC4/CyDMA.c **** 
1398:.\Generated_Source\PSoC4/CyDMA.c ****     return (CYDMA_DESCR_BASE.descriptor[channel][descriptor].ctl & CYDMA_PREEMPTABLE);
 2371              		.loc 1 1398 0 is_stmt 1
 2372 001a 6D00     		lsl	r5, r5, #1
 2373              	.LVL236:
 2374 001c 2C19     		add	r4, r5, r4
 2375              	.LVL237:
 2376 001e 2401     		lsl	r4, r4, #4
 2377 0020 034B     		ldr	r3, .L210
 2378 0022 9C46     		mov	ip, r3
 2379 0024 6444     		add	r4, r4, ip
 2380 0026 A068     		ldr	r0, [r4, #8]
 2381 0028 8023     		mov	r3, #128
 2382 002a 5B05     		lsl	r3, r3, #21
 2383 002c 1840     		and	r0, r3
1399:.\Generated_Source\PSoC4/CyDMA.c **** }
 2384              		.loc 1 1399 0
 2385              		@ sp needed
 2386 002e 38BD     		pop	{r3, r4, r5, pc}
 2387              	.L211:
 2388              		.align	2
 2389              	.L210:
 2390 0030 00181040 		.word	1074796544
 2391              		.cfi_endproc
 2392              	.LFE47:
 2393              		.size	CyDmaGetPreemptable, .-CyDmaGetPreemptable
 2394              		.section	.text.CyDmaSetPostCompletionActions,"ax",%progbits
 2395              		.align	2
 2396              		.global	CyDmaSetPostCompletionActions
 2397              		.code	16
 2398              		.thumb_func
 2399              		.type	CyDmaSetPostCompletionActions, %function
 2400              	CyDmaSetPostCompletionActions:
 2401              	.LFB48:
1400:.\Generated_Source\PSoC4/CyDMA.c **** 
1401:.\Generated_Source\PSoC4/CyDMA.c **** 
1402:.\Generated_Source\PSoC4/CyDMA.c **** /*******************************************************************************
1403:.\Generated_Source\PSoC4/CyDMA.c **** * Function Name: CyDmaSetPostCompletionActions
1404:.\Generated_Source\PSoC4/CyDMA.c **** ********************************************************************************
1405:.\Generated_Source\PSoC4/CyDMA.c **** *
1406:.\Generated_Source\PSoC4/CyDMA.c **** * Summary:
1407:.\Generated_Source\PSoC4/CyDMA.c **** *  Determines what occurs after a descriptor completes.
1408:.\Generated_Source\PSoC4/CyDMA.c **** *
1409:.\Generated_Source\PSoC4/CyDMA.c **** * Parameters:
1410:.\Generated_Source\PSoC4/CyDMA.c **** *  channel:    Channel used by this function.
1411:.\Generated_Source\PSoC4/CyDMA.c **** *  descriptor: Descriptor (0 or 1) modified by this function.
1412:.\Generated_Source\PSoC4/CyDMA.c **** *  actions:    Specifies descriptor post completion actions. Refer to the API
1413:.\Generated_Source\PSoC4/CyDMA.c **** *              bit field definitions in CyDMA_P4.h or the API description
1414:.\Generated_Source\PSoC4/CyDMA.c **** *              in the DMA channel datasheet for the parameter options.
1415:.\Generated_Source\PSoC4/CyDMA.c **** *                   
1416:.\Generated_Source\PSoC4/CyDMA.c **** * Return:
1417:.\Generated_Source\PSoC4/CyDMA.c **** *  None.  
ARM GAS  C:\Users\Tim\AppData\Local\Temp\ccEK2rHG.s 			page 69


1418:.\Generated_Source\PSoC4/CyDMA.c **** *
1419:.\Generated_Source\PSoC4/CyDMA.c **** * Side effect:
1420:.\Generated_Source\PSoC4/CyDMA.c **** *  This function should not be called when the specified descriptor is active
1421:.\Generated_Source\PSoC4/CyDMA.c **** *  in the DMA transfer engine. This can be checked by calling CyDmaGetStatus(). 
1422:.\Generated_Source\PSoC4/CyDMA.c **** *
1423:.\Generated_Source\PSoC4/CyDMA.c **** *******************************************************************************/
1424:.\Generated_Source\PSoC4/CyDMA.c **** void CyDmaSetPostCompletionActions(int32 channel, int32 descriptor, uint32 actions)
1425:.\Generated_Source\PSoC4/CyDMA.c **** {
 2402              		.loc 1 1425 0
 2403              		.cfi_startproc
 2404              	.LVL238:
 2405 0000 70B5     		push	{r4, r5, r6, lr}
 2406              		.cfi_def_cfa_offset 16
 2407              		.cfi_offset 4, -16
 2408              		.cfi_offset 5, -12
 2409              		.cfi_offset 6, -8
 2410              		.cfi_offset 14, -4
 2411 0002 061C     		mov	r6, r0
 2412 0004 0C1C     		mov	r4, r1
 2413 0006 151C     		mov	r5, r2
1426:.\Generated_Source\PSoC4/CyDMA.c ****     uint32 regValue;
1427:.\Generated_Source\PSoC4/CyDMA.c **** 
1428:.\Generated_Source\PSoC4/CyDMA.c ****     CYASSERT((channel    >= 0) && (channel    < CYDMA_CH_NR));
 2414              		.loc 1 1428 0
 2415 0008 1F28     		cmp	r0, #31
 2416 000a 02D9     		bls	.L213
 2417              		.loc 1 1428 0 is_stmt 0 discriminator 1
 2418 000c 0020     		mov	r0, #0
 2419              	.LVL239:
 2420 000e FFF7FEFF 		bl	CyHalt
 2421              	.LVL240:
 2422              	.L213:
1429:.\Generated_Source\PSoC4/CyDMA.c ****     CYASSERT((descriptor >= 0) && (descriptor < CYDMA_DESCR_NR));
 2423              		.loc 1 1429 0 is_stmt 1
 2424 0012 012C     		cmp	r4, #1
 2425 0014 02D9     		bls	.L214
 2426              		.loc 1 1429 0 is_stmt 0 discriminator 1
 2427 0016 0020     		mov	r0, #0
 2428 0018 FFF7FEFF 		bl	CyHalt
 2429              	.LVL241:
 2430              	.L214:
1430:.\Generated_Source\PSoC4/CyDMA.c ****     CYASSERT(0u == (actions & (uint32)~CYDMA_POST_COMPLETE_ACTIONS));
 2431              		.loc 1 1430 0 is_stmt 1
 2432 001c 084B     		ldr	r3, .L216
 2433 001e 1D42     		tst	r5, r3
 2434 0020 02D0     		beq	.L215
 2435              		.loc 1 1430 0 is_stmt 0 discriminator 1
 2436 0022 0020     		mov	r0, #0
 2437 0024 FFF7FEFF 		bl	CyHalt
 2438              	.LVL242:
 2439              	.L215:
1431:.\Generated_Source\PSoC4/CyDMA.c **** 
1432:.\Generated_Source\PSoC4/CyDMA.c ****     regValue = CYDMA_DESCR_BASE.descriptor[channel][descriptor].ctl & (uint32)~CYDMA_POST_COMPLETE_
 2440              		.loc 1 1432 0 is_stmt 1
 2441 0028 7600     		lsl	r6, r6, #1
 2442              	.LVL243:
 2443 002a 3419     		add	r4, r6, r4
ARM GAS  C:\Users\Tim\AppData\Local\Temp\ccEK2rHG.s 			page 70


 2444              	.LVL244:
 2445 002c 2401     		lsl	r4, r4, #4
 2446 002e 054B     		ldr	r3, .L216+4
 2447 0030 9C46     		mov	ip, r3
 2448 0032 6444     		add	r4, r4, ip
 2449 0034 A268     		ldr	r2, [r4, #8]
 2450 0036 024B     		ldr	r3, .L216
 2451 0038 1340     		and	r3, r2
 2452              	.LVL245:
1433:.\Generated_Source\PSoC4/CyDMA.c ****     CYDMA_DESCR_BASE.descriptor[channel][descriptor].ctl = regValue | actions;
 2453              		.loc 1 1433 0
 2454 003a 1D43     		orr	r5, r3
 2455              	.LVL246:
 2456 003c A560     		str	r5, [r4, #8]
1434:.\Generated_Source\PSoC4/CyDMA.c **** }
 2457              		.loc 1 1434 0
 2458              		@ sp needed
 2459 003e 70BD     		pop	{r4, r5, r6, pc}
 2460              	.L217:
 2461              		.align	2
 2462              	.L216:
 2463 0040 FFFFFFD3 		.word	-738197505
 2464 0044 00181040 		.word	1074796544
 2465              		.cfi_endproc
 2466              	.LFE48:
 2467              		.size	CyDmaSetPostCompletionActions, .-CyDmaSetPostCompletionActions
 2468              		.section	.text.CyDmaGetPostCompletionActions,"ax",%progbits
 2469              		.align	2
 2470              		.global	CyDmaGetPostCompletionActions
 2471              		.code	16
 2472              		.thumb_func
 2473              		.type	CyDmaGetPostCompletionActions, %function
 2474              	CyDmaGetPostCompletionActions:
 2475              	.LFB49:
1435:.\Generated_Source\PSoC4/CyDMA.c **** 
1436:.\Generated_Source\PSoC4/CyDMA.c **** 
1437:.\Generated_Source\PSoC4/CyDMA.c **** /*******************************************************************************
1438:.\Generated_Source\PSoC4/CyDMA.c **** * Function Name: CyDmaGetPostCompletionActions
1439:.\Generated_Source\PSoC4/CyDMA.c **** ********************************************************************************
1440:.\Generated_Source\PSoC4/CyDMA.c **** *
1441:.\Generated_Source\PSoC4/CyDMA.c **** * Summary:
1442:.\Generated_Source\PSoC4/CyDMA.c **** *  Returns the post descriptor action settings as set by 
1443:.\Generated_Source\PSoC4/CyDMA.c **** *  CyDmaSetPostCompletionActions() or CyDmaSetConfiguration().
1444:.\Generated_Source\PSoC4/CyDMA.c **** *
1445:.\Generated_Source\PSoC4/CyDMA.c **** * Parameters:
1446:.\Generated_Source\PSoC4/CyDMA.c **** *  channel:    Channel used by this function.
1447:.\Generated_Source\PSoC4/CyDMA.c **** *  descriptor: Descriptor (0 or 1) modified by this function.
1448:.\Generated_Source\PSoC4/CyDMA.c **** *                   
1449:.\Generated_Source\PSoC4/CyDMA.c **** * Return:
1450:.\Generated_Source\PSoC4/CyDMA.c **** *  Post descriptor actions. Refer to the API bit field definitions in
1451:.\Generated_Source\PSoC4/CyDMA.c **** *  CyDMA_P4.h or the API description in the DMA channel datasheet for more
1452:.\Generated_Source\PSoC4/CyDMA.c **** *  information.
1453:.\Generated_Source\PSoC4/CyDMA.c **** *
1454:.\Generated_Source\PSoC4/CyDMA.c **** *******************************************************************************/
1455:.\Generated_Source\PSoC4/CyDMA.c **** uint32 CyDmaGetPostCompletionActions(int32 channel, int32 descriptor)
1456:.\Generated_Source\PSoC4/CyDMA.c **** {
 2476              		.loc 1 1456 0
ARM GAS  C:\Users\Tim\AppData\Local\Temp\ccEK2rHG.s 			page 71


 2477              		.cfi_startproc
 2478              	.LVL247:
 2479 0000 38B5     		push	{r3, r4, r5, lr}
 2480              		.cfi_def_cfa_offset 16
 2481              		.cfi_offset 3, -16
 2482              		.cfi_offset 4, -12
 2483              		.cfi_offset 5, -8
 2484              		.cfi_offset 14, -4
 2485 0002 051C     		mov	r5, r0
 2486 0004 0C1C     		mov	r4, r1
1457:.\Generated_Source\PSoC4/CyDMA.c ****     CYASSERT((channel    >= 0) && (channel    < CYDMA_CH_NR));
 2487              		.loc 1 1457 0
 2488 0006 1F28     		cmp	r0, #31
 2489 0008 02D9     		bls	.L219
 2490              		.loc 1 1457 0 is_stmt 0 discriminator 1
 2491 000a 0020     		mov	r0, #0
 2492              	.LVL248:
 2493 000c FFF7FEFF 		bl	CyHalt
 2494              	.LVL249:
 2495              	.L219:
1458:.\Generated_Source\PSoC4/CyDMA.c ****     CYASSERT((descriptor >= 0) && (descriptor < CYDMA_DESCR_NR));
 2496              		.loc 1 1458 0 is_stmt 1
 2497 0010 012C     		cmp	r4, #1
 2498 0012 02D9     		bls	.L220
 2499              		.loc 1 1458 0 is_stmt 0 discriminator 1
 2500 0014 0020     		mov	r0, #0
 2501 0016 FFF7FEFF 		bl	CyHalt
 2502              	.LVL250:
 2503              	.L220:
1459:.\Generated_Source\PSoC4/CyDMA.c **** 
1460:.\Generated_Source\PSoC4/CyDMA.c ****     return (CYDMA_DESCR_BASE.descriptor[channel][descriptor].ctl & CYDMA_POST_COMPLETE_ACTIONS);
 2504              		.loc 1 1460 0 is_stmt 1
 2505 001a 6D00     		lsl	r5, r5, #1
 2506              	.LVL251:
 2507 001c 2C19     		add	r4, r5, r4
 2508              	.LVL252:
 2509 001e 2401     		lsl	r4, r4, #4
 2510 0020 034B     		ldr	r3, .L221
 2511 0022 9C46     		mov	ip, r3
 2512 0024 6444     		add	r4, r4, ip
 2513 0026 A068     		ldr	r0, [r4, #8]
 2514 0028 B023     		mov	r3, #176
 2515 002a 9B05     		lsl	r3, r3, #22
 2516 002c 1840     		and	r0, r3
1461:.\Generated_Source\PSoC4/CyDMA.c **** }
 2517              		.loc 1 1461 0
 2518              		@ sp needed
 2519 002e 38BD     		pop	{r3, r4, r5, pc}
 2520              	.L222:
 2521              		.align	2
 2522              	.L221:
 2523 0030 00181040 		.word	1074796544
 2524              		.cfi_endproc
 2525              	.LFE49:
 2526              		.size	CyDmaGetPostCompletionActions, .-CyDmaGetPostCompletionActions
 2527              		.section	.rodata
 2528              		.align	2
ARM GAS  C:\Users\Tim\AppData\Local\Temp\ccEK2rHG.s 			page 72


 2529              		.set	.LANCHOR2,. + 0
 2530              		.type	trCtlLut.5002, %object
 2531              		.size	trCtlLut.5002, 16
 2532              	trCtlLut.5002:
 2533 0000 000002C0 		.word	-1073610752
 2534 0004 000102C0 		.word	-1073610496
 2535 0008 000202C0 		.word	-1073610240
 2536 000c 080202C0 		.word	-1073610232
 2537              		.data
 2538              		.align	2
 2539              		.set	.LANCHOR0,. + 0
 2540              		.type	CyDmaInterruptCallback, %object
 2541              		.size	CyDmaInterruptCallback, 128
 2542              	CyDmaInterruptCallback:
 2543 0000 00000000 		.word	CyDmaDefaultInterruptCallback
 2544 0004 00000000 		.word	CyDmaDefaultInterruptCallback
 2545 0008 00000000 		.word	CyDmaDefaultInterruptCallback
 2546 000c 00000000 		.word	CyDmaDefaultInterruptCallback
 2547 0010 00000000 		.word	CyDmaDefaultInterruptCallback
 2548 0014 00000000 		.word	CyDmaDefaultInterruptCallback
 2549 0018 00000000 		.word	CyDmaDefaultInterruptCallback
 2550 001c 00000000 		.word	CyDmaDefaultInterruptCallback
 2551 0020 00000000 		.word	CyDmaDefaultInterruptCallback
 2552 0024 00000000 		.word	CyDmaDefaultInterruptCallback
 2553 0028 00000000 		.word	CyDmaDefaultInterruptCallback
 2554 002c 00000000 		.word	CyDmaDefaultInterruptCallback
 2555 0030 00000000 		.word	CyDmaDefaultInterruptCallback
 2556 0034 00000000 		.word	CyDmaDefaultInterruptCallback
 2557 0038 00000000 		.word	CyDmaDefaultInterruptCallback
 2558 003c 00000000 		.word	CyDmaDefaultInterruptCallback
 2559 0040 00000000 		.word	CyDmaDefaultInterruptCallback
 2560 0044 00000000 		.word	CyDmaDefaultInterruptCallback
 2561 0048 00000000 		.word	CyDmaDefaultInterruptCallback
 2562 004c 00000000 		.word	CyDmaDefaultInterruptCallback
 2563 0050 00000000 		.word	CyDmaDefaultInterruptCallback
 2564 0054 00000000 		.word	CyDmaDefaultInterruptCallback
 2565 0058 00000000 		.word	CyDmaDefaultInterruptCallback
 2566 005c 00000000 		.word	CyDmaDefaultInterruptCallback
 2567 0060 00000000 		.word	CyDmaDefaultInterruptCallback
 2568 0064 00000000 		.word	CyDmaDefaultInterruptCallback
 2569 0068 00000000 		.word	CyDmaDefaultInterruptCallback
 2570 006c 00000000 		.word	CyDmaDefaultInterruptCallback
 2571 0070 00000000 		.word	CyDmaDefaultInterruptCallback
 2572 0074 00000000 		.word	CyDmaDefaultInterruptCallback
 2573 0078 00000000 		.word	CyDmaDefaultInterruptCallback
 2574 007c 00000000 		.word	CyDmaDefaultInterruptCallback
 2575              		.bss
 2576              		.align	2
 2577              		.set	.LANCHOR1,. + 0
 2578              		.type	initIntrVector.4927, %object
 2579              		.size	initIntrVector.4927, 1
 2580              	initIntrVector.4927:
 2581 0000 00       		.space	1
 2582 0001 000000   		.space	3
 2583              		.type	CyDmaChannelUsedMask, %object
 2584              		.size	CyDmaChannelUsedMask, 4
 2585              	CyDmaChannelUsedMask:
ARM GAS  C:\Users\Tim\AppData\Local\Temp\ccEK2rHG.s 			page 73


 2586 0004 00000000 		.space	4
 2587              		.text
 2588              	.Letext0:
 2589              		.file 2 ".\\Generated_Source\\PSoC4\\cytypes.h"
 2590              		.file 3 ".\\Generated_Source\\PSoC4\\CyDMA.h"
 2591              		.file 4 ".\\Generated_Source\\PSoC4\\CyLib.h"
 2592              		.section	.debug_info,"",%progbits
 2593              	.Ldebug_info0:
 2594 0000 34120000 		.4byte	0x1234
 2595 0004 0400     		.2byte	0x4
 2596 0006 00000000 		.4byte	.Ldebug_abbrev0
 2597 000a 04       		.byte	0x4
 2598 000b 01       		.uleb128 0x1
 2599 000c 95040000 		.4byte	.LASF101
 2600 0010 01       		.byte	0x1
 2601 0011 61030000 		.4byte	.LASF102
 2602 0015 22020000 		.4byte	.LASF103
 2603 0019 00000000 		.4byte	.Ldebug_ranges0+0
 2604 001d 00000000 		.4byte	0
 2605 0021 00000000 		.4byte	.Ldebug_line0
 2606 0025 02       		.uleb128 0x2
 2607 0026 01       		.byte	0x1
 2608 0027 06       		.byte	0x6
 2609 0028 DF000000 		.4byte	.LASF0
 2610 002c 02       		.uleb128 0x2
 2611 002d 01       		.byte	0x1
 2612 002e 08       		.byte	0x8
 2613 002f 88050000 		.4byte	.LASF1
 2614 0033 02       		.uleb128 0x2
 2615 0034 02       		.byte	0x2
 2616 0035 05       		.byte	0x5
 2617 0036 B4050000 		.4byte	.LASF2
 2618 003a 02       		.uleb128 0x2
 2619 003b 02       		.byte	0x2
 2620 003c 07       		.byte	0x7
 2621 003d C9020000 		.4byte	.LASF3
 2622 0041 02       		.uleb128 0x2
 2623 0042 04       		.byte	0x4
 2624 0043 05       		.byte	0x5
 2625 0044 20010000 		.4byte	.LASF4
 2626 0048 02       		.uleb128 0x2
 2627 0049 04       		.byte	0x4
 2628 004a 07       		.byte	0x7
 2629 004b AC020000 		.4byte	.LASF5
 2630 004f 02       		.uleb128 0x2
 2631 0050 08       		.byte	0x8
 2632 0051 05       		.byte	0x5
 2633 0052 D1000000 		.4byte	.LASF6
 2634 0056 02       		.uleb128 0x2
 2635 0057 08       		.byte	0x8
 2636 0058 07       		.byte	0x7
 2637 0059 8B000000 		.4byte	.LASF7
 2638 005d 03       		.uleb128 0x3
 2639 005e 04       		.byte	0x4
 2640 005f 05       		.byte	0x5
 2641 0060 696E7400 		.ascii	"int\000"
 2642 0064 02       		.uleb128 0x2
ARM GAS  C:\Users\Tim\AppData\Local\Temp\ccEK2rHG.s 			page 74


 2643 0065 04       		.byte	0x4
 2644 0066 07       		.byte	0x7
 2645 0067 88020000 		.4byte	.LASF8
 2646 006b 04       		.uleb128 0x4
 2647 006c 8E010000 		.4byte	.LASF9
 2648 0070 02       		.byte	0x2
 2649 0071 3801     		.2byte	0x138
 2650 0073 2C000000 		.4byte	0x2c
 2651 0077 04       		.uleb128 0x4
 2652 0078 CB010000 		.4byte	.LASF10
 2653 007c 02       		.byte	0x2
 2654 007d 3A01     		.2byte	0x13a
 2655 007f 48000000 		.4byte	0x48
 2656 0083 04       		.uleb128 0x4
 2657 0084 03010000 		.4byte	.LASF11
 2658 0088 02       		.byte	0x2
 2659 0089 3D01     		.2byte	0x13d
 2660 008b 41000000 		.4byte	0x41
 2661 008f 02       		.uleb128 0x2
 2662 0090 04       		.byte	0x4
 2663 0091 04       		.byte	0x4
 2664 0092 44050000 		.4byte	.LASF12
 2665 0096 02       		.uleb128 0x2
 2666 0097 08       		.byte	0x8
 2667 0098 04       		.byte	0x4
 2668 0099 A8010000 		.4byte	.LASF13
 2669 009d 02       		.uleb128 0x2
 2670 009e 01       		.byte	0x1
 2671 009f 08       		.byte	0x8
 2672 00a0 37060000 		.4byte	.LASF14
 2673 00a4 04       		.uleb128 0x4
 2674 00a5 4B070000 		.4byte	.LASF15
 2675 00a9 02       		.byte	0x2
 2676 00aa DA01     		.2byte	0x1da
 2677 00ac 48000000 		.4byte	0x48
 2678 00b0 04       		.uleb128 0x4
 2679 00b1 93030000 		.4byte	.LASF16
 2680 00b5 02       		.byte	0x2
 2681 00b6 E401     		.2byte	0x1e4
 2682 00b8 BC000000 		.4byte	0xbc
 2683 00bc 05       		.uleb128 0x5
 2684 00bd 77000000 		.4byte	0x77
 2685 00c1 04       		.uleb128 0x4
 2686 00c2 56060000 		.4byte	.LASF17
 2687 00c6 02       		.byte	0x2
 2688 00c7 F401     		.2byte	0x1f4
 2689 00c9 CD000000 		.4byte	0xcd
 2690 00cd 06       		.uleb128 0x6
 2691 00ce 04       		.byte	0x4
 2692 00cf D3000000 		.4byte	0xd3
 2693 00d3 07       		.uleb128 0x7
 2694 00d4 08       		.uleb128 0x8
 2695 00d5 80       		.byte	0x80
 2696 00d6 03       		.byte	0x3
 2697 00d7 26       		.byte	0x26
 2698 00d8 E9000000 		.4byte	0xe9
 2699 00dc 09       		.uleb128 0x9
ARM GAS  C:\Users\Tim\AppData\Local\Temp\ccEK2rHG.s 			page 75


 2700 00dd 63746C00 		.ascii	"ctl\000"
 2701 00e1 03       		.byte	0x3
 2702 00e2 28       		.byte	0x28
 2703 00e3 E9000000 		.4byte	0xe9
 2704 00e7 00       		.byte	0
 2705 00e8 00       		.byte	0
 2706 00e9 0A       		.uleb128 0xa
 2707 00ea 77000000 		.4byte	0x77
 2708 00ee F9000000 		.4byte	0xf9
 2709 00f2 0B       		.uleb128 0xb
 2710 00f3 F9000000 		.4byte	0xf9
 2711 00f7 1F       		.byte	0x1f
 2712 00f8 00       		.byte	0
 2713 00f9 02       		.uleb128 0x2
 2714 00fa 04       		.byte	0x4
 2715 00fb 07       		.byte	0x7
 2716 00fc CC030000 		.4byte	.LASF18
 2717 0100 0C       		.uleb128 0xc
 2718 0101 29010000 		.4byte	.LASF19
 2719 0105 03       		.byte	0x3
 2720 0106 29       		.byte	0x29
 2721 0107 D4000000 		.4byte	0xd4
 2722 010b 08       		.uleb128 0x8
 2723 010c 10       		.byte	0x10
 2724 010d 03       		.byte	0x3
 2725 010e 2C       		.byte	0x2c
 2726 010f 44010000 		.4byte	0x144
 2727 0113 09       		.uleb128 0x9
 2728 0114 73726300 		.ascii	"src\000"
 2729 0118 03       		.byte	0x3
 2730 0119 2E       		.byte	0x2e
 2731 011a 44010000 		.4byte	0x144
 2732 011e 00       		.byte	0
 2733 011f 09       		.uleb128 0x9
 2734 0120 64737400 		.ascii	"dst\000"
 2735 0124 03       		.byte	0x3
 2736 0125 2F       		.byte	0x2f
 2737 0126 44010000 		.4byte	0x144
 2738 012a 04       		.byte	0x4
 2739 012b 09       		.uleb128 0x9
 2740 012c 63746C00 		.ascii	"ctl\000"
 2741 0130 03       		.byte	0x3
 2742 0131 30       		.byte	0x30
 2743 0132 77000000 		.4byte	0x77
 2744 0136 08       		.byte	0x8
 2745 0137 0D       		.uleb128 0xd
 2746 0138 2C070000 		.4byte	.LASF20
 2747 013c 03       		.byte	0x3
 2748 013d 31       		.byte	0x31
 2749 013e 77000000 		.4byte	0x77
 2750 0142 0C       		.byte	0xc
 2751 0143 00       		.byte	0
 2752 0144 0E       		.uleb128 0xe
 2753 0145 04       		.byte	0x4
 2754 0146 0C       		.uleb128 0xc
 2755 0147 33070000 		.4byte	.LASF21
 2756 014b 03       		.byte	0x3
ARM GAS  C:\Users\Tim\AppData\Local\Temp\ccEK2rHG.s 			page 76


 2757 014c 32       		.byte	0x32
 2758 014d 0B010000 		.4byte	0x10b
 2759 0151 0F       		.uleb128 0xf
 2760 0152 0004     		.2byte	0x400
 2761 0154 03       		.byte	0x3
 2762 0155 38       		.byte	0x38
 2763 0156 67010000 		.4byte	0x167
 2764 015a 0D       		.uleb128 0xd
 2765 015b 20060000 		.4byte	.LASF22
 2766 015f 03       		.byte	0x3
 2767 0160 3A       		.byte	0x3a
 2768 0161 67010000 		.4byte	0x167
 2769 0165 00       		.byte	0
 2770 0166 00       		.byte	0
 2771 0167 0A       		.uleb128 0xa
 2772 0168 46010000 		.4byte	0x146
 2773 016c 7D010000 		.4byte	0x17d
 2774 0170 0B       		.uleb128 0xb
 2775 0171 F9000000 		.4byte	0xf9
 2776 0175 1F       		.byte	0x1f
 2777 0176 0B       		.uleb128 0xb
 2778 0177 F9000000 		.4byte	0xf9
 2779 017b 01       		.byte	0x1
 2780 017c 00       		.byte	0
 2781 017d 0C       		.uleb128 0xc
 2782 017e 84070000 		.4byte	.LASF23
 2783 0182 03       		.byte	0x3
 2784 0183 3B       		.byte	0x3b
 2785 0184 51010000 		.4byte	0x151
 2786 0188 08       		.uleb128 0x8
 2787 0189 20       		.byte	0x20
 2788 018a 03       		.byte	0x3
 2789 018b 3E       		.byte	0x3e
 2790 018c F1010000 		.4byte	0x1f1
 2791 0190 0D       		.uleb128 0xd
 2792 0191 34050000 		.4byte	.LASF24
 2793 0195 03       		.byte	0x3
 2794 0196 44       		.byte	0x44
 2795 0197 77000000 		.4byte	0x77
 2796 019b 00       		.byte	0
 2797 019c 0D       		.uleb128 0xd
 2798 019d 7E010000 		.4byte	.LASF25
 2799 01a1 03       		.byte	0x3
 2800 01a2 49       		.byte	0x49
 2801 01a3 83000000 		.4byte	0x83
 2802 01a7 04       		.byte	0x4
 2803 01a8 0D       		.uleb128 0xd
 2804 01a9 69040000 		.4byte	.LASF26
 2805 01ad 03       		.byte	0x3
 2806 01ae 4C       		.byte	0x4c
 2807 01af 77000000 		.4byte	0x77
 2808 01b3 08       		.byte	0x8
 2809 01b4 0D       		.uleb128 0xd
 2810 01b5 D7060000 		.4byte	.LASF27
 2811 01b9 03       		.byte	0x3
 2812 01ba 51       		.byte	0x51
 2813 01bb 77000000 		.4byte	0x77
ARM GAS  C:\Users\Tim\AppData\Local\Temp\ccEK2rHG.s 			page 77


 2814 01bf 0C       		.byte	0xc
 2815 01c0 0D       		.uleb128 0xd
 2816 01c1 D2010000 		.4byte	.LASF28
 2817 01c5 03       		.byte	0x3
 2818 01c6 54       		.byte	0x54
 2819 01c7 77000000 		.4byte	0x77
 2820 01cb 10       		.byte	0x10
 2821 01cc 0D       		.uleb128 0xd
 2822 01cd 7B020000 		.4byte	.LASF29
 2823 01d1 03       		.byte	0x3
 2824 01d2 57       		.byte	0x57
 2825 01d3 77000000 		.4byte	0x77
 2826 01d7 14       		.byte	0x14
 2827 01d8 0D       		.uleb128 0xd
 2828 01d9 BC070000 		.4byte	.LASF30
 2829 01dd 03       		.byte	0x3
 2830 01de 5A       		.byte	0x5a
 2831 01df 77000000 		.4byte	0x77
 2832 01e3 18       		.byte	0x18
 2833 01e4 0D       		.uleb128 0xd
 2834 01e5 B4070000 		.4byte	.LASF31
 2835 01e9 03       		.byte	0x3
 2836 01ea 5D       		.byte	0x5d
 2837 01eb 77000000 		.4byte	0x77
 2838 01ef 1C       		.byte	0x1c
 2839 01f0 00       		.byte	0
 2840 01f1 0C       		.uleb128 0xc
 2841 01f2 10020000 		.4byte	.LASF32
 2842 01f6 03       		.byte	0x3
 2843 01f7 5F       		.byte	0x5f
 2844 01f8 88010000 		.4byte	0x188
 2845 01fc 0C       		.uleb128 0xc
 2846 01fd 4A050000 		.4byte	.LASF33
 2847 0201 03       		.byte	0x3
 2848 0202 67       		.byte	0x67
 2849 0203 CD000000 		.4byte	0xcd
 2850 0207 10       		.uleb128 0x10
 2851 0208 04040000 		.4byte	.LASF40
 2852 020c 01       		.byte	0x1
 2853 020d A001     		.2byte	0x1a0
 2854 020f 00000000 		.4byte	.LFB16
 2855 0213 30000000 		.4byte	.LFE16-.LFB16
 2856 0217 01       		.uleb128 0x1
 2857 0218 9C       		.byte	0x9c
 2858 0219 3E020000 		.4byte	0x23e
 2859 021d 11       		.uleb128 0x11
 2860 021e D5030000 		.4byte	.LASF34
 2861 0222 01       		.byte	0x1
 2862 0223 A201     		.2byte	0x1a2
 2863 0225 77000000 		.4byte	0x77
 2864 0229 00000000 		.4byte	.LLST0
 2865 022d 11       		.uleb128 0x11
 2866 022e 74000000 		.4byte	.LASF35
 2867 0232 01       		.byte	0x1
 2868 0233 A301     		.2byte	0x1a3
 2869 0235 77000000 		.4byte	0x77
 2870 0239 13000000 		.4byte	.LLST1
ARM GAS  C:\Users\Tim\AppData\Local\Temp\ccEK2rHG.s 			page 78


 2871 023d 00       		.byte	0
 2872 023e 12       		.uleb128 0x12
 2873 023f DA030000 		.4byte	.LASF104
 2874 0243 01       		.byte	0x1
 2875 0244 C701     		.2byte	0x1c7
 2876 0246 00000000 		.4byte	.LFB17
 2877 024a 0A000000 		.4byte	.LFE17-.LFB17
 2878 024e 01       		.uleb128 0x1
 2879 024f 9C       		.byte	0x9c
 2880 0250 64020000 		.4byte	0x264
 2881 0254 13       		.uleb128 0x13
 2882 0255 08000000 		.4byte	.LVL8
 2883 0259 FA110000 		.4byte	0x11fa
 2884 025d 14       		.uleb128 0x14
 2885 025e 01       		.uleb128 0x1
 2886 025f 50       		.byte	0x50
 2887 0260 01       		.uleb128 0x1
 2888 0261 30       		.byte	0x30
 2889 0262 00       		.byte	0
 2890 0263 00       		.byte	0
 2891 0264 15       		.uleb128 0x15
 2892 0265 94010000 		.4byte	.LASF105
 2893 0269 01       		.byte	0x1
 2894 026a 69       		.byte	0x69
 2895 026b 00000000 		.4byte	.LFB3
 2896 026f 10000000 		.4byte	.LFE3-.LFB3
 2897 0273 01       		.uleb128 0x1
 2898 0274 9C       		.byte	0x9c
 2899 0275 16       		.uleb128 0x16
 2900 0276 79050000 		.4byte	.LASF36
 2901 027a 01       		.byte	0x1
 2902 027b 85       		.byte	0x85
 2903 027c 77000000 		.4byte	0x77
 2904 0280 00000000 		.4byte	.LFB4
 2905 0284 0C000000 		.4byte	.LFE4-.LFB4
 2906 0288 01       		.uleb128 0x1
 2907 0289 9C       		.byte	0x9c
 2908 028a 16       		.uleb128 0x16
 2909 028b 95020000 		.4byte	.LASF37
 2910 028f 01       		.byte	0x1
 2911 0290 9A       		.byte	0x9a
 2912 0291 77000000 		.4byte	0x77
 2913 0295 00000000 		.4byte	.LFB5
 2914 0299 0C000000 		.4byte	.LFE5-.LFB5
 2915 029d 01       		.uleb128 0x1
 2916 029e 9C       		.byte	0x9c
 2917 029f 16       		.uleb128 0x16
 2918 02a0 2B000000 		.4byte	.LASF38
 2919 02a4 01       		.byte	0x1
 2920 02a5 B6       		.byte	0xb6
 2921 02a6 44010000 		.4byte	0x144
 2922 02aa 00000000 		.4byte	.LFB6
 2923 02ae 0C000000 		.4byte	.LFE6-.LFB6
 2924 02b2 01       		.uleb128 0x1
 2925 02b3 9C       		.byte	0x9c
 2926 02b4 16       		.uleb128 0x16
 2927 02b5 FB060000 		.4byte	.LASF39
ARM GAS  C:\Users\Tim\AppData\Local\Temp\ccEK2rHG.s 			page 79


 2928 02b9 01       		.byte	0x1
 2929 02ba D2       		.byte	0xd2
 2930 02bb 44010000 		.4byte	0x144
 2931 02bf 00000000 		.4byte	.LFB7
 2932 02c3 0C000000 		.4byte	.LFE7-.LFB7
 2933 02c7 01       		.uleb128 0x1
 2934 02c8 9C       		.byte	0x9c
 2935 02c9 17       		.uleb128 0x17
 2936 02ca 00000000 		.4byte	.LASF41
 2937 02ce 01       		.byte	0x1
 2938 02cf EF       		.byte	0xef
 2939 02d0 00000000 		.4byte	.LFB8
 2940 02d4 0C000000 		.4byte	.LFE8-.LFB8
 2941 02d8 01       		.uleb128 0x1
 2942 02d9 9C       		.byte	0x9c
 2943 02da 04030000 		.4byte	0x304
 2944 02de 18       		.uleb128 0x18
 2945 02df A2000000 		.4byte	.LASF46
 2946 02e3 01       		.byte	0x1
 2947 02e4 EF       		.byte	0xef
 2948 02e5 C1000000 		.4byte	0xc1
 2949 02e9 32000000 		.4byte	.LLST2
 2950 02ed 13       		.uleb128 0x13
 2951 02ee 0A000000 		.4byte	.LVL11
 2952 02f2 0B120000 		.4byte	0x120b
 2953 02f6 14       		.uleb128 0x14
 2954 02f7 01       		.uleb128 0x1
 2955 02f8 51       		.byte	0x51
 2956 02f9 03       		.uleb128 0x3
 2957 02fa F3       		.byte	0xf3
 2958 02fb 01       		.uleb128 0x1
 2959 02fc 50       		.byte	0x50
 2960 02fd 14       		.uleb128 0x14
 2961 02fe 01       		.uleb128 0x1
 2962 02ff 50       		.byte	0x50
 2963 0300 01       		.uleb128 0x1
 2964 0301 3E       		.byte	0x3e
 2965 0302 00       		.byte	0
 2966 0303 00       		.byte	0
 2967 0304 17       		.uleb128 0x17
 2968 0305 CB060000 		.4byte	.LASF42
 2969 0309 01       		.byte	0x1
 2970 030a 4A       		.byte	0x4a
 2971 030b 00000000 		.4byte	.LFB2
 2972 030f 34000000 		.4byte	.LFE2-.LFB2
 2973 0313 01       		.uleb128 0x1
 2974 0314 9C       		.byte	0x9c
 2975 0315 56030000 		.4byte	0x356
 2976 0319 19       		.uleb128 0x19
 2977 031a 55010000 		.4byte	.LASF43
 2978 031e 01       		.byte	0x1
 2979 031f 4C       		.byte	0x4c
 2980 0320 6B000000 		.4byte	0x6b
 2981 0324 05       		.uleb128 0x5
 2982 0325 03       		.byte	0x3
 2983 0326 00000000 		.4byte	initIntrVector.4927
 2984 032a 1A       		.uleb128 0x1a
ARM GAS  C:\Users\Tim\AppData\Local\Temp\ccEK2rHG.s 			page 80


 2985 032b 10000000 		.4byte	.LVL12
 2986 032f C9020000 		.4byte	0x2c9
 2987 0333 41030000 		.4byte	0x341
 2988 0337 14       		.uleb128 0x14
 2989 0338 01       		.uleb128 0x1
 2990 0339 50       		.byte	0x50
 2991 033a 05       		.uleb128 0x5
 2992 033b 03       		.byte	0x3
 2993 033c 00000000 		.4byte	CyDmaInterrupt
 2994 0340 00       		.byte	0
 2995 0341 13       		.uleb128 0x13
 2996 0342 18000000 		.4byte	.LVL13
 2997 0346 25120000 		.4byte	0x1225
 2998 034a 14       		.uleb128 0x14
 2999 034b 01       		.uleb128 0x1
 3000 034c 51       		.byte	0x51
 3001 034d 01       		.uleb128 0x1
 3002 034e 33       		.byte	0x33
 3003 034f 14       		.uleb128 0x14
 3004 0350 01       		.uleb128 0x1
 3005 0351 50       		.byte	0x50
 3006 0352 01       		.uleb128 0x1
 3007 0353 3E       		.byte	0x3e
 3008 0354 00       		.byte	0
 3009 0355 00       		.byte	0
 3010 0356 1B       		.uleb128 0x1b
 3011 0357 51040000 		.4byte	.LASF44
 3012 035b 01       		.byte	0x1
 3013 035c 0301     		.2byte	0x103
 3014 035e 77000000 		.4byte	0x77
 3015 0362 00000000 		.4byte	.LFB9
 3016 0366 0C000000 		.4byte	.LFE9-.LFB9
 3017 036a 01       		.uleb128 0x1
 3018 036b 9C       		.byte	0x9c
 3019 036c 1C       		.uleb128 0x1c
 3020 036d 3C060000 		.4byte	.LASF45
 3021 0371 01       		.byte	0x1
 3022 0372 1701     		.2byte	0x117
 3023 0374 00000000 		.4byte	.LFB10
 3024 0378 0C000000 		.4byte	.LFE10-.LFB10
 3025 037c 01       		.uleb128 0x1
 3026 037d 9C       		.byte	0x9c
 3027 037e 91030000 		.4byte	0x391
 3028 0382 1D       		.uleb128 0x1d
 3029 0383 BE050000 		.4byte	.LASF47
 3030 0387 01       		.byte	0x1
 3031 0388 1701     		.2byte	0x117
 3032 038a 77000000 		.4byte	0x77
 3033 038e 01       		.uleb128 0x1
 3034 038f 50       		.byte	0x50
 3035 0390 00       		.byte	0
 3036 0391 1C       		.uleb128 0x1c
 3037 0392 F4010000 		.4byte	.LASF48
 3038 0396 01       		.byte	0x1
 3039 0397 2B01     		.2byte	0x12b
 3040 0399 00000000 		.4byte	.LFB11
 3041 039d 0C000000 		.4byte	.LFE11-.LFB11
ARM GAS  C:\Users\Tim\AppData\Local\Temp\ccEK2rHG.s 			page 81


 3042 03a1 01       		.uleb128 0x1
 3043 03a2 9C       		.byte	0x9c
 3044 03a3 B6030000 		.4byte	0x3b6
 3045 03a7 1D       		.uleb128 0x1d
 3046 03a8 BE050000 		.4byte	.LASF47
 3047 03ac 01       		.byte	0x1
 3048 03ad 2B01     		.2byte	0x12b
 3049 03af 77000000 		.4byte	0x77
 3050 03b3 01       		.uleb128 0x1
 3051 03b4 50       		.byte	0x50
 3052 03b5 00       		.byte	0
 3053 03b6 1B       		.uleb128 0x1b
 3054 03b7 CC050000 		.4byte	.LASF49
 3055 03bb 01       		.byte	0x1
 3056 03bc 3F01     		.2byte	0x13f
 3057 03be 77000000 		.4byte	0x77
 3058 03c2 00000000 		.4byte	.LFB12
 3059 03c6 0C000000 		.4byte	.LFE12-.LFB12
 3060 03ca 01       		.uleb128 0x1
 3061 03cb 9C       		.byte	0x9c
 3062 03cc 1B       		.uleb128 0x1b
 3063 03cd 96050000 		.4byte	.LASF50
 3064 03d1 01       		.byte	0x1
 3065 03d2 5301     		.2byte	0x153
 3066 03d4 77000000 		.4byte	0x77
 3067 03d8 00000000 		.4byte	.LFB13
 3068 03dc 0C000000 		.4byte	.LFE13-.LFB13
 3069 03e0 01       		.uleb128 0x1
 3070 03e1 9C       		.byte	0x9c
 3071 03e2 1E       		.uleb128 0x1e
 3072 03e3 37040000 		.4byte	.LASF54
 3073 03e7 01       		.byte	0x1
 3074 03e8 6A01     		.2byte	0x16a
 3075 03ea FC010000 		.4byte	0x1fc
 3076 03ee 00000000 		.4byte	.LFB14
 3077 03f2 20000000 		.4byte	.LFE14-.LFB14
 3078 03f6 01       		.uleb128 0x1
 3079 03f7 9C       		.byte	0x9c
 3080 03f8 3A040000 		.4byte	0x43a
 3081 03fc 1F       		.uleb128 0x1f
 3082 03fd F7050000 		.4byte	.LASF51
 3083 0401 01       		.byte	0x1
 3084 0402 6A01     		.2byte	0x16a
 3085 0404 83000000 		.4byte	0x83
 3086 0408 5E000000 		.4byte	.LLST3
 3087 040c 1F       		.uleb128 0x1f
 3088 040d 22030000 		.4byte	.LASF52
 3089 0411 01       		.byte	0x1
 3090 0412 6A01     		.2byte	0x16a
 3091 0414 FC010000 		.4byte	0x1fc
 3092 0418 8A000000 		.4byte	.LLST4
 3093 041c 20       		.uleb128 0x20
 3094 041d DE010000 		.4byte	.LASF53
 3095 0421 01       		.byte	0x1
 3096 0422 6C01     		.2byte	0x16c
 3097 0424 FC010000 		.4byte	0x1fc
 3098 0428 01       		.uleb128 0x1
ARM GAS  C:\Users\Tim\AppData\Local\Temp\ccEK2rHG.s 			page 82


 3099 0429 50       		.byte	0x50
 3100 042a 13       		.uleb128 0x13
 3101 042b 10000000 		.4byte	.LVL18
 3102 042f FA110000 		.4byte	0x11fa
 3103 0433 14       		.uleb128 0x14
 3104 0434 01       		.uleb128 0x1
 3105 0435 50       		.byte	0x50
 3106 0436 01       		.uleb128 0x1
 3107 0437 30       		.byte	0x30
 3108 0438 00       		.byte	0
 3109 0439 00       		.byte	0
 3110 043a 1E       		.uleb128 0x1e
 3111 043b 64010000 		.4byte	.LASF55
 3112 043f 01       		.byte	0x1
 3113 0440 8501     		.2byte	0x185
 3114 0442 FC010000 		.4byte	0x1fc
 3115 0446 00000000 		.4byte	.LFB15
 3116 044a 1C000000 		.4byte	.LFE15-.LFB15
 3117 044e 01       		.uleb128 0x1
 3118 044f 9C       		.byte	0x9c
 3119 0450 74040000 		.4byte	0x474
 3120 0454 1F       		.uleb128 0x1f
 3121 0455 F7050000 		.4byte	.LASF51
 3122 0459 01       		.byte	0x1
 3123 045a 8501     		.2byte	0x185
 3124 045c 83000000 		.4byte	0x83
 3125 0460 BA000000 		.4byte	.LLST5
 3126 0464 13       		.uleb128 0x13
 3127 0465 0E000000 		.4byte	.LVL24
 3128 0469 FA110000 		.4byte	0x11fa
 3129 046d 14       		.uleb128 0x14
 3130 046e 01       		.uleb128 0x1
 3131 046f 50       		.byte	0x50
 3132 0470 01       		.uleb128 0x1
 3133 0471 30       		.byte	0x30
 3134 0472 00       		.byte	0
 3135 0473 00       		.byte	0
 3136 0474 1E       		.uleb128 0x1e
 3137 0475 13060000 		.4byte	.LASF56
 3138 0479 01       		.byte	0x1
 3139 047a E401     		.2byte	0x1e4
 3140 047c 83000000 		.4byte	0x83
 3141 0480 00000000 		.4byte	.LFB18
 3142 0484 28000000 		.4byte	.LFE18-.LFB18
 3143 0488 01       		.uleb128 0x1
 3144 0489 9C       		.byte	0x9c
 3145 048a AF040000 		.4byte	0x4af
 3146 048e 11       		.uleb128 0x11
 3147 048f F7050000 		.4byte	.LASF51
 3148 0493 01       		.byte	0x1
 3149 0494 E601     		.2byte	0x1e6
 3150 0496 83000000 		.4byte	0x83
 3151 049a E6000000 		.4byte	.LLST6
 3152 049e 11       		.uleb128 0x11
 3153 049f 2B060000 		.4byte	.LASF57
 3154 04a3 01       		.byte	0x1
 3155 04a4 E701     		.2byte	0x1e7
ARM GAS  C:\Users\Tim\AppData\Local\Temp\ccEK2rHG.s 			page 83


 3156 04a6 77000000 		.4byte	0x77
 3157 04aa 05010000 		.4byte	.LLST7
 3158 04ae 00       		.byte	0
 3159 04af 1E       		.uleb128 0x1e
 3160 04b0 DC070000 		.4byte	.LASF58
 3161 04b4 01       		.byte	0x1
 3162 04b5 0802     		.2byte	0x208
 3163 04b7 A4000000 		.4byte	0xa4
 3164 04bb 00000000 		.4byte	.LFB19
 3165 04bf 24000000 		.4byte	.LFE19-.LFB19
 3166 04c3 01       		.uleb128 0x1
 3167 04c4 9C       		.byte	0x9c
 3168 04c5 09050000 		.4byte	0x509
 3169 04c9 1F       		.uleb128 0x1f
 3170 04ca F7050000 		.4byte	.LASF51
 3171 04ce 01       		.byte	0x1
 3172 04cf 0802     		.2byte	0x208
 3173 04d1 83000000 		.4byte	0x83
 3174 04d5 32010000 		.4byte	.LLST8
 3175 04d9 11       		.uleb128 0x11
 3176 04da 2B060000 		.4byte	.LASF57
 3177 04de 01       		.byte	0x1
 3178 04df 0A02     		.2byte	0x20a
 3179 04e1 77000000 		.4byte	0x77
 3180 04e5 5E010000 		.4byte	.LLST9
 3181 04e9 11       		.uleb128 0x11
 3182 04ea A1010000 		.4byte	.LASF59
 3183 04ee 01       		.byte	0x1
 3184 04ef 0B02     		.2byte	0x20b
 3185 04f1 A4000000 		.4byte	0xa4
 3186 04f5 90010000 		.4byte	.LLST10
 3187 04f9 13       		.uleb128 0x13
 3188 04fa 0E000000 		.4byte	.LVL36
 3189 04fe FA110000 		.4byte	0x11fa
 3190 0502 14       		.uleb128 0x14
 3191 0503 01       		.uleb128 0x1
 3192 0504 50       		.byte	0x50
 3193 0505 01       		.uleb128 0x1
 3194 0506 30       		.byte	0x30
 3195 0507 00       		.byte	0
 3196 0508 00       		.byte	0
 3197 0509 1C       		.uleb128 0x1c
 3198 050a 66000000 		.4byte	.LASF60
 3199 050e 01       		.byte	0x1
 3200 050f 3102     		.2byte	0x231
 3201 0511 00000000 		.4byte	.LFB20
 3202 0515 24000000 		.4byte	.LFE20-.LFB20
 3203 0519 01       		.uleb128 0x1
 3204 051a 9C       		.byte	0x9c
 3205 051b 3F050000 		.4byte	0x53f
 3206 051f 1F       		.uleb128 0x1f
 3207 0520 F7050000 		.4byte	.LASF51
 3208 0524 01       		.byte	0x1
 3209 0525 3102     		.2byte	0x231
 3210 0527 83000000 		.4byte	0x83
 3211 052b B0010000 		.4byte	.LLST11
 3212 052f 13       		.uleb128 0x13
ARM GAS  C:\Users\Tim\AppData\Local\Temp\ccEK2rHG.s 			page 84


 3213 0530 0E000000 		.4byte	.LVL43
 3214 0534 FA110000 		.4byte	0x11fa
 3215 0538 14       		.uleb128 0x14
 3216 0539 01       		.uleb128 0x1
 3217 053a 50       		.byte	0x50
 3218 053b 01       		.uleb128 0x1
 3219 053c 30       		.byte	0x30
 3220 053d 00       		.byte	0
 3221 053e 00       		.byte	0
 3222 053f 1C       		.uleb128 0x1c
 3223 0540 44000000 		.4byte	.LASF61
 3224 0544 01       		.byte	0x1
 3225 0545 4A02     		.2byte	0x24a
 3226 0547 00000000 		.4byte	.LFB21
 3227 054b 20000000 		.4byte	.LFE21-.LFB21
 3228 054f 01       		.uleb128 0x1
 3229 0550 9C       		.byte	0x9c
 3230 0551 75050000 		.4byte	0x575
 3231 0555 1F       		.uleb128 0x1f
 3232 0556 F7050000 		.4byte	.LASF51
 3233 055a 01       		.byte	0x1
 3234 055b 4A02     		.2byte	0x24a
 3235 055d 83000000 		.4byte	0x83
 3236 0561 DC010000 		.4byte	.LLST12
 3237 0565 13       		.uleb128 0x13
 3238 0566 0E000000 		.4byte	.LVL47
 3239 056a FA110000 		.4byte	0x11fa
 3240 056e 14       		.uleb128 0x14
 3241 056f 01       		.uleb128 0x1
 3242 0570 50       		.byte	0x50
 3243 0571 01       		.uleb128 0x1
 3244 0572 30       		.byte	0x30
 3245 0573 00       		.byte	0
 3246 0574 00       		.byte	0
 3247 0575 1C       		.uleb128 0x1c
 3248 0576 62070000 		.4byte	.LASF62
 3249 057a 01       		.byte	0x1
 3250 057b 6102     		.2byte	0x261
 3251 057d 00000000 		.4byte	.LFB22
 3252 0581 2C000000 		.4byte	.LFE22-.LFB22
 3253 0585 01       		.uleb128 0x1
 3254 0586 9C       		.byte	0x9c
 3255 0587 BD050000 		.4byte	0x5bd
 3256 058b 1F       		.uleb128 0x1f
 3257 058c F7050000 		.4byte	.LASF51
 3258 0590 01       		.byte	0x1
 3259 0591 6102     		.2byte	0x261
 3260 0593 83000000 		.4byte	0x83
 3261 0597 08020000 		.4byte	.LLST13
 3262 059b 20       		.uleb128 0x20
 3263 059c C8000000 		.4byte	.LASF63
 3264 05a0 01       		.byte	0x1
 3265 05a1 6402     		.2byte	0x264
 3266 05a3 CD050000 		.4byte	0x5cd
 3267 05a7 05       		.uleb128 0x5
 3268 05a8 03       		.byte	0x3
 3269 05a9 00000000 		.4byte	trCtlLut.5002
ARM GAS  C:\Users\Tim\AppData\Local\Temp\ccEK2rHG.s 			page 85


 3270 05ad 13       		.uleb128 0x13
 3271 05ae 0E000000 		.4byte	.LVL51
 3272 05b2 FA110000 		.4byte	0x11fa
 3273 05b6 14       		.uleb128 0x14
 3274 05b7 01       		.uleb128 0x1
 3275 05b8 50       		.byte	0x50
 3276 05b9 01       		.uleb128 0x1
 3277 05ba 30       		.byte	0x30
 3278 05bb 00       		.byte	0
 3279 05bc 00       		.byte	0
 3280 05bd 0A       		.uleb128 0xa
 3281 05be 77000000 		.4byte	0x77
 3282 05c2 CD050000 		.4byte	0x5cd
 3283 05c6 0B       		.uleb128 0xb
 3284 05c7 F9000000 		.4byte	0xf9
 3285 05cb 03       		.byte	0x3
 3286 05cc 00       		.byte	0
 3287 05cd 21       		.uleb128 0x21
 3288 05ce BD050000 		.4byte	0x5bd
 3289 05d2 1C       		.uleb128 0x1c
 3290 05d3 23050000 		.4byte	.LASF64
 3291 05d7 01       		.byte	0x1
 3292 05d8 7F02     		.2byte	0x27f
 3293 05da 00000000 		.4byte	.LFB23
 3294 05de 34000000 		.4byte	.LFE23-.LFB23
 3295 05e2 01       		.uleb128 0x1
 3296 05e3 9C       		.byte	0x9c
 3297 05e4 39060000 		.4byte	0x639
 3298 05e8 1F       		.uleb128 0x1f
 3299 05e9 F7050000 		.4byte	.LASF51
 3300 05ed 01       		.byte	0x1
 3301 05ee 7F02     		.2byte	0x27f
 3302 05f0 83000000 		.4byte	0x83
 3303 05f4 34020000 		.4byte	.LLST14
 3304 05f8 1F       		.uleb128 0x1f
 3305 05f9 2B030000 		.4byte	.LASF65
 3306 05fd 01       		.byte	0x1
 3307 05fe 7F02     		.2byte	0x27f
 3308 0600 83000000 		.4byte	0x83
 3309 0604 60020000 		.4byte	.LLST15
 3310 0608 20       		.uleb128 0x20
 3311 0609 EB010000 		.4byte	.LASF66
 3312 060d 01       		.byte	0x1
 3313 060e 8102     		.2byte	0x281
 3314 0610 77000000 		.4byte	0x77
 3315 0614 01       		.uleb128 0x1
 3316 0615 53       		.byte	0x53
 3317 0616 1A       		.uleb128 0x1a
 3318 0617 10000000 		.4byte	.LVL55
 3319 061b FA110000 		.4byte	0x11fa
 3320 061f 29060000 		.4byte	0x629
 3321 0623 14       		.uleb128 0x14
 3322 0624 01       		.uleb128 0x1
 3323 0625 50       		.byte	0x50
 3324 0626 01       		.uleb128 0x1
 3325 0627 30       		.byte	0x30
 3326 0628 00       		.byte	0
ARM GAS  C:\Users\Tim\AppData\Local\Temp\ccEK2rHG.s 			page 86


 3327 0629 13       		.uleb128 0x13
 3328 062a 1A000000 		.4byte	.LVL56
 3329 062e FA110000 		.4byte	0x11fa
 3330 0632 14       		.uleb128 0x14
 3331 0633 01       		.uleb128 0x1
 3332 0634 50       		.byte	0x50
 3333 0635 01       		.uleb128 0x1
 3334 0636 30       		.byte	0x30
 3335 0637 00       		.byte	0
 3336 0638 00       		.byte	0
 3337 0639 1E       		.uleb128 0x1e
 3338 063a 7A000000 		.4byte	.LASF67
 3339 063e 01       		.byte	0x1
 3340 063f 9902     		.2byte	0x299
 3341 0641 83000000 		.4byte	0x83
 3342 0645 00000000 		.4byte	.LFB24
 3343 0649 20000000 		.4byte	.LFE24-.LFB24
 3344 064d 01       		.uleb128 0x1
 3345 064e 9C       		.byte	0x9c
 3346 064f 81060000 		.4byte	0x681
 3347 0653 1F       		.uleb128 0x1f
 3348 0654 F7050000 		.4byte	.LASF51
 3349 0658 01       		.byte	0x1
 3350 0659 9902     		.2byte	0x299
 3351 065b 83000000 		.4byte	0x83
 3352 065f 8C020000 		.4byte	.LLST16
 3353 0663 20       		.uleb128 0x20
 3354 0664 2B030000 		.4byte	.LASF65
 3355 0668 01       		.byte	0x1
 3356 0669 9B02     		.2byte	0x29b
 3357 066b 77000000 		.4byte	0x77
 3358 066f 01       		.uleb128 0x1
 3359 0670 50       		.byte	0x50
 3360 0671 13       		.uleb128 0x13
 3361 0672 0E000000 		.4byte	.LVL62
 3362 0676 FA110000 		.4byte	0x11fa
 3363 067a 14       		.uleb128 0x14
 3364 067b 01       		.uleb128 0x1
 3365 067c 50       		.byte	0x50
 3366 067d 01       		.uleb128 0x1
 3367 067e 30       		.byte	0x30
 3368 067f 00       		.byte	0
 3369 0680 00       		.byte	0
 3370 0681 1C       		.uleb128 0x1c
 3371 0682 64020000 		.4byte	.LASF68
 3372 0686 01       		.byte	0x1
 3373 0687 B702     		.2byte	0x2b7
 3374 0689 00000000 		.4byte	.LFB25
 3375 068d 34000000 		.4byte	.LFE25-.LFB25
 3376 0691 01       		.uleb128 0x1
 3377 0692 9C       		.byte	0x9c
 3378 0693 E8060000 		.4byte	0x6e8
 3379 0697 1F       		.uleb128 0x1f
 3380 0698 F7050000 		.4byte	.LASF51
 3381 069c 01       		.byte	0x1
 3382 069d B702     		.2byte	0x2b7
 3383 069f 83000000 		.4byte	0x83
ARM GAS  C:\Users\Tim\AppData\Local\Temp\ccEK2rHG.s 			page 87


 3384 06a3 B8020000 		.4byte	.LLST17
 3385 06a7 1F       		.uleb128 0x1f
 3386 06a8 20060000 		.4byte	.LASF22
 3387 06ac 01       		.byte	0x1
 3388 06ad B702     		.2byte	0x2b7
 3389 06af 83000000 		.4byte	0x83
 3390 06b3 E4020000 		.4byte	.LLST18
 3391 06b7 20       		.uleb128 0x20
 3392 06b8 EB010000 		.4byte	.LASF66
 3393 06bc 01       		.byte	0x1
 3394 06bd B902     		.2byte	0x2b9
 3395 06bf 77000000 		.4byte	0x77
 3396 06c3 01       		.uleb128 0x1
 3397 06c4 53       		.byte	0x53
 3398 06c5 1A       		.uleb128 0x1a
 3399 06c6 10000000 		.4byte	.LVL67
 3400 06ca FA110000 		.4byte	0x11fa
 3401 06ce D8060000 		.4byte	0x6d8
 3402 06d2 14       		.uleb128 0x14
 3403 06d3 01       		.uleb128 0x1
 3404 06d4 50       		.byte	0x50
 3405 06d5 01       		.uleb128 0x1
 3406 06d6 30       		.byte	0x30
 3407 06d7 00       		.byte	0
 3408 06d8 13       		.uleb128 0x13
 3409 06d9 1A000000 		.4byte	.LVL68
 3410 06dd FA110000 		.4byte	0x11fa
 3411 06e1 14       		.uleb128 0x14
 3412 06e2 01       		.uleb128 0x1
 3413 06e3 50       		.byte	0x50
 3414 06e4 01       		.uleb128 0x1
 3415 06e5 30       		.byte	0x30
 3416 06e6 00       		.byte	0
 3417 06e7 00       		.byte	0
 3418 06e8 1E       		.uleb128 0x1e
 3419 06e9 09010000 		.4byte	.LASF69
 3420 06ed 01       		.byte	0x1
 3421 06ee D202     		.2byte	0x2d2
 3422 06f0 83000000 		.4byte	0x83
 3423 06f4 00000000 		.4byte	.LFB26
 3424 06f8 20000000 		.4byte	.LFE26-.LFB26
 3425 06fc 01       		.uleb128 0x1
 3426 06fd 9C       		.byte	0x9c
 3427 06fe 30070000 		.4byte	0x730
 3428 0702 1F       		.uleb128 0x1f
 3429 0703 F7050000 		.4byte	.LASF51
 3430 0707 01       		.byte	0x1
 3431 0708 D202     		.2byte	0x2d2
 3432 070a 83000000 		.4byte	0x83
 3433 070e 10030000 		.4byte	.LLST19
 3434 0712 20       		.uleb128 0x20
 3435 0713 E8050000 		.4byte	.LASF70
 3436 0717 01       		.byte	0x1
 3437 0718 D402     		.2byte	0x2d4
 3438 071a 77000000 		.4byte	0x77
 3439 071e 01       		.uleb128 0x1
 3440 071f 50       		.byte	0x50
ARM GAS  C:\Users\Tim\AppData\Local\Temp\ccEK2rHG.s 			page 88


 3441 0720 13       		.uleb128 0x13
 3442 0721 0E000000 		.4byte	.LVL74
 3443 0725 FA110000 		.4byte	0x11fa
 3444 0729 14       		.uleb128 0x14
 3445 072a 01       		.uleb128 0x1
 3446 072b 50       		.byte	0x50
 3447 072c 01       		.uleb128 0x1
 3448 072d 30       		.byte	0x30
 3449 072e 00       		.byte	0
 3450 072f 00       		.byte	0
 3451 0730 1C       		.uleb128 0x1c
 3452 0731 B2000000 		.4byte	.LASF71
 3453 0735 01       		.byte	0x1
 3454 0736 F502     		.2byte	0x2f5
 3455 0738 00000000 		.4byte	.LFB27
 3456 073c E4000000 		.4byte	.LFE27-.LFB27
 3457 0740 01       		.uleb128 0x1
 3458 0741 9C       		.byte	0x9c
 3459 0742 31080000 		.4byte	0x831
 3460 0746 1F       		.uleb128 0x1f
 3461 0747 F7050000 		.4byte	.LASF51
 3462 074b 01       		.byte	0x1
 3463 074c F502     		.2byte	0x2f5
 3464 074e 83000000 		.4byte	0x83
 3465 0752 3C030000 		.4byte	.LLST20
 3466 0756 1F       		.uleb128 0x1f
 3467 0757 20060000 		.4byte	.LASF22
 3468 075b 01       		.byte	0x1
 3469 075c F502     		.2byte	0x2f5
 3470 075e 83000000 		.4byte	0x83
 3471 0762 68030000 		.4byte	.LLST21
 3472 0766 1F       		.uleb128 0x1f
 3473 0767 63060000 		.4byte	.LASF72
 3474 076b 01       		.byte	0x1
 3475 076c F502     		.2byte	0x2f5
 3476 076e 31080000 		.4byte	0x831
 3477 0772 94030000 		.4byte	.LLST22
 3478 0776 1A       		.uleb128 0x1a
 3479 0777 12000000 		.4byte	.LVL79
 3480 077b FA110000 		.4byte	0x11fa
 3481 077f 89070000 		.4byte	0x789
 3482 0783 14       		.uleb128 0x14
 3483 0784 01       		.uleb128 0x1
 3484 0785 50       		.byte	0x50
 3485 0786 01       		.uleb128 0x1
 3486 0787 30       		.byte	0x30
 3487 0788 00       		.byte	0
 3488 0789 1A       		.uleb128 0x1a
 3489 078a 1C000000 		.4byte	.LVL80
 3490 078e FA110000 		.4byte	0x11fa
 3491 0792 9C070000 		.4byte	0x79c
 3492 0796 14       		.uleb128 0x14
 3493 0797 01       		.uleb128 0x1
 3494 0798 50       		.byte	0x50
 3495 0799 01       		.uleb128 0x1
 3496 079a 30       		.byte	0x30
 3497 079b 00       		.byte	0
ARM GAS  C:\Users\Tim\AppData\Local\Temp\ccEK2rHG.s 			page 89


 3498 079c 1A       		.uleb128 0x1a
 3499 079d 2A000000 		.4byte	.LVL81
 3500 07a1 FA110000 		.4byte	0x11fa
 3501 07a5 AF070000 		.4byte	0x7af
 3502 07a9 14       		.uleb128 0x14
 3503 07aa 01       		.uleb128 0x1
 3504 07ab 50       		.byte	0x50
 3505 07ac 01       		.uleb128 0x1
 3506 07ad 30       		.byte	0x30
 3507 07ae 00       		.byte	0
 3508 07af 1A       		.uleb128 0x1a
 3509 07b0 3A000000 		.4byte	.LVL82
 3510 07b4 FA110000 		.4byte	0x11fa
 3511 07b8 C2070000 		.4byte	0x7c2
 3512 07bc 14       		.uleb128 0x14
 3513 07bd 01       		.uleb128 0x1
 3514 07be 50       		.byte	0x50
 3515 07bf 01       		.uleb128 0x1
 3516 07c0 30       		.byte	0x30
 3517 07c1 00       		.byte	0
 3518 07c2 1A       		.uleb128 0x1a
 3519 07c3 48000000 		.4byte	.LVL83
 3520 07c7 FA110000 		.4byte	0x11fa
 3521 07cb D5070000 		.4byte	0x7d5
 3522 07cf 14       		.uleb128 0x14
 3523 07d0 01       		.uleb128 0x1
 3524 07d1 50       		.byte	0x50
 3525 07d2 01       		.uleb128 0x1
 3526 07d3 30       		.byte	0x30
 3527 07d4 00       		.byte	0
 3528 07d5 1A       		.uleb128 0x1a
 3529 07d6 56000000 		.4byte	.LVL84
 3530 07da FA110000 		.4byte	0x11fa
 3531 07de E8070000 		.4byte	0x7e8
 3532 07e2 14       		.uleb128 0x14
 3533 07e3 01       		.uleb128 0x1
 3534 07e4 50       		.byte	0x50
 3535 07e5 01       		.uleb128 0x1
 3536 07e6 30       		.byte	0x30
 3537 07e7 00       		.byte	0
 3538 07e8 1A       		.uleb128 0x1a
 3539 07e9 64000000 		.4byte	.LVL85
 3540 07ed FA110000 		.4byte	0x11fa
 3541 07f1 FB070000 		.4byte	0x7fb
 3542 07f5 14       		.uleb128 0x14
 3543 07f6 01       		.uleb128 0x1
 3544 07f7 50       		.byte	0x50
 3545 07f8 01       		.uleb128 0x1
 3546 07f9 30       		.byte	0x30
 3547 07fa 00       		.byte	0
 3548 07fb 1A       		.uleb128 0x1a
 3549 07fc 70000000 		.4byte	.LVL86
 3550 0800 FA110000 		.4byte	0x11fa
 3551 0804 0E080000 		.4byte	0x80e
 3552 0808 14       		.uleb128 0x14
 3553 0809 01       		.uleb128 0x1
 3554 080a 50       		.byte	0x50
ARM GAS  C:\Users\Tim\AppData\Local\Temp\ccEK2rHG.s 			page 90


 3555 080b 01       		.uleb128 0x1
 3556 080c 30       		.byte	0x30
 3557 080d 00       		.byte	0
 3558 080e 1A       		.uleb128 0x1a
 3559 080f 7E000000 		.4byte	.LVL87
 3560 0813 FA110000 		.4byte	0x11fa
 3561 0817 21080000 		.4byte	0x821
 3562 081b 14       		.uleb128 0x14
 3563 081c 01       		.uleb128 0x1
 3564 081d 50       		.byte	0x50
 3565 081e 01       		.uleb128 0x1
 3566 081f 30       		.byte	0x30
 3567 0820 00       		.byte	0
 3568 0821 13       		.uleb128 0x13
 3569 0822 8C000000 		.4byte	.LVL88
 3570 0826 FA110000 		.4byte	0x11fa
 3571 082a 14       		.uleb128 0x14
 3572 082b 01       		.uleb128 0x1
 3573 082c 50       		.byte	0x50
 3574 082d 01       		.uleb128 0x1
 3575 082e 30       		.byte	0x30
 3576 082f 00       		.byte	0
 3577 0830 00       		.byte	0
 3578 0831 06       		.uleb128 0x6
 3579 0832 04       		.byte	0x4
 3580 0833 37080000 		.4byte	0x837
 3581 0837 21       		.uleb128 0x21
 3582 0838 F1010000 		.4byte	0x1f1
 3583 083c 1C       		.uleb128 0x1c
 3584 083d B3060000 		.4byte	.LASF73
 3585 0841 01       		.byte	0x1
 3586 0842 2503     		.2byte	0x325
 3587 0844 00000000 		.4byte	.LFB28
 3588 0848 34000000 		.4byte	.LFE28-.LFB28
 3589 084c 01       		.uleb128 0x1
 3590 084d 9C       		.byte	0x9c
 3591 084e 95080000 		.4byte	0x895
 3592 0852 1F       		.uleb128 0x1f
 3593 0853 F7050000 		.4byte	.LASF51
 3594 0857 01       		.byte	0x1
 3595 0858 2503     		.2byte	0x325
 3596 085a 83000000 		.4byte	0x83
 3597 085e C0030000 		.4byte	.LLST23
 3598 0862 1F       		.uleb128 0x1f
 3599 0863 20060000 		.4byte	.LASF22
 3600 0867 01       		.byte	0x1
 3601 0868 2503     		.2byte	0x325
 3602 086a 83000000 		.4byte	0x83
 3603 086e EC030000 		.4byte	.LLST24
 3604 0872 1A       		.uleb128 0x1a
 3605 0873 10000000 		.4byte	.LVL94
 3606 0877 FA110000 		.4byte	0x11fa
 3607 087b 85080000 		.4byte	0x885
 3608 087f 14       		.uleb128 0x14
 3609 0880 01       		.uleb128 0x1
 3610 0881 50       		.byte	0x50
 3611 0882 01       		.uleb128 0x1
ARM GAS  C:\Users\Tim\AppData\Local\Temp\ccEK2rHG.s 			page 91


 3612 0883 30       		.byte	0x30
 3613 0884 00       		.byte	0
 3614 0885 13       		.uleb128 0x13
 3615 0886 1A000000 		.4byte	.LVL95
 3616 088a FA110000 		.4byte	0x11fa
 3617 088e 14       		.uleb128 0x14
 3618 088f 01       		.uleb128 0x1
 3619 0890 50       		.byte	0x50
 3620 0891 01       		.uleb128 0x1
 3621 0892 30       		.byte	0x30
 3622 0893 00       		.byte	0
 3623 0894 00       		.byte	0
 3624 0895 1E       		.uleb128 0x1e
 3625 0896 1E040000 		.4byte	.LASF74
 3626 089a 01       		.byte	0x1
 3627 089b 3F03     		.2byte	0x33f
 3628 089d 77000000 		.4byte	0x77
 3629 08a1 00000000 		.4byte	.LFB29
 3630 08a5 30000000 		.4byte	.LFE29-.LFB29
 3631 08a9 01       		.uleb128 0x1
 3632 08aa 9C       		.byte	0x9c
 3633 08ab F2080000 		.4byte	0x8f2
 3634 08af 1F       		.uleb128 0x1f
 3635 08b0 F7050000 		.4byte	.LASF51
 3636 08b4 01       		.byte	0x1
 3637 08b5 3F03     		.2byte	0x33f
 3638 08b7 83000000 		.4byte	0x83
 3639 08bb 18040000 		.4byte	.LLST25
 3640 08bf 1F       		.uleb128 0x1f
 3641 08c0 20060000 		.4byte	.LASF22
 3642 08c4 01       		.byte	0x1
 3643 08c5 3F03     		.2byte	0x33f
 3644 08c7 83000000 		.4byte	0x83
 3645 08cb 44040000 		.4byte	.LLST26
 3646 08cf 1A       		.uleb128 0x1a
 3647 08d0 10000000 		.4byte	.LVL100
 3648 08d4 FA110000 		.4byte	0x11fa
 3649 08d8 E2080000 		.4byte	0x8e2
 3650 08dc 14       		.uleb128 0x14
 3651 08dd 01       		.uleb128 0x1
 3652 08de 50       		.byte	0x50
 3653 08df 01       		.uleb128 0x1
 3654 08e0 30       		.byte	0x30
 3655 08e1 00       		.byte	0
 3656 08e2 13       		.uleb128 0x13
 3657 08e3 1A000000 		.4byte	.LVL101
 3658 08e7 FA110000 		.4byte	0x11fa
 3659 08eb 14       		.uleb128 0x14
 3660 08ec 01       		.uleb128 0x1
 3661 08ed 50       		.byte	0x50
 3662 08ee 01       		.uleb128 0x1
 3663 08ef 30       		.byte	0x30
 3664 08f0 00       		.byte	0
 3665 08f1 00       		.byte	0
 3666 08f2 1C       		.uleb128 0x1c
 3667 08f3 42010000 		.4byte	.LASF75
 3668 08f7 01       		.byte	0x1
ARM GAS  C:\Users\Tim\AppData\Local\Temp\ccEK2rHG.s 			page 92


 3669 08f8 5C03     		.2byte	0x35c
 3670 08fa 00000000 		.4byte	.LFB30
 3671 08fe 2C000000 		.4byte	.LFE30-.LFB30
 3672 0902 01       		.uleb128 0x1
 3673 0903 9C       		.byte	0x9c
 3674 0904 5B090000 		.4byte	0x95b
 3675 0908 1F       		.uleb128 0x1f
 3676 0909 F7050000 		.4byte	.LASF51
 3677 090d 01       		.byte	0x1
 3678 090e 5C03     		.2byte	0x35c
 3679 0910 83000000 		.4byte	0x83
 3680 0914 70040000 		.4byte	.LLST27
 3681 0918 1F       		.uleb128 0x1f
 3682 0919 20060000 		.4byte	.LASF22
 3683 091d 01       		.byte	0x1
 3684 091e 5C03     		.2byte	0x35c
 3685 0920 83000000 		.4byte	0x83
 3686 0924 9C040000 		.4byte	.LLST28
 3687 0928 1F       		.uleb128 0x1f
 3688 0929 13040000 		.4byte	.LASF76
 3689 092d 01       		.byte	0x1
 3690 092e 5C03     		.2byte	0x35c
 3691 0930 44010000 		.4byte	0x144
 3692 0934 C8040000 		.4byte	.LLST29
 3693 0938 1A       		.uleb128 0x1a
 3694 0939 12000000 		.4byte	.LVL106
 3695 093d FA110000 		.4byte	0x11fa
 3696 0941 4B090000 		.4byte	0x94b
 3697 0945 14       		.uleb128 0x14
 3698 0946 01       		.uleb128 0x1
 3699 0947 50       		.byte	0x50
 3700 0948 01       		.uleb128 0x1
 3701 0949 30       		.byte	0x30
 3702 094a 00       		.byte	0
 3703 094b 13       		.uleb128 0x13
 3704 094c 1C000000 		.4byte	.LVL107
 3705 0950 FA110000 		.4byte	0x11fa
 3706 0954 14       		.uleb128 0x14
 3707 0955 01       		.uleb128 0x1
 3708 0956 50       		.byte	0x50
 3709 0957 01       		.uleb128 0x1
 3710 0958 30       		.byte	0x30
 3711 0959 00       		.byte	0
 3712 095a 00       		.byte	0
 3713 095b 1E       		.uleb128 0x1e
 3714 095c 18000000 		.4byte	.LASF77
 3715 0960 01       		.byte	0x1
 3716 0961 7503     		.2byte	0x375
 3717 0963 44010000 		.4byte	0x144
 3718 0967 00000000 		.4byte	.LFB31
 3719 096b 2C000000 		.4byte	.LFE31-.LFB31
 3720 096f 01       		.uleb128 0x1
 3721 0970 9C       		.byte	0x9c
 3722 0971 B8090000 		.4byte	0x9b8
 3723 0975 1F       		.uleb128 0x1f
 3724 0976 F7050000 		.4byte	.LASF51
 3725 097a 01       		.byte	0x1
ARM GAS  C:\Users\Tim\AppData\Local\Temp\ccEK2rHG.s 			page 93


 3726 097b 7503     		.2byte	0x375
 3727 097d 83000000 		.4byte	0x83
 3728 0981 F4040000 		.4byte	.LLST30
 3729 0985 1F       		.uleb128 0x1f
 3730 0986 20060000 		.4byte	.LASF22
 3731 098a 01       		.byte	0x1
 3732 098b 7503     		.2byte	0x375
 3733 098d 83000000 		.4byte	0x83
 3734 0991 20050000 		.4byte	.LLST31
 3735 0995 1A       		.uleb128 0x1a
 3736 0996 10000000 		.4byte	.LVL113
 3737 099a FA110000 		.4byte	0x11fa
 3738 099e A8090000 		.4byte	0x9a8
 3739 09a2 14       		.uleb128 0x14
 3740 09a3 01       		.uleb128 0x1
 3741 09a4 50       		.byte	0x50
 3742 09a5 01       		.uleb128 0x1
 3743 09a6 30       		.byte	0x30
 3744 09a7 00       		.byte	0
 3745 09a8 13       		.uleb128 0x13
 3746 09a9 1A000000 		.4byte	.LVL114
 3747 09ad FA110000 		.4byte	0x11fa
 3748 09b1 14       		.uleb128 0x14
 3749 09b2 01       		.uleb128 0x1
 3750 09b3 50       		.byte	0x50
 3751 09b4 01       		.uleb128 0x1
 3752 09b5 30       		.byte	0x30
 3753 09b6 00       		.byte	0
 3754 09b7 00       		.byte	0
 3755 09b8 1C       		.uleb128 0x1c
 3756 09b9 53000000 		.4byte	.LASF78
 3757 09bd 01       		.byte	0x1
 3758 09be 9203     		.2byte	0x392
 3759 09c0 00000000 		.4byte	.LFB32
 3760 09c4 30000000 		.4byte	.LFE32-.LFB32
 3761 09c8 01       		.uleb128 0x1
 3762 09c9 9C       		.byte	0x9c
 3763 09ca 210A0000 		.4byte	0xa21
 3764 09ce 1F       		.uleb128 0x1f
 3765 09cf F7050000 		.4byte	.LASF51
 3766 09d3 01       		.byte	0x1
 3767 09d4 9203     		.2byte	0x392
 3768 09d6 83000000 		.4byte	0x83
 3769 09da 4C050000 		.4byte	.LLST32
 3770 09de 1F       		.uleb128 0x1f
 3771 09df 20060000 		.4byte	.LASF22
 3772 09e3 01       		.byte	0x1
 3773 09e4 9203     		.2byte	0x392
 3774 09e6 83000000 		.4byte	0x83
 3775 09ea 78050000 		.4byte	.LLST33
 3776 09ee 1F       		.uleb128 0x1f
 3777 09ef BE020000 		.4byte	.LASF79
 3778 09f3 01       		.byte	0x1
 3779 09f4 9203     		.2byte	0x392
 3780 09f6 44010000 		.4byte	0x144
 3781 09fa A4050000 		.4byte	.LLST34
 3782 09fe 1A       		.uleb128 0x1a
ARM GAS  C:\Users\Tim\AppData\Local\Temp\ccEK2rHG.s 			page 94


 3783 09ff 12000000 		.4byte	.LVL119
 3784 0a03 FA110000 		.4byte	0x11fa
 3785 0a07 110A0000 		.4byte	0xa11
 3786 0a0b 14       		.uleb128 0x14
 3787 0a0c 01       		.uleb128 0x1
 3788 0a0d 50       		.byte	0x50
 3789 0a0e 01       		.uleb128 0x1
 3790 0a0f 30       		.byte	0x30
 3791 0a10 00       		.byte	0
 3792 0a11 13       		.uleb128 0x13
 3793 0a12 1C000000 		.4byte	.LVL120
 3794 0a16 FA110000 		.4byte	0x11fa
 3795 0a1a 14       		.uleb128 0x14
 3796 0a1b 01       		.uleb128 0x1
 3797 0a1c 50       		.byte	0x50
 3798 0a1d 01       		.uleb128 0x1
 3799 0a1e 30       		.byte	0x30
 3800 0a1f 00       		.byte	0
 3801 0a20 00       		.byte	0
 3802 0a21 1E       		.uleb128 0x1e
 3803 0a22 E8060000 		.4byte	.LASF80
 3804 0a26 01       		.byte	0x1
 3805 0a27 AB03     		.2byte	0x3ab
 3806 0a29 44010000 		.4byte	0x144
 3807 0a2d 00000000 		.4byte	.LFB33
 3808 0a31 30000000 		.4byte	.LFE33-.LFB33
 3809 0a35 01       		.uleb128 0x1
 3810 0a36 9C       		.byte	0x9c
 3811 0a37 7E0A0000 		.4byte	0xa7e
 3812 0a3b 1F       		.uleb128 0x1f
 3813 0a3c F7050000 		.4byte	.LASF51
 3814 0a40 01       		.byte	0x1
 3815 0a41 AB03     		.2byte	0x3ab
 3816 0a43 83000000 		.4byte	0x83
 3817 0a47 D0050000 		.4byte	.LLST35
 3818 0a4b 1F       		.uleb128 0x1f
 3819 0a4c 20060000 		.4byte	.LASF22
 3820 0a50 01       		.byte	0x1
 3821 0a51 AB03     		.2byte	0x3ab
 3822 0a53 83000000 		.4byte	0x83
 3823 0a57 FC050000 		.4byte	.LLST36
 3824 0a5b 1A       		.uleb128 0x1a
 3825 0a5c 10000000 		.4byte	.LVL126
 3826 0a60 FA110000 		.4byte	0x11fa
 3827 0a64 6E0A0000 		.4byte	0xa6e
 3828 0a68 14       		.uleb128 0x14
 3829 0a69 01       		.uleb128 0x1
 3830 0a6a 50       		.byte	0x50
 3831 0a6b 01       		.uleb128 0x1
 3832 0a6c 30       		.byte	0x30
 3833 0a6d 00       		.byte	0
 3834 0a6e 13       		.uleb128 0x13
 3835 0a6f 1A000000 		.4byte	.LVL127
 3836 0a73 FA110000 		.4byte	0x11fa
 3837 0a77 14       		.uleb128 0x14
 3838 0a78 01       		.uleb128 0x1
 3839 0a79 50       		.byte	0x50
ARM GAS  C:\Users\Tim\AppData\Local\Temp\ccEK2rHG.s 			page 95


 3840 0a7a 01       		.uleb128 0x1
 3841 0a7b 30       		.byte	0x30
 3842 0a7c 00       		.byte	0
 3843 0a7d 00       		.byte	0
 3844 0a7e 1C       		.uleb128 0x1c
 3845 0a7f 7D040000 		.4byte	.LASF81
 3846 0a83 01       		.byte	0x1
 3847 0a84 CC03     		.2byte	0x3cc
 3848 0a86 00000000 		.4byte	.LFB34
 3849 0a8a 48000000 		.4byte	.LFE34-.LFB34
 3850 0a8e 01       		.uleb128 0x1
 3851 0a8f 9C       		.byte	0x9c
 3852 0a90 080B0000 		.4byte	0xb08
 3853 0a94 1F       		.uleb128 0x1f
 3854 0a95 F7050000 		.4byte	.LASF51
 3855 0a99 01       		.byte	0x1
 3856 0a9a CC03     		.2byte	0x3cc
 3857 0a9c 83000000 		.4byte	0x83
 3858 0aa0 28060000 		.4byte	.LLST37
 3859 0aa4 1F       		.uleb128 0x1f
 3860 0aa5 20060000 		.4byte	.LASF22
 3861 0aa9 01       		.byte	0x1
 3862 0aaa CC03     		.2byte	0x3cc
 3863 0aac 83000000 		.4byte	0x83
 3864 0ab0 54060000 		.4byte	.LLST38
 3865 0ab4 1F       		.uleb128 0x1f
 3866 0ab5 34050000 		.4byte	.LASF24
 3867 0ab9 01       		.byte	0x1
 3868 0aba CC03     		.2byte	0x3cc
 3869 0abc 77000000 		.4byte	0x77
 3870 0ac0 80060000 		.4byte	.LLST39
 3871 0ac4 20       		.uleb128 0x20
 3872 0ac5 EB010000 		.4byte	.LASF66
 3873 0ac9 01       		.byte	0x1
 3874 0aca CE03     		.2byte	0x3ce
 3875 0acc 77000000 		.4byte	0x77
 3876 0ad0 01       		.uleb128 0x1
 3877 0ad1 53       		.byte	0x53
 3878 0ad2 1A       		.uleb128 0x1a
 3879 0ad3 12000000 		.4byte	.LVL132
 3880 0ad7 FA110000 		.4byte	0x11fa
 3881 0adb E50A0000 		.4byte	0xae5
 3882 0adf 14       		.uleb128 0x14
 3883 0ae0 01       		.uleb128 0x1
 3884 0ae1 50       		.byte	0x50
 3885 0ae2 01       		.uleb128 0x1
 3886 0ae3 30       		.byte	0x30
 3887 0ae4 00       		.byte	0
 3888 0ae5 1A       		.uleb128 0x1a
 3889 0ae6 1C000000 		.4byte	.LVL133
 3890 0aea FA110000 		.4byte	0x11fa
 3891 0aee F80A0000 		.4byte	0xaf8
 3892 0af2 14       		.uleb128 0x14
 3893 0af3 01       		.uleb128 0x1
 3894 0af4 50       		.byte	0x50
 3895 0af5 01       		.uleb128 0x1
 3896 0af6 30       		.byte	0x30
ARM GAS  C:\Users\Tim\AppData\Local\Temp\ccEK2rHG.s 			page 96


 3897 0af7 00       		.byte	0
 3898 0af8 13       		.uleb128 0x13
 3899 0af9 28000000 		.4byte	.LVL134
 3900 0afd FA110000 		.4byte	0x11fa
 3901 0b01 14       		.uleb128 0x14
 3902 0b02 01       		.uleb128 0x1
 3903 0b03 50       		.byte	0x50
 3904 0b04 01       		.uleb128 0x1
 3905 0b05 30       		.byte	0x30
 3906 0b06 00       		.byte	0
 3907 0b07 00       		.byte	0
 3908 0b08 1E       		.uleb128 0x1e
 3909 0b09 7F060000 		.4byte	.LASF82
 3910 0b0d 01       		.byte	0x1
 3911 0b0e F003     		.2byte	0x3f0
 3912 0b10 77000000 		.4byte	0x77
 3913 0b14 00000000 		.4byte	.LFB35
 3914 0b18 34000000 		.4byte	.LFE35-.LFB35
 3915 0b1c 01       		.uleb128 0x1
 3916 0b1d 9C       		.byte	0x9c
 3917 0b1e 650B0000 		.4byte	0xb65
 3918 0b22 1F       		.uleb128 0x1f
 3919 0b23 F7050000 		.4byte	.LASF51
 3920 0b27 01       		.byte	0x1
 3921 0b28 F003     		.2byte	0x3f0
 3922 0b2a 83000000 		.4byte	0x83
 3923 0b2e AC060000 		.4byte	.LLST40
 3924 0b32 1F       		.uleb128 0x1f
 3925 0b33 20060000 		.4byte	.LASF22
 3926 0b37 01       		.byte	0x1
 3927 0b38 F003     		.2byte	0x3f0
 3928 0b3a 83000000 		.4byte	0x83
 3929 0b3e D8060000 		.4byte	.LLST41
 3930 0b42 1A       		.uleb128 0x1a
 3931 0b43 10000000 		.4byte	.LVL141
 3932 0b47 FA110000 		.4byte	0x11fa
 3933 0b4b 550B0000 		.4byte	0xb55
 3934 0b4f 14       		.uleb128 0x14
 3935 0b50 01       		.uleb128 0x1
 3936 0b51 50       		.byte	0x50
 3937 0b52 01       		.uleb128 0x1
 3938 0b53 30       		.byte	0x30
 3939 0b54 00       		.byte	0
 3940 0b55 13       		.uleb128 0x13
 3941 0b56 1A000000 		.4byte	.LVL142
 3942 0b5a FA110000 		.4byte	0x11fa
 3943 0b5e 14       		.uleb128 0x14
 3944 0b5f 01       		.uleb128 0x1
 3945 0b60 50       		.byte	0x50
 3946 0b61 01       		.uleb128 0x1
 3947 0b62 30       		.byte	0x30
 3948 0b63 00       		.byte	0
 3949 0b64 00       		.byte	0
 3950 0b65 1C       		.uleb128 0x1c
 3951 0b66 14070000 		.4byte	.LASF83
 3952 0b6a 01       		.byte	0x1
 3953 0b6b 0E04     		.2byte	0x40e
ARM GAS  C:\Users\Tim\AppData\Local\Temp\ccEK2rHG.s 			page 97


 3954 0b6d 00000000 		.4byte	.LFB36
 3955 0b71 4C000000 		.4byte	.LFE36-.LFB36
 3956 0b75 01       		.uleb128 0x1
 3957 0b76 9C       		.byte	0x9c
 3958 0b77 F10B0000 		.4byte	0xbf1
 3959 0b7b 1F       		.uleb128 0x1f
 3960 0b7c F7050000 		.4byte	.LASF51
 3961 0b80 01       		.byte	0x1
 3962 0b81 0E04     		.2byte	0x40e
 3963 0b83 83000000 		.4byte	0x83
 3964 0b87 04070000 		.4byte	.LLST42
 3965 0b8b 1F       		.uleb128 0x1f
 3966 0b8c 20060000 		.4byte	.LASF22
 3967 0b90 01       		.byte	0x1
 3968 0b91 0E04     		.2byte	0x40e
 3969 0b93 83000000 		.4byte	0x83
 3970 0b97 30070000 		.4byte	.LLST43
 3971 0b9b 1F       		.uleb128 0x1f
 3972 0b9c 7E010000 		.4byte	.LASF25
 3973 0ba0 01       		.byte	0x1
 3974 0ba1 0E04     		.2byte	0x40e
 3975 0ba3 83000000 		.4byte	0x83
 3976 0ba7 5C070000 		.4byte	.LLST44
 3977 0bab 11       		.uleb128 0x11
 3978 0bac EB010000 		.4byte	.LASF66
 3979 0bb0 01       		.byte	0x1
 3980 0bb1 1004     		.2byte	0x410
 3981 0bb3 77000000 		.4byte	0x77
 3982 0bb7 85070000 		.4byte	.LLST45
 3983 0bbb 1A       		.uleb128 0x1a
 3984 0bbc 12000000 		.4byte	.LVL147
 3985 0bc0 FA110000 		.4byte	0x11fa
 3986 0bc4 CE0B0000 		.4byte	0xbce
 3987 0bc8 14       		.uleb128 0x14
 3988 0bc9 01       		.uleb128 0x1
 3989 0bca 50       		.byte	0x50
 3990 0bcb 01       		.uleb128 0x1
 3991 0bcc 30       		.byte	0x30
 3992 0bcd 00       		.byte	0
 3993 0bce 1A       		.uleb128 0x1a
 3994 0bcf 1C000000 		.4byte	.LVL148
 3995 0bd3 FA110000 		.4byte	0x11fa
 3996 0bd7 E10B0000 		.4byte	0xbe1
 3997 0bdb 14       		.uleb128 0x14
 3998 0bdc 01       		.uleb128 0x1
 3999 0bdd 50       		.byte	0x50
 4000 0bde 01       		.uleb128 0x1
 4001 0bdf 30       		.byte	0x30
 4002 0be0 00       		.byte	0
 4003 0be1 13       		.uleb128 0x13
 4004 0be2 2A000000 		.4byte	.LVL149
 4005 0be6 FA110000 		.4byte	0x11fa
 4006 0bea 14       		.uleb128 0x14
 4007 0beb 01       		.uleb128 0x1
 4008 0bec 50       		.byte	0x50
 4009 0bed 01       		.uleb128 0x1
 4010 0bee 30       		.byte	0x30
ARM GAS  C:\Users\Tim\AppData\Local\Temp\ccEK2rHG.s 			page 98


 4011 0bef 00       		.byte	0
 4012 0bf0 00       		.byte	0
 4013 0bf1 1E       		.uleb128 0x1e
 4014 0bf2 EB000000 		.4byte	.LASF84
 4015 0bf6 01       		.byte	0x1
 4016 0bf7 2E04     		.2byte	0x42e
 4017 0bf9 83000000 		.4byte	0x83
 4018 0bfd 00000000 		.4byte	.LFB37
 4019 0c01 34000000 		.4byte	.LFE37-.LFB37
 4020 0c05 01       		.uleb128 0x1
 4021 0c06 9C       		.byte	0x9c
 4022 0c07 5C0C0000 		.4byte	0xc5c
 4023 0c0b 1F       		.uleb128 0x1f
 4024 0c0c F7050000 		.4byte	.LASF51
 4025 0c10 01       		.byte	0x1
 4026 0c11 2E04     		.2byte	0x42e
 4027 0c13 83000000 		.4byte	0x83
 4028 0c17 98070000 		.4byte	.LLST46
 4029 0c1b 1F       		.uleb128 0x1f
 4030 0c1c 20060000 		.4byte	.LASF22
 4031 0c20 01       		.byte	0x1
 4032 0c21 2E04     		.2byte	0x42e
 4033 0c23 83000000 		.4byte	0x83
 4034 0c27 C4070000 		.4byte	.LLST47
 4035 0c2b 20       		.uleb128 0x20
 4036 0c2c F8030000 		.4byte	.LASF85
 4037 0c30 01       		.byte	0x1
 4038 0c31 3004     		.2byte	0x430
 4039 0c33 77000000 		.4byte	0x77
 4040 0c37 01       		.uleb128 0x1
 4041 0c38 50       		.byte	0x50
 4042 0c39 1A       		.uleb128 0x1a
 4043 0c3a 10000000 		.4byte	.LVL157
 4044 0c3e FA110000 		.4byte	0x11fa
 4045 0c42 4C0C0000 		.4byte	0xc4c
 4046 0c46 14       		.uleb128 0x14
 4047 0c47 01       		.uleb128 0x1
 4048 0c48 50       		.byte	0x50
 4049 0c49 01       		.uleb128 0x1
 4050 0c4a 30       		.byte	0x30
 4051 0c4b 00       		.byte	0
 4052 0c4c 13       		.uleb128 0x13
 4053 0c4d 1A000000 		.4byte	.LVL158
 4054 0c51 FA110000 		.4byte	0x11fa
 4055 0c55 14       		.uleb128 0x14
 4056 0c56 01       		.uleb128 0x1
 4057 0c57 50       		.byte	0x50
 4058 0c58 01       		.uleb128 0x1
 4059 0c59 30       		.byte	0x30
 4060 0c5a 00       		.byte	0
 4061 0c5b 00       		.byte	0
 4062 0c5c 1C       		.uleb128 0x1c
 4063 0c5d 97060000 		.4byte	.LASF86
 4064 0c61 01       		.byte	0x1
 4065 0c62 5504     		.2byte	0x455
 4066 0c64 00000000 		.4byte	.LFB38
 4067 0c68 48000000 		.4byte	.LFE38-.LFB38
ARM GAS  C:\Users\Tim\AppData\Local\Temp\ccEK2rHG.s 			page 99


 4068 0c6c 01       		.uleb128 0x1
 4069 0c6d 9C       		.byte	0x9c
 4070 0c6e E60C0000 		.4byte	0xce6
 4071 0c72 1F       		.uleb128 0x1f
 4072 0c73 F7050000 		.4byte	.LASF51
 4073 0c77 01       		.byte	0x1
 4074 0c78 5504     		.2byte	0x455
 4075 0c7a 83000000 		.4byte	0x83
 4076 0c7e F0070000 		.4byte	.LLST48
 4077 0c82 1F       		.uleb128 0x1f
 4078 0c83 20060000 		.4byte	.LASF22
 4079 0c87 01       		.byte	0x1
 4080 0c88 5504     		.2byte	0x455
 4081 0c8a 83000000 		.4byte	0x83
 4082 0c8e 1C080000 		.4byte	.LLST49
 4083 0c92 1F       		.uleb128 0x1f
 4084 0c93 54070000 		.4byte	.LASF87
 4085 0c97 01       		.byte	0x1
 4086 0c98 5504     		.2byte	0x455
 4087 0c9a 77000000 		.4byte	0x77
 4088 0c9e 48080000 		.4byte	.LLST50
 4089 0ca2 20       		.uleb128 0x20
 4090 0ca3 EB010000 		.4byte	.LASF66
 4091 0ca7 01       		.byte	0x1
 4092 0ca8 5704     		.2byte	0x457
 4093 0caa 77000000 		.4byte	0x77
 4094 0cae 01       		.uleb128 0x1
 4095 0caf 53       		.byte	0x53
 4096 0cb0 1A       		.uleb128 0x1a
 4097 0cb1 12000000 		.4byte	.LVL164
 4098 0cb5 FA110000 		.4byte	0x11fa
 4099 0cb9 C30C0000 		.4byte	0xcc3
 4100 0cbd 14       		.uleb128 0x14
 4101 0cbe 01       		.uleb128 0x1
 4102 0cbf 50       		.byte	0x50
 4103 0cc0 01       		.uleb128 0x1
 4104 0cc1 30       		.byte	0x30
 4105 0cc2 00       		.byte	0
 4106 0cc3 1A       		.uleb128 0x1a
 4107 0cc4 1C000000 		.4byte	.LVL165
 4108 0cc8 FA110000 		.4byte	0x11fa
 4109 0ccc D60C0000 		.4byte	0xcd6
 4110 0cd0 14       		.uleb128 0x14
 4111 0cd1 01       		.uleb128 0x1
 4112 0cd2 50       		.byte	0x50
 4113 0cd3 01       		.uleb128 0x1
 4114 0cd4 30       		.byte	0x30
 4115 0cd5 00       		.byte	0
 4116 0cd6 13       		.uleb128 0x13
 4117 0cd7 28000000 		.4byte	.LVL166
 4118 0cdb FA110000 		.4byte	0x11fa
 4119 0cdf 14       		.uleb128 0x14
 4120 0ce0 01       		.uleb128 0x1
 4121 0ce1 50       		.byte	0x50
 4122 0ce2 01       		.uleb128 0x1
 4123 0ce3 30       		.byte	0x30
 4124 0ce4 00       		.byte	0
ARM GAS  C:\Users\Tim\AppData\Local\Temp\ccEK2rHG.s 			page 100


 4125 0ce5 00       		.byte	0
 4126 0ce6 1E       		.uleb128 0x1e
 4127 0ce7 AF010000 		.4byte	.LASF88
 4128 0ceb 01       		.byte	0x1
 4129 0cec 7404     		.2byte	0x474
 4130 0cee 77000000 		.4byte	0x77
 4131 0cf2 00000000 		.4byte	.LFB39
 4132 0cf6 34000000 		.4byte	.LFE39-.LFB39
 4133 0cfa 01       		.uleb128 0x1
 4134 0cfb 9C       		.byte	0x9c
 4135 0cfc 430D0000 		.4byte	0xd43
 4136 0d00 1F       		.uleb128 0x1f
 4137 0d01 F7050000 		.4byte	.LASF51
 4138 0d05 01       		.byte	0x1
 4139 0d06 7404     		.2byte	0x474
 4140 0d08 83000000 		.4byte	0x83
 4141 0d0c 74080000 		.4byte	.LLST51
 4142 0d10 1F       		.uleb128 0x1f
 4143 0d11 20060000 		.4byte	.LASF22
 4144 0d15 01       		.byte	0x1
 4145 0d16 7404     		.2byte	0x474
 4146 0d18 83000000 		.4byte	0x83
 4147 0d1c A0080000 		.4byte	.LLST52
 4148 0d20 1A       		.uleb128 0x1a
 4149 0d21 10000000 		.4byte	.LVL173
 4150 0d25 FA110000 		.4byte	0x11fa
 4151 0d29 330D0000 		.4byte	0xd33
 4152 0d2d 14       		.uleb128 0x14
 4153 0d2e 01       		.uleb128 0x1
 4154 0d2f 50       		.byte	0x50
 4155 0d30 01       		.uleb128 0x1
 4156 0d31 30       		.byte	0x30
 4157 0d32 00       		.byte	0
 4158 0d33 13       		.uleb128 0x13
 4159 0d34 1A000000 		.4byte	.LVL174
 4160 0d38 FA110000 		.4byte	0x11fa
 4161 0d3c 14       		.uleb128 0x14
 4162 0d3d 01       		.uleb128 0x1
 4163 0d3e 50       		.byte	0x50
 4164 0d3f 01       		.uleb128 0x1
 4165 0d40 30       		.byte	0x30
 4166 0d41 00       		.byte	0
 4167 0d42 00       		.byte	0
 4168 0d43 1C       		.uleb128 0x1c
 4169 0d44 34030000 		.4byte	.LASF89
 4170 0d48 01       		.byte	0x1
 4171 0d49 9604     		.2byte	0x496
 4172 0d4b 00000000 		.4byte	.LFB40
 4173 0d4f 48000000 		.4byte	.LFE40-.LFB40
 4174 0d53 01       		.uleb128 0x1
 4175 0d54 9C       		.byte	0x9c
 4176 0d55 CD0D0000 		.4byte	0xdcd
 4177 0d59 1F       		.uleb128 0x1f
 4178 0d5a F7050000 		.4byte	.LASF51
 4179 0d5e 01       		.byte	0x1
 4180 0d5f 9604     		.2byte	0x496
 4181 0d61 83000000 		.4byte	0x83
ARM GAS  C:\Users\Tim\AppData\Local\Temp\ccEK2rHG.s 			page 101


 4182 0d65 CC080000 		.4byte	.LLST53
 4183 0d69 1F       		.uleb128 0x1f
 4184 0d6a 20060000 		.4byte	.LASF22
 4185 0d6e 01       		.byte	0x1
 4186 0d6f 9604     		.2byte	0x496
 4187 0d71 83000000 		.4byte	0x83
 4188 0d75 F8080000 		.4byte	.LLST54
 4189 0d79 1F       		.uleb128 0x1f
 4190 0d7a D7060000 		.4byte	.LASF27
 4191 0d7e 01       		.byte	0x1
 4192 0d7f 9604     		.2byte	0x496
 4193 0d81 77000000 		.4byte	0x77
 4194 0d85 24090000 		.4byte	.LLST55
 4195 0d89 20       		.uleb128 0x20
 4196 0d8a EB010000 		.4byte	.LASF66
 4197 0d8e 01       		.byte	0x1
 4198 0d8f 9804     		.2byte	0x498
 4199 0d91 77000000 		.4byte	0x77
 4200 0d95 01       		.uleb128 0x1
 4201 0d96 53       		.byte	0x53
 4202 0d97 1A       		.uleb128 0x1a
 4203 0d98 12000000 		.4byte	.LVL179
 4204 0d9c FA110000 		.4byte	0x11fa
 4205 0da0 AA0D0000 		.4byte	0xdaa
 4206 0da4 14       		.uleb128 0x14
 4207 0da5 01       		.uleb128 0x1
 4208 0da6 50       		.byte	0x50
 4209 0da7 01       		.uleb128 0x1
 4210 0da8 30       		.byte	0x30
 4211 0da9 00       		.byte	0
 4212 0daa 1A       		.uleb128 0x1a
 4213 0dab 1C000000 		.4byte	.LVL180
 4214 0daf FA110000 		.4byte	0x11fa
 4215 0db3 BD0D0000 		.4byte	0xdbd
 4216 0db7 14       		.uleb128 0x14
 4217 0db8 01       		.uleb128 0x1
 4218 0db9 50       		.byte	0x50
 4219 0dba 01       		.uleb128 0x1
 4220 0dbb 30       		.byte	0x30
 4221 0dbc 00       		.byte	0
 4222 0dbd 13       		.uleb128 0x13
 4223 0dbe 28000000 		.4byte	.LVL181
 4224 0dc2 FA110000 		.4byte	0x11fa
 4225 0dc6 14       		.uleb128 0x14
 4226 0dc7 01       		.uleb128 0x1
 4227 0dc8 50       		.byte	0x50
 4228 0dc9 01       		.uleb128 0x1
 4229 0dca 30       		.byte	0x30
 4230 0dcb 00       		.byte	0
 4231 0dcc 00       		.byte	0
 4232 0dcd 1E       		.uleb128 0x1e
 4233 0dce 09030000 		.4byte	.LASF90
 4234 0dd2 01       		.byte	0x1
 4235 0dd3 B504     		.2byte	0x4b5
 4236 0dd5 77000000 		.4byte	0x77
 4237 0dd9 00000000 		.4byte	.LFB41
 4238 0ddd 34000000 		.4byte	.LFE41-.LFB41
ARM GAS  C:\Users\Tim\AppData\Local\Temp\ccEK2rHG.s 			page 102


 4239 0de1 01       		.uleb128 0x1
 4240 0de2 9C       		.byte	0x9c
 4241 0de3 2A0E0000 		.4byte	0xe2a
 4242 0de7 1F       		.uleb128 0x1f
 4243 0de8 F7050000 		.4byte	.LASF51
 4244 0dec 01       		.byte	0x1
 4245 0ded B504     		.2byte	0x4b5
 4246 0def 83000000 		.4byte	0x83
 4247 0df3 50090000 		.4byte	.LLST56
 4248 0df7 1F       		.uleb128 0x1f
 4249 0df8 20060000 		.4byte	.LASF22
 4250 0dfc 01       		.byte	0x1
 4251 0dfd B504     		.2byte	0x4b5
 4252 0dff 83000000 		.4byte	0x83
 4253 0e03 7C090000 		.4byte	.LLST57
 4254 0e07 1A       		.uleb128 0x1a
 4255 0e08 10000000 		.4byte	.LVL188
 4256 0e0c FA110000 		.4byte	0x11fa
 4257 0e10 1A0E0000 		.4byte	0xe1a
 4258 0e14 14       		.uleb128 0x14
 4259 0e15 01       		.uleb128 0x1
 4260 0e16 50       		.byte	0x50
 4261 0e17 01       		.uleb128 0x1
 4262 0e18 30       		.byte	0x30
 4263 0e19 00       		.byte	0
 4264 0e1a 13       		.uleb128 0x13
 4265 0e1b 1A000000 		.4byte	.LVL189
 4266 0e1f FA110000 		.4byte	0x11fa
 4267 0e23 14       		.uleb128 0x14
 4268 0e24 01       		.uleb128 0x1
 4269 0e25 50       		.byte	0x50
 4270 0e26 01       		.uleb128 0x1
 4271 0e27 30       		.byte	0x30
 4272 0e28 00       		.byte	0
 4273 0e29 00       		.byte	0
 4274 0e2a 1C       		.uleb128 0x1c
 4275 0e2b A0070000 		.4byte	.LASF91
 4276 0e2f 01       		.byte	0x1
 4277 0e30 D604     		.2byte	0x4d6
 4278 0e32 00000000 		.4byte	.LFB42
 4279 0e36 48000000 		.4byte	.LFE42-.LFB42
 4280 0e3a 01       		.uleb128 0x1
 4281 0e3b 9C       		.byte	0x9c
 4282 0e3c B40E0000 		.4byte	0xeb4
 4283 0e40 1F       		.uleb128 0x1f
 4284 0e41 F7050000 		.4byte	.LASF51
 4285 0e45 01       		.byte	0x1
 4286 0e46 D604     		.2byte	0x4d6
 4287 0e48 83000000 		.4byte	0x83
 4288 0e4c A8090000 		.4byte	.LLST58
 4289 0e50 1F       		.uleb128 0x1f
 4290 0e51 20060000 		.4byte	.LASF22
 4291 0e55 01       		.byte	0x1
 4292 0e56 D604     		.2byte	0x4d6
 4293 0e58 83000000 		.4byte	0x83
 4294 0e5c D4090000 		.4byte	.LLST59
 4295 0e60 1F       		.uleb128 0x1f
ARM GAS  C:\Users\Tim\AppData\Local\Temp\ccEK2rHG.s 			page 103


 4296 0e61 D2010000 		.4byte	.LASF28
 4297 0e65 01       		.byte	0x1
 4298 0e66 D604     		.2byte	0x4d6
 4299 0e68 77000000 		.4byte	0x77
 4300 0e6c 000A0000 		.4byte	.LLST60
 4301 0e70 20       		.uleb128 0x20
 4302 0e71 EB010000 		.4byte	.LASF66
 4303 0e75 01       		.byte	0x1
 4304 0e76 D804     		.2byte	0x4d8
 4305 0e78 77000000 		.4byte	0x77
 4306 0e7c 01       		.uleb128 0x1
 4307 0e7d 53       		.byte	0x53
 4308 0e7e 1A       		.uleb128 0x1a
 4309 0e7f 12000000 		.4byte	.LVL194
 4310 0e83 FA110000 		.4byte	0x11fa
 4311 0e87 910E0000 		.4byte	0xe91
 4312 0e8b 14       		.uleb128 0x14
 4313 0e8c 01       		.uleb128 0x1
 4314 0e8d 50       		.byte	0x50
 4315 0e8e 01       		.uleb128 0x1
 4316 0e8f 30       		.byte	0x30
 4317 0e90 00       		.byte	0
 4318 0e91 1A       		.uleb128 0x1a
 4319 0e92 1C000000 		.4byte	.LVL195
 4320 0e96 FA110000 		.4byte	0x11fa
 4321 0e9a A40E0000 		.4byte	0xea4
 4322 0e9e 14       		.uleb128 0x14
 4323 0e9f 01       		.uleb128 0x1
 4324 0ea0 50       		.byte	0x50
 4325 0ea1 01       		.uleb128 0x1
 4326 0ea2 30       		.byte	0x30
 4327 0ea3 00       		.byte	0
 4328 0ea4 13       		.uleb128 0x13
 4329 0ea5 28000000 		.4byte	.LVL196
 4330 0ea9 FA110000 		.4byte	0x11fa
 4331 0ead 14       		.uleb128 0x14
 4332 0eae 01       		.uleb128 0x1
 4333 0eaf 50       		.byte	0x50
 4334 0eb0 01       		.uleb128 0x1
 4335 0eb1 30       		.byte	0x30
 4336 0eb2 00       		.byte	0
 4337 0eb3 00       		.byte	0
 4338 0eb4 1E       		.uleb128 0x1e
 4339 0eb5 FF050000 		.4byte	.LASF92
 4340 0eb9 01       		.byte	0x1
 4341 0eba F504     		.2byte	0x4f5
 4342 0ebc 77000000 		.4byte	0x77
 4343 0ec0 00000000 		.4byte	.LFB43
 4344 0ec4 34000000 		.4byte	.LFE43-.LFB43
 4345 0ec8 01       		.uleb128 0x1
 4346 0ec9 9C       		.byte	0x9c
 4347 0eca 110F0000 		.4byte	0xf11
 4348 0ece 1F       		.uleb128 0x1f
 4349 0ecf F7050000 		.4byte	.LASF51
 4350 0ed3 01       		.byte	0x1
 4351 0ed4 F504     		.2byte	0x4f5
 4352 0ed6 83000000 		.4byte	0x83
ARM GAS  C:\Users\Tim\AppData\Local\Temp\ccEK2rHG.s 			page 104


 4353 0eda 2C0A0000 		.4byte	.LLST61
 4354 0ede 1F       		.uleb128 0x1f
 4355 0edf 20060000 		.4byte	.LASF22
 4356 0ee3 01       		.byte	0x1
 4357 0ee4 F504     		.2byte	0x4f5
 4358 0ee6 83000000 		.4byte	0x83
 4359 0eea 580A0000 		.4byte	.LLST62
 4360 0eee 1A       		.uleb128 0x1a
 4361 0eef 10000000 		.4byte	.LVL203
 4362 0ef3 FA110000 		.4byte	0x11fa
 4363 0ef7 010F0000 		.4byte	0xf01
 4364 0efb 14       		.uleb128 0x14
 4365 0efc 01       		.uleb128 0x1
 4366 0efd 50       		.byte	0x50
 4367 0efe 01       		.uleb128 0x1
 4368 0eff 30       		.byte	0x30
 4369 0f00 00       		.byte	0
 4370 0f01 13       		.uleb128 0x13
 4371 0f02 1A000000 		.4byte	.LVL204
 4372 0f06 FA110000 		.4byte	0x11fa
 4373 0f0a 14       		.uleb128 0x14
 4374 0f0b 01       		.uleb128 0x1
 4375 0f0c 50       		.byte	0x50
 4376 0f0d 01       		.uleb128 0x1
 4377 0f0e 30       		.byte	0x30
 4378 0f0f 00       		.byte	0
 4379 0f10 00       		.byte	0
 4380 0f11 1C       		.uleb128 0x1c
 4381 0f12 6F070000 		.4byte	.LASF93
 4382 0f16 01       		.byte	0x1
 4383 0f17 1505     		.2byte	0x515
 4384 0f19 00000000 		.4byte	.LFB44
 4385 0f1d 44000000 		.4byte	.LFE44-.LFB44
 4386 0f21 01       		.uleb128 0x1
 4387 0f22 9C       		.byte	0x9c
 4388 0f23 9D0F0000 		.4byte	0xf9d
 4389 0f27 1F       		.uleb128 0x1f
 4390 0f28 F7050000 		.4byte	.LASF51
 4391 0f2c 01       		.byte	0x1
 4392 0f2d 1505     		.2byte	0x515
 4393 0f2f 83000000 		.4byte	0x83
 4394 0f33 840A0000 		.4byte	.LLST63
 4395 0f37 1F       		.uleb128 0x1f
 4396 0f38 20060000 		.4byte	.LASF22
 4397 0f3c 01       		.byte	0x1
 4398 0f3d 1505     		.2byte	0x515
 4399 0f3f 83000000 		.4byte	0x83
 4400 0f43 B00A0000 		.4byte	.LLST64
 4401 0f47 1F       		.uleb128 0x1f
 4402 0f48 7B020000 		.4byte	.LASF29
 4403 0f4c 01       		.byte	0x1
 4404 0f4d 1505     		.2byte	0x515
 4405 0f4f 77000000 		.4byte	0x77
 4406 0f53 DC0A0000 		.4byte	.LLST65
 4407 0f57 11       		.uleb128 0x11
 4408 0f58 EB010000 		.4byte	.LASF66
 4409 0f5c 01       		.byte	0x1
ARM GAS  C:\Users\Tim\AppData\Local\Temp\ccEK2rHG.s 			page 105


 4410 0f5d 1705     		.2byte	0x517
 4411 0f5f 77000000 		.4byte	0x77
 4412 0f63 080B0000 		.4byte	.LLST66
 4413 0f67 1A       		.uleb128 0x1a
 4414 0f68 12000000 		.4byte	.LVL209
 4415 0f6c FA110000 		.4byte	0x11fa
 4416 0f70 7A0F0000 		.4byte	0xf7a
 4417 0f74 14       		.uleb128 0x14
 4418 0f75 01       		.uleb128 0x1
 4419 0f76 50       		.byte	0x50
 4420 0f77 01       		.uleb128 0x1
 4421 0f78 30       		.byte	0x30
 4422 0f79 00       		.byte	0
 4423 0f7a 1A       		.uleb128 0x1a
 4424 0f7b 1C000000 		.4byte	.LVL210
 4425 0f7f FA110000 		.4byte	0x11fa
 4426 0f83 8D0F0000 		.4byte	0xf8d
 4427 0f87 14       		.uleb128 0x14
 4428 0f88 01       		.uleb128 0x1
 4429 0f89 50       		.byte	0x50
 4430 0f8a 01       		.uleb128 0x1
 4431 0f8b 30       		.byte	0x30
 4432 0f8c 00       		.byte	0
 4433 0f8d 13       		.uleb128 0x13
 4434 0f8e 26000000 		.4byte	.LVL211
 4435 0f92 FA110000 		.4byte	0x11fa
 4436 0f96 14       		.uleb128 0x14
 4437 0f97 01       		.uleb128 0x1
 4438 0f98 50       		.byte	0x50
 4439 0f99 01       		.uleb128 0x1
 4440 0f9a 30       		.byte	0x30
 4441 0f9b 00       		.byte	0
 4442 0f9c 00       		.byte	0
 4443 0f9d 1E       		.uleb128 0x1e
 4444 0f9e 99030000 		.4byte	.LASF94
 4445 0fa2 01       		.byte	0x1
 4446 0fa3 3405     		.2byte	0x534
 4447 0fa5 77000000 		.4byte	0x77
 4448 0fa9 00000000 		.4byte	.LFB45
 4449 0fad 34000000 		.4byte	.LFE45-.LFB45
 4450 0fb1 01       		.uleb128 0x1
 4451 0fb2 9C       		.byte	0x9c
 4452 0fb3 FA0F0000 		.4byte	0xffa
 4453 0fb7 1F       		.uleb128 0x1f
 4454 0fb8 F7050000 		.4byte	.LASF51
 4455 0fbc 01       		.byte	0x1
 4456 0fbd 3405     		.2byte	0x534
 4457 0fbf 83000000 		.4byte	0x83
 4458 0fc3 1B0B0000 		.4byte	.LLST67
 4459 0fc7 1F       		.uleb128 0x1f
 4460 0fc8 20060000 		.4byte	.LASF22
 4461 0fcc 01       		.byte	0x1
 4462 0fcd 3405     		.2byte	0x534
 4463 0fcf 83000000 		.4byte	0x83
 4464 0fd3 470B0000 		.4byte	.LLST68
 4465 0fd7 1A       		.uleb128 0x1a
 4466 0fd8 10000000 		.4byte	.LVL219
ARM GAS  C:\Users\Tim\AppData\Local\Temp\ccEK2rHG.s 			page 106


 4467 0fdc FA110000 		.4byte	0x11fa
 4468 0fe0 EA0F0000 		.4byte	0xfea
 4469 0fe4 14       		.uleb128 0x14
 4470 0fe5 01       		.uleb128 0x1
 4471 0fe6 50       		.byte	0x50
 4472 0fe7 01       		.uleb128 0x1
 4473 0fe8 30       		.byte	0x30
 4474 0fe9 00       		.byte	0
 4475 0fea 13       		.uleb128 0x13
 4476 0feb 1A000000 		.4byte	.LVL220
 4477 0fef FA110000 		.4byte	0x11fa
 4478 0ff3 14       		.uleb128 0x14
 4479 0ff4 01       		.uleb128 0x1
 4480 0ff5 50       		.byte	0x50
 4481 0ff6 01       		.uleb128 0x1
 4482 0ff7 30       		.byte	0x30
 4483 0ff8 00       		.byte	0
 4484 0ff9 00       		.byte	0
 4485 0ffa 1C       		.uleb128 0x1c
 4486 0ffb C8070000 		.4byte	.LASF95
 4487 0fff 01       		.byte	0x1
 4488 1000 5305     		.2byte	0x553
 4489 1002 00000000 		.4byte	.LFB46
 4490 1006 48000000 		.4byte	.LFE46-.LFB46
 4491 100a 01       		.uleb128 0x1
 4492 100b 9C       		.byte	0x9c
 4493 100c 84100000 		.4byte	0x1084
 4494 1010 1F       		.uleb128 0x1f
 4495 1011 F7050000 		.4byte	.LASF51
 4496 1015 01       		.byte	0x1
 4497 1016 5305     		.2byte	0x553
 4498 1018 83000000 		.4byte	0x83
 4499 101c 730B0000 		.4byte	.LLST69
 4500 1020 1F       		.uleb128 0x1f
 4501 1021 20060000 		.4byte	.LASF22
 4502 1025 01       		.byte	0x1
 4503 1026 5305     		.2byte	0x553
 4504 1028 83000000 		.4byte	0x83
 4505 102c 9F0B0000 		.4byte	.LLST70
 4506 1030 1F       		.uleb128 0x1f
 4507 1031 BC070000 		.4byte	.LASF30
 4508 1035 01       		.byte	0x1
 4509 1036 5305     		.2byte	0x553
 4510 1038 77000000 		.4byte	0x77
 4511 103c CB0B0000 		.4byte	.LLST71
 4512 1040 20       		.uleb128 0x20
 4513 1041 EB010000 		.4byte	.LASF66
 4514 1045 01       		.byte	0x1
 4515 1046 5505     		.2byte	0x555
 4516 1048 77000000 		.4byte	0x77
 4517 104c 01       		.uleb128 0x1
 4518 104d 53       		.byte	0x53
 4519 104e 1A       		.uleb128 0x1a
 4520 104f 12000000 		.4byte	.LVL225
 4521 1053 FA110000 		.4byte	0x11fa
 4522 1057 61100000 		.4byte	0x1061
 4523 105b 14       		.uleb128 0x14
ARM GAS  C:\Users\Tim\AppData\Local\Temp\ccEK2rHG.s 			page 107


 4524 105c 01       		.uleb128 0x1
 4525 105d 50       		.byte	0x50
 4526 105e 01       		.uleb128 0x1
 4527 105f 30       		.byte	0x30
 4528 1060 00       		.byte	0
 4529 1061 1A       		.uleb128 0x1a
 4530 1062 1C000000 		.4byte	.LVL226
 4531 1066 FA110000 		.4byte	0x11fa
 4532 106a 74100000 		.4byte	0x1074
 4533 106e 14       		.uleb128 0x14
 4534 106f 01       		.uleb128 0x1
 4535 1070 50       		.byte	0x50
 4536 1071 01       		.uleb128 0x1
 4537 1072 30       		.byte	0x30
 4538 1073 00       		.byte	0
 4539 1074 13       		.uleb128 0x13
 4540 1075 28000000 		.4byte	.LVL227
 4541 1079 FA110000 		.4byte	0x11fa
 4542 107d 14       		.uleb128 0x14
 4543 107e 01       		.uleb128 0x1
 4544 107f 50       		.byte	0x50
 4545 1080 01       		.uleb128 0x1
 4546 1081 30       		.byte	0x30
 4547 1082 00       		.byte	0
 4548 1083 00       		.byte	0
 4549 1084 1E       		.uleb128 0x1e
 4550 1085 4D030000 		.4byte	.LASF96
 4551 1089 01       		.byte	0x1
 4552 108a 7105     		.2byte	0x571
 4553 108c 77000000 		.4byte	0x77
 4554 1090 00000000 		.4byte	.LFB47
 4555 1094 34000000 		.4byte	.LFE47-.LFB47
 4556 1098 01       		.uleb128 0x1
 4557 1099 9C       		.byte	0x9c
 4558 109a E1100000 		.4byte	0x10e1
 4559 109e 1F       		.uleb128 0x1f
 4560 109f F7050000 		.4byte	.LASF51
 4561 10a3 01       		.byte	0x1
 4562 10a4 7105     		.2byte	0x571
 4563 10a6 83000000 		.4byte	0x83
 4564 10aa F70B0000 		.4byte	.LLST72
 4565 10ae 1F       		.uleb128 0x1f
 4566 10af 20060000 		.4byte	.LASF22
 4567 10b3 01       		.byte	0x1
 4568 10b4 7105     		.2byte	0x571
 4569 10b6 83000000 		.4byte	0x83
 4570 10ba 230C0000 		.4byte	.LLST73
 4571 10be 1A       		.uleb128 0x1a
 4572 10bf 10000000 		.4byte	.LVL234
 4573 10c3 FA110000 		.4byte	0x11fa
 4574 10c7 D1100000 		.4byte	0x10d1
 4575 10cb 14       		.uleb128 0x14
 4576 10cc 01       		.uleb128 0x1
 4577 10cd 50       		.byte	0x50
 4578 10ce 01       		.uleb128 0x1
 4579 10cf 30       		.byte	0x30
 4580 10d0 00       		.byte	0
ARM GAS  C:\Users\Tim\AppData\Local\Temp\ccEK2rHG.s 			page 108


 4581 10d1 13       		.uleb128 0x13
 4582 10d2 1A000000 		.4byte	.LVL235
 4583 10d6 FA110000 		.4byte	0x11fa
 4584 10da 14       		.uleb128 0x14
 4585 10db 01       		.uleb128 0x1
 4586 10dc 50       		.byte	0x50
 4587 10dd 01       		.uleb128 0x1
 4588 10de 30       		.byte	0x30
 4589 10df 00       		.byte	0
 4590 10e0 00       		.byte	0
 4591 10e1 1C       		.uleb128 0x1c
 4592 10e2 AE030000 		.4byte	.LASF97
 4593 10e6 01       		.byte	0x1
 4594 10e7 9005     		.2byte	0x590
 4595 10e9 00000000 		.4byte	.LFB48
 4596 10ed 48000000 		.4byte	.LFE48-.LFB48
 4597 10f1 01       		.uleb128 0x1
 4598 10f2 9C       		.byte	0x9c
 4599 10f3 6B110000 		.4byte	0x116b
 4600 10f7 1F       		.uleb128 0x1f
 4601 10f8 F7050000 		.4byte	.LASF51
 4602 10fc 01       		.byte	0x1
 4603 10fd 9005     		.2byte	0x590
 4604 10ff 83000000 		.4byte	0x83
 4605 1103 4F0C0000 		.4byte	.LLST74
 4606 1107 1F       		.uleb128 0x1f
 4607 1108 20060000 		.4byte	.LASF22
 4608 110c 01       		.byte	0x1
 4609 110d 9005     		.2byte	0x590
 4610 110f 83000000 		.4byte	0x83
 4611 1113 7B0C0000 		.4byte	.LLST75
 4612 1117 1F       		.uleb128 0x1f
 4613 1118 B4070000 		.4byte	.LASF31
 4614 111c 01       		.byte	0x1
 4615 111d 9005     		.2byte	0x590
 4616 111f 77000000 		.4byte	0x77
 4617 1123 A70C0000 		.4byte	.LLST76
 4618 1127 20       		.uleb128 0x20
 4619 1128 EB010000 		.4byte	.LASF66
 4620 112c 01       		.byte	0x1
 4621 112d 9205     		.2byte	0x592
 4622 112f 77000000 		.4byte	0x77
 4623 1133 01       		.uleb128 0x1
 4624 1134 53       		.byte	0x53
 4625 1135 1A       		.uleb128 0x1a
 4626 1136 12000000 		.4byte	.LVL240
 4627 113a FA110000 		.4byte	0x11fa
 4628 113e 48110000 		.4byte	0x1148
 4629 1142 14       		.uleb128 0x14
 4630 1143 01       		.uleb128 0x1
 4631 1144 50       		.byte	0x50
 4632 1145 01       		.uleb128 0x1
 4633 1146 30       		.byte	0x30
 4634 1147 00       		.byte	0
 4635 1148 1A       		.uleb128 0x1a
 4636 1149 1C000000 		.4byte	.LVL241
 4637 114d FA110000 		.4byte	0x11fa
ARM GAS  C:\Users\Tim\AppData\Local\Temp\ccEK2rHG.s 			page 109


 4638 1151 5B110000 		.4byte	0x115b
 4639 1155 14       		.uleb128 0x14
 4640 1156 01       		.uleb128 0x1
 4641 1157 50       		.byte	0x50
 4642 1158 01       		.uleb128 0x1
 4643 1159 30       		.byte	0x30
 4644 115a 00       		.byte	0
 4645 115b 13       		.uleb128 0x13
 4646 115c 28000000 		.4byte	.LVL242
 4647 1160 FA110000 		.4byte	0x11fa
 4648 1164 14       		.uleb128 0x14
 4649 1165 01       		.uleb128 0x1
 4650 1166 50       		.byte	0x50
 4651 1167 01       		.uleb128 0x1
 4652 1168 30       		.byte	0x30
 4653 1169 00       		.byte	0
 4654 116a 00       		.byte	0
 4655 116b 1E       		.uleb128 0x1e
 4656 116c DC020000 		.4byte	.LASF98
 4657 1170 01       		.byte	0x1
 4658 1171 AF05     		.2byte	0x5af
 4659 1173 77000000 		.4byte	0x77
 4660 1177 00000000 		.4byte	.LFB49
 4661 117b 34000000 		.4byte	.LFE49-.LFB49
 4662 117f 01       		.uleb128 0x1
 4663 1180 9C       		.byte	0x9c
 4664 1181 C8110000 		.4byte	0x11c8
 4665 1185 1F       		.uleb128 0x1f
 4666 1186 F7050000 		.4byte	.LASF51
 4667 118a 01       		.byte	0x1
 4668 118b AF05     		.2byte	0x5af
 4669 118d 83000000 		.4byte	0x83
 4670 1191 D30C0000 		.4byte	.LLST77
 4671 1195 1F       		.uleb128 0x1f
 4672 1196 20060000 		.4byte	.LASF22
 4673 119a 01       		.byte	0x1
 4674 119b AF05     		.2byte	0x5af
 4675 119d 83000000 		.4byte	0x83
 4676 11a1 FF0C0000 		.4byte	.LLST78
 4677 11a5 1A       		.uleb128 0x1a
 4678 11a6 10000000 		.4byte	.LVL249
 4679 11aa FA110000 		.4byte	0x11fa
 4680 11ae B8110000 		.4byte	0x11b8
 4681 11b2 14       		.uleb128 0x14
 4682 11b3 01       		.uleb128 0x1
 4683 11b4 50       		.byte	0x50
 4684 11b5 01       		.uleb128 0x1
 4685 11b6 30       		.byte	0x30
 4686 11b7 00       		.byte	0
 4687 11b8 13       		.uleb128 0x13
 4688 11b9 1A000000 		.4byte	.LVL250
 4689 11bd FA110000 		.4byte	0x11fa
 4690 11c1 14       		.uleb128 0x14
 4691 11c2 01       		.uleb128 0x1
 4692 11c3 50       		.byte	0x50
 4693 11c4 01       		.uleb128 0x1
 4694 11c5 30       		.byte	0x30
ARM GAS  C:\Users\Tim\AppData\Local\Temp\ccEK2rHG.s 			page 110


 4695 11c6 00       		.byte	0
 4696 11c7 00       		.byte	0
 4697 11c8 0A       		.uleb128 0xa
 4698 11c9 FC010000 		.4byte	0x1fc
 4699 11cd D8110000 		.4byte	0x11d8
 4700 11d1 0B       		.uleb128 0xb
 4701 11d2 F9000000 		.4byte	0xf9
 4702 11d6 1F       		.byte	0x1f
 4703 11d7 00       		.byte	0
 4704 11d8 19       		.uleb128 0x19
 4705 11d9 5B050000 		.4byte	.LASF99
 4706 11dd 01       		.byte	0x1
 4707 11de 1A       		.byte	0x1a
 4708 11df C8110000 		.4byte	0x11c8
 4709 11e3 05       		.uleb128 0x5
 4710 11e4 03       		.byte	0x3
 4711 11e5 00000000 		.4byte	CyDmaInterruptCallback
 4712 11e9 19       		.uleb128 0x19
 4713 11ea 6A060000 		.4byte	.LASF100
 4714 11ee 01       		.byte	0x1
 4715 11ef 34       		.byte	0x34
 4716 11f0 77000000 		.4byte	0x77
 4717 11f4 05       		.uleb128 0x5
 4718 11f5 03       		.byte	0x3
 4719 11f6 04000000 		.4byte	CyDmaChannelUsedMask
 4720 11fa 22       		.uleb128 0x22
 4721 11fb 72050000 		.4byte	.LASF106
 4722 11ff 04       		.byte	0x4
 4723 1200 63       		.byte	0x63
 4724 1201 0B120000 		.4byte	0x120b
 4725 1205 23       		.uleb128 0x23
 4726 1206 6B000000 		.4byte	0x6b
 4727 120a 00       		.byte	0
 4728 120b 24       		.uleb128 0x24
 4729 120c FA020000 		.4byte	.LASF107
 4730 1210 04       		.byte	0x4
 4731 1211 49       		.byte	0x49
 4732 1212 C1000000 		.4byte	0xc1
 4733 1216 25120000 		.4byte	0x1225
 4734 121a 23       		.uleb128 0x23
 4735 121b 6B000000 		.4byte	0x6b
 4736 121f 23       		.uleb128 0x23
 4737 1220 C1000000 		.4byte	0xc1
 4738 1224 00       		.byte	0
 4739 1225 25       		.uleb128 0x25
 4740 1226 82030000 		.4byte	.LASF108
 4741 122a 04       		.byte	0x4
 4742 122b 4C       		.byte	0x4c
 4743 122c 23       		.uleb128 0x23
 4744 122d 6B000000 		.4byte	0x6b
 4745 1231 23       		.uleb128 0x23
 4746 1232 6B000000 		.4byte	0x6b
 4747 1236 00       		.byte	0
 4748 1237 00       		.byte	0
 4749              		.section	.debug_abbrev,"",%progbits
 4750              	.Ldebug_abbrev0:
 4751 0000 01       		.uleb128 0x1
ARM GAS  C:\Users\Tim\AppData\Local\Temp\ccEK2rHG.s 			page 111


 4752 0001 11       		.uleb128 0x11
 4753 0002 01       		.byte	0x1
 4754 0003 25       		.uleb128 0x25
 4755 0004 0E       		.uleb128 0xe
 4756 0005 13       		.uleb128 0x13
 4757 0006 0B       		.uleb128 0xb
 4758 0007 03       		.uleb128 0x3
 4759 0008 0E       		.uleb128 0xe
 4760 0009 1B       		.uleb128 0x1b
 4761 000a 0E       		.uleb128 0xe
 4762 000b 55       		.uleb128 0x55
 4763 000c 17       		.uleb128 0x17
 4764 000d 11       		.uleb128 0x11
 4765 000e 01       		.uleb128 0x1
 4766 000f 10       		.uleb128 0x10
 4767 0010 17       		.uleb128 0x17
 4768 0011 00       		.byte	0
 4769 0012 00       		.byte	0
 4770 0013 02       		.uleb128 0x2
 4771 0014 24       		.uleb128 0x24
 4772 0015 00       		.byte	0
 4773 0016 0B       		.uleb128 0xb
 4774 0017 0B       		.uleb128 0xb
 4775 0018 3E       		.uleb128 0x3e
 4776 0019 0B       		.uleb128 0xb
 4777 001a 03       		.uleb128 0x3
 4778 001b 0E       		.uleb128 0xe
 4779 001c 00       		.byte	0
 4780 001d 00       		.byte	0
 4781 001e 03       		.uleb128 0x3
 4782 001f 24       		.uleb128 0x24
 4783 0020 00       		.byte	0
 4784 0021 0B       		.uleb128 0xb
 4785 0022 0B       		.uleb128 0xb
 4786 0023 3E       		.uleb128 0x3e
 4787 0024 0B       		.uleb128 0xb
 4788 0025 03       		.uleb128 0x3
 4789 0026 08       		.uleb128 0x8
 4790 0027 00       		.byte	0
 4791 0028 00       		.byte	0
 4792 0029 04       		.uleb128 0x4
 4793 002a 16       		.uleb128 0x16
 4794 002b 00       		.byte	0
 4795 002c 03       		.uleb128 0x3
 4796 002d 0E       		.uleb128 0xe
 4797 002e 3A       		.uleb128 0x3a
 4798 002f 0B       		.uleb128 0xb
 4799 0030 3B       		.uleb128 0x3b
 4800 0031 05       		.uleb128 0x5
 4801 0032 49       		.uleb128 0x49
 4802 0033 13       		.uleb128 0x13
 4803 0034 00       		.byte	0
 4804 0035 00       		.byte	0
 4805 0036 05       		.uleb128 0x5
 4806 0037 35       		.uleb128 0x35
 4807 0038 00       		.byte	0
 4808 0039 49       		.uleb128 0x49
ARM GAS  C:\Users\Tim\AppData\Local\Temp\ccEK2rHG.s 			page 112


 4809 003a 13       		.uleb128 0x13
 4810 003b 00       		.byte	0
 4811 003c 00       		.byte	0
 4812 003d 06       		.uleb128 0x6
 4813 003e 0F       		.uleb128 0xf
 4814 003f 00       		.byte	0
 4815 0040 0B       		.uleb128 0xb
 4816 0041 0B       		.uleb128 0xb
 4817 0042 49       		.uleb128 0x49
 4818 0043 13       		.uleb128 0x13
 4819 0044 00       		.byte	0
 4820 0045 00       		.byte	0
 4821 0046 07       		.uleb128 0x7
 4822 0047 15       		.uleb128 0x15
 4823 0048 00       		.byte	0
 4824 0049 27       		.uleb128 0x27
 4825 004a 19       		.uleb128 0x19
 4826 004b 00       		.byte	0
 4827 004c 00       		.byte	0
 4828 004d 08       		.uleb128 0x8
 4829 004e 13       		.uleb128 0x13
 4830 004f 01       		.byte	0x1
 4831 0050 0B       		.uleb128 0xb
 4832 0051 0B       		.uleb128 0xb
 4833 0052 3A       		.uleb128 0x3a
 4834 0053 0B       		.uleb128 0xb
 4835 0054 3B       		.uleb128 0x3b
 4836 0055 0B       		.uleb128 0xb
 4837 0056 01       		.uleb128 0x1
 4838 0057 13       		.uleb128 0x13
 4839 0058 00       		.byte	0
 4840 0059 00       		.byte	0
 4841 005a 09       		.uleb128 0x9
 4842 005b 0D       		.uleb128 0xd
 4843 005c 00       		.byte	0
 4844 005d 03       		.uleb128 0x3
 4845 005e 08       		.uleb128 0x8
 4846 005f 3A       		.uleb128 0x3a
 4847 0060 0B       		.uleb128 0xb
 4848 0061 3B       		.uleb128 0x3b
 4849 0062 0B       		.uleb128 0xb
 4850 0063 49       		.uleb128 0x49
 4851 0064 13       		.uleb128 0x13
 4852 0065 38       		.uleb128 0x38
 4853 0066 0B       		.uleb128 0xb
 4854 0067 00       		.byte	0
 4855 0068 00       		.byte	0
 4856 0069 0A       		.uleb128 0xa
 4857 006a 01       		.uleb128 0x1
 4858 006b 01       		.byte	0x1
 4859 006c 49       		.uleb128 0x49
 4860 006d 13       		.uleb128 0x13
 4861 006e 01       		.uleb128 0x1
 4862 006f 13       		.uleb128 0x13
 4863 0070 00       		.byte	0
 4864 0071 00       		.byte	0
 4865 0072 0B       		.uleb128 0xb
ARM GAS  C:\Users\Tim\AppData\Local\Temp\ccEK2rHG.s 			page 113


 4866 0073 21       		.uleb128 0x21
 4867 0074 00       		.byte	0
 4868 0075 49       		.uleb128 0x49
 4869 0076 13       		.uleb128 0x13
 4870 0077 2F       		.uleb128 0x2f
 4871 0078 0B       		.uleb128 0xb
 4872 0079 00       		.byte	0
 4873 007a 00       		.byte	0
 4874 007b 0C       		.uleb128 0xc
 4875 007c 16       		.uleb128 0x16
 4876 007d 00       		.byte	0
 4877 007e 03       		.uleb128 0x3
 4878 007f 0E       		.uleb128 0xe
 4879 0080 3A       		.uleb128 0x3a
 4880 0081 0B       		.uleb128 0xb
 4881 0082 3B       		.uleb128 0x3b
 4882 0083 0B       		.uleb128 0xb
 4883 0084 49       		.uleb128 0x49
 4884 0085 13       		.uleb128 0x13
 4885 0086 00       		.byte	0
 4886 0087 00       		.byte	0
 4887 0088 0D       		.uleb128 0xd
 4888 0089 0D       		.uleb128 0xd
 4889 008a 00       		.byte	0
 4890 008b 03       		.uleb128 0x3
 4891 008c 0E       		.uleb128 0xe
 4892 008d 3A       		.uleb128 0x3a
 4893 008e 0B       		.uleb128 0xb
 4894 008f 3B       		.uleb128 0x3b
 4895 0090 0B       		.uleb128 0xb
 4896 0091 49       		.uleb128 0x49
 4897 0092 13       		.uleb128 0x13
 4898 0093 38       		.uleb128 0x38
 4899 0094 0B       		.uleb128 0xb
 4900 0095 00       		.byte	0
 4901 0096 00       		.byte	0
 4902 0097 0E       		.uleb128 0xe
 4903 0098 0F       		.uleb128 0xf
 4904 0099 00       		.byte	0
 4905 009a 0B       		.uleb128 0xb
 4906 009b 0B       		.uleb128 0xb
 4907 009c 00       		.byte	0
 4908 009d 00       		.byte	0
 4909 009e 0F       		.uleb128 0xf
 4910 009f 13       		.uleb128 0x13
 4911 00a0 01       		.byte	0x1
 4912 00a1 0B       		.uleb128 0xb
 4913 00a2 05       		.uleb128 0x5
 4914 00a3 3A       		.uleb128 0x3a
 4915 00a4 0B       		.uleb128 0xb
 4916 00a5 3B       		.uleb128 0x3b
 4917 00a6 0B       		.uleb128 0xb
 4918 00a7 01       		.uleb128 0x1
 4919 00a8 13       		.uleb128 0x13
 4920 00a9 00       		.byte	0
 4921 00aa 00       		.byte	0
 4922 00ab 10       		.uleb128 0x10
ARM GAS  C:\Users\Tim\AppData\Local\Temp\ccEK2rHG.s 			page 114


 4923 00ac 2E       		.uleb128 0x2e
 4924 00ad 01       		.byte	0x1
 4925 00ae 3F       		.uleb128 0x3f
 4926 00af 19       		.uleb128 0x19
 4927 00b0 03       		.uleb128 0x3
 4928 00b1 0E       		.uleb128 0xe
 4929 00b2 3A       		.uleb128 0x3a
 4930 00b3 0B       		.uleb128 0xb
 4931 00b4 3B       		.uleb128 0x3b
 4932 00b5 05       		.uleb128 0x5
 4933 00b6 27       		.uleb128 0x27
 4934 00b7 19       		.uleb128 0x19
 4935 00b8 11       		.uleb128 0x11
 4936 00b9 01       		.uleb128 0x1
 4937 00ba 12       		.uleb128 0x12
 4938 00bb 06       		.uleb128 0x6
 4939 00bc 40       		.uleb128 0x40
 4940 00bd 18       		.uleb128 0x18
 4941 00be 9642     		.uleb128 0x2116
 4942 00c0 19       		.uleb128 0x19
 4943 00c1 01       		.uleb128 0x1
 4944 00c2 13       		.uleb128 0x13
 4945 00c3 00       		.byte	0
 4946 00c4 00       		.byte	0
 4947 00c5 11       		.uleb128 0x11
 4948 00c6 34       		.uleb128 0x34
 4949 00c7 00       		.byte	0
 4950 00c8 03       		.uleb128 0x3
 4951 00c9 0E       		.uleb128 0xe
 4952 00ca 3A       		.uleb128 0x3a
 4953 00cb 0B       		.uleb128 0xb
 4954 00cc 3B       		.uleb128 0x3b
 4955 00cd 05       		.uleb128 0x5
 4956 00ce 49       		.uleb128 0x49
 4957 00cf 13       		.uleb128 0x13
 4958 00d0 02       		.uleb128 0x2
 4959 00d1 17       		.uleb128 0x17
 4960 00d2 00       		.byte	0
 4961 00d3 00       		.byte	0
 4962 00d4 12       		.uleb128 0x12
 4963 00d5 2E       		.uleb128 0x2e
 4964 00d6 01       		.byte	0x1
 4965 00d7 03       		.uleb128 0x3
 4966 00d8 0E       		.uleb128 0xe
 4967 00d9 3A       		.uleb128 0x3a
 4968 00da 0B       		.uleb128 0xb
 4969 00db 3B       		.uleb128 0x3b
 4970 00dc 05       		.uleb128 0x5
 4971 00dd 27       		.uleb128 0x27
 4972 00de 19       		.uleb128 0x19
 4973 00df 11       		.uleb128 0x11
 4974 00e0 01       		.uleb128 0x1
 4975 00e1 12       		.uleb128 0x12
 4976 00e2 06       		.uleb128 0x6
 4977 00e3 40       		.uleb128 0x40
 4978 00e4 18       		.uleb128 0x18
 4979 00e5 9742     		.uleb128 0x2117
ARM GAS  C:\Users\Tim\AppData\Local\Temp\ccEK2rHG.s 			page 115


 4980 00e7 19       		.uleb128 0x19
 4981 00e8 01       		.uleb128 0x1
 4982 00e9 13       		.uleb128 0x13
 4983 00ea 00       		.byte	0
 4984 00eb 00       		.byte	0
 4985 00ec 13       		.uleb128 0x13
 4986 00ed 898201   		.uleb128 0x4109
 4987 00f0 01       		.byte	0x1
 4988 00f1 11       		.uleb128 0x11
 4989 00f2 01       		.uleb128 0x1
 4990 00f3 31       		.uleb128 0x31
 4991 00f4 13       		.uleb128 0x13
 4992 00f5 00       		.byte	0
 4993 00f6 00       		.byte	0
 4994 00f7 14       		.uleb128 0x14
 4995 00f8 8A8201   		.uleb128 0x410a
 4996 00fb 00       		.byte	0
 4997 00fc 02       		.uleb128 0x2
 4998 00fd 18       		.uleb128 0x18
 4999 00fe 9142     		.uleb128 0x2111
 5000 0100 18       		.uleb128 0x18
 5001 0101 00       		.byte	0
 5002 0102 00       		.byte	0
 5003 0103 15       		.uleb128 0x15
 5004 0104 2E       		.uleb128 0x2e
 5005 0105 00       		.byte	0
 5006 0106 3F       		.uleb128 0x3f
 5007 0107 19       		.uleb128 0x19
 5008 0108 03       		.uleb128 0x3
 5009 0109 0E       		.uleb128 0xe
 5010 010a 3A       		.uleb128 0x3a
 5011 010b 0B       		.uleb128 0xb
 5012 010c 3B       		.uleb128 0x3b
 5013 010d 0B       		.uleb128 0xb
 5014 010e 27       		.uleb128 0x27
 5015 010f 19       		.uleb128 0x19
 5016 0110 11       		.uleb128 0x11
 5017 0111 01       		.uleb128 0x1
 5018 0112 12       		.uleb128 0x12
 5019 0113 06       		.uleb128 0x6
 5020 0114 40       		.uleb128 0x40
 5021 0115 18       		.uleb128 0x18
 5022 0116 9742     		.uleb128 0x2117
 5023 0118 19       		.uleb128 0x19
 5024 0119 00       		.byte	0
 5025 011a 00       		.byte	0
 5026 011b 16       		.uleb128 0x16
 5027 011c 2E       		.uleb128 0x2e
 5028 011d 00       		.byte	0
 5029 011e 3F       		.uleb128 0x3f
 5030 011f 19       		.uleb128 0x19
 5031 0120 03       		.uleb128 0x3
 5032 0121 0E       		.uleb128 0xe
 5033 0122 3A       		.uleb128 0x3a
 5034 0123 0B       		.uleb128 0xb
 5035 0124 3B       		.uleb128 0x3b
 5036 0125 0B       		.uleb128 0xb
ARM GAS  C:\Users\Tim\AppData\Local\Temp\ccEK2rHG.s 			page 116


 5037 0126 27       		.uleb128 0x27
 5038 0127 19       		.uleb128 0x19
 5039 0128 49       		.uleb128 0x49
 5040 0129 13       		.uleb128 0x13
 5041 012a 11       		.uleb128 0x11
 5042 012b 01       		.uleb128 0x1
 5043 012c 12       		.uleb128 0x12
 5044 012d 06       		.uleb128 0x6
 5045 012e 40       		.uleb128 0x40
 5046 012f 18       		.uleb128 0x18
 5047 0130 9742     		.uleb128 0x2117
 5048 0132 19       		.uleb128 0x19
 5049 0133 00       		.byte	0
 5050 0134 00       		.byte	0
 5051 0135 17       		.uleb128 0x17
 5052 0136 2E       		.uleb128 0x2e
 5053 0137 01       		.byte	0x1
 5054 0138 3F       		.uleb128 0x3f
 5055 0139 19       		.uleb128 0x19
 5056 013a 03       		.uleb128 0x3
 5057 013b 0E       		.uleb128 0xe
 5058 013c 3A       		.uleb128 0x3a
 5059 013d 0B       		.uleb128 0xb
 5060 013e 3B       		.uleb128 0x3b
 5061 013f 0B       		.uleb128 0xb
 5062 0140 27       		.uleb128 0x27
 5063 0141 19       		.uleb128 0x19
 5064 0142 11       		.uleb128 0x11
 5065 0143 01       		.uleb128 0x1
 5066 0144 12       		.uleb128 0x12
 5067 0145 06       		.uleb128 0x6
 5068 0146 40       		.uleb128 0x40
 5069 0147 18       		.uleb128 0x18
 5070 0148 9742     		.uleb128 0x2117
 5071 014a 19       		.uleb128 0x19
 5072 014b 01       		.uleb128 0x1
 5073 014c 13       		.uleb128 0x13
 5074 014d 00       		.byte	0
 5075 014e 00       		.byte	0
 5076 014f 18       		.uleb128 0x18
 5077 0150 05       		.uleb128 0x5
 5078 0151 00       		.byte	0
 5079 0152 03       		.uleb128 0x3
 5080 0153 0E       		.uleb128 0xe
 5081 0154 3A       		.uleb128 0x3a
 5082 0155 0B       		.uleb128 0xb
 5083 0156 3B       		.uleb128 0x3b
 5084 0157 0B       		.uleb128 0xb
 5085 0158 49       		.uleb128 0x49
 5086 0159 13       		.uleb128 0x13
 5087 015a 02       		.uleb128 0x2
 5088 015b 17       		.uleb128 0x17
 5089 015c 00       		.byte	0
 5090 015d 00       		.byte	0
 5091 015e 19       		.uleb128 0x19
 5092 015f 34       		.uleb128 0x34
 5093 0160 00       		.byte	0
ARM GAS  C:\Users\Tim\AppData\Local\Temp\ccEK2rHG.s 			page 117


 5094 0161 03       		.uleb128 0x3
 5095 0162 0E       		.uleb128 0xe
 5096 0163 3A       		.uleb128 0x3a
 5097 0164 0B       		.uleb128 0xb
 5098 0165 3B       		.uleb128 0x3b
 5099 0166 0B       		.uleb128 0xb
 5100 0167 49       		.uleb128 0x49
 5101 0168 13       		.uleb128 0x13
 5102 0169 02       		.uleb128 0x2
 5103 016a 18       		.uleb128 0x18
 5104 016b 00       		.byte	0
 5105 016c 00       		.byte	0
 5106 016d 1A       		.uleb128 0x1a
 5107 016e 898201   		.uleb128 0x4109
 5108 0171 01       		.byte	0x1
 5109 0172 11       		.uleb128 0x11
 5110 0173 01       		.uleb128 0x1
 5111 0174 31       		.uleb128 0x31
 5112 0175 13       		.uleb128 0x13
 5113 0176 01       		.uleb128 0x1
 5114 0177 13       		.uleb128 0x13
 5115 0178 00       		.byte	0
 5116 0179 00       		.byte	0
 5117 017a 1B       		.uleb128 0x1b
 5118 017b 2E       		.uleb128 0x2e
 5119 017c 00       		.byte	0
 5120 017d 3F       		.uleb128 0x3f
 5121 017e 19       		.uleb128 0x19
 5122 017f 03       		.uleb128 0x3
 5123 0180 0E       		.uleb128 0xe
 5124 0181 3A       		.uleb128 0x3a
 5125 0182 0B       		.uleb128 0xb
 5126 0183 3B       		.uleb128 0x3b
 5127 0184 05       		.uleb128 0x5
 5128 0185 27       		.uleb128 0x27
 5129 0186 19       		.uleb128 0x19
 5130 0187 49       		.uleb128 0x49
 5131 0188 13       		.uleb128 0x13
 5132 0189 11       		.uleb128 0x11
 5133 018a 01       		.uleb128 0x1
 5134 018b 12       		.uleb128 0x12
 5135 018c 06       		.uleb128 0x6
 5136 018d 40       		.uleb128 0x40
 5137 018e 18       		.uleb128 0x18
 5138 018f 9742     		.uleb128 0x2117
 5139 0191 19       		.uleb128 0x19
 5140 0192 00       		.byte	0
 5141 0193 00       		.byte	0
 5142 0194 1C       		.uleb128 0x1c
 5143 0195 2E       		.uleb128 0x2e
 5144 0196 01       		.byte	0x1
 5145 0197 3F       		.uleb128 0x3f
 5146 0198 19       		.uleb128 0x19
 5147 0199 03       		.uleb128 0x3
 5148 019a 0E       		.uleb128 0xe
 5149 019b 3A       		.uleb128 0x3a
 5150 019c 0B       		.uleb128 0xb
ARM GAS  C:\Users\Tim\AppData\Local\Temp\ccEK2rHG.s 			page 118


 5151 019d 3B       		.uleb128 0x3b
 5152 019e 05       		.uleb128 0x5
 5153 019f 27       		.uleb128 0x27
 5154 01a0 19       		.uleb128 0x19
 5155 01a1 11       		.uleb128 0x11
 5156 01a2 01       		.uleb128 0x1
 5157 01a3 12       		.uleb128 0x12
 5158 01a4 06       		.uleb128 0x6
 5159 01a5 40       		.uleb128 0x40
 5160 01a6 18       		.uleb128 0x18
 5161 01a7 9742     		.uleb128 0x2117
 5162 01a9 19       		.uleb128 0x19
 5163 01aa 01       		.uleb128 0x1
 5164 01ab 13       		.uleb128 0x13
 5165 01ac 00       		.byte	0
 5166 01ad 00       		.byte	0
 5167 01ae 1D       		.uleb128 0x1d
 5168 01af 05       		.uleb128 0x5
 5169 01b0 00       		.byte	0
 5170 01b1 03       		.uleb128 0x3
 5171 01b2 0E       		.uleb128 0xe
 5172 01b3 3A       		.uleb128 0x3a
 5173 01b4 0B       		.uleb128 0xb
 5174 01b5 3B       		.uleb128 0x3b
 5175 01b6 05       		.uleb128 0x5
 5176 01b7 49       		.uleb128 0x49
 5177 01b8 13       		.uleb128 0x13
 5178 01b9 02       		.uleb128 0x2
 5179 01ba 18       		.uleb128 0x18
 5180 01bb 00       		.byte	0
 5181 01bc 00       		.byte	0
 5182 01bd 1E       		.uleb128 0x1e
 5183 01be 2E       		.uleb128 0x2e
 5184 01bf 01       		.byte	0x1
 5185 01c0 3F       		.uleb128 0x3f
 5186 01c1 19       		.uleb128 0x19
 5187 01c2 03       		.uleb128 0x3
 5188 01c3 0E       		.uleb128 0xe
 5189 01c4 3A       		.uleb128 0x3a
 5190 01c5 0B       		.uleb128 0xb
 5191 01c6 3B       		.uleb128 0x3b
 5192 01c7 05       		.uleb128 0x5
 5193 01c8 27       		.uleb128 0x27
 5194 01c9 19       		.uleb128 0x19
 5195 01ca 49       		.uleb128 0x49
 5196 01cb 13       		.uleb128 0x13
 5197 01cc 11       		.uleb128 0x11
 5198 01cd 01       		.uleb128 0x1
 5199 01ce 12       		.uleb128 0x12
 5200 01cf 06       		.uleb128 0x6
 5201 01d0 40       		.uleb128 0x40
 5202 01d1 18       		.uleb128 0x18
 5203 01d2 9742     		.uleb128 0x2117
 5204 01d4 19       		.uleb128 0x19
 5205 01d5 01       		.uleb128 0x1
 5206 01d6 13       		.uleb128 0x13
 5207 01d7 00       		.byte	0
ARM GAS  C:\Users\Tim\AppData\Local\Temp\ccEK2rHG.s 			page 119


 5208 01d8 00       		.byte	0
 5209 01d9 1F       		.uleb128 0x1f
 5210 01da 05       		.uleb128 0x5
 5211 01db 00       		.byte	0
 5212 01dc 03       		.uleb128 0x3
 5213 01dd 0E       		.uleb128 0xe
 5214 01de 3A       		.uleb128 0x3a
 5215 01df 0B       		.uleb128 0xb
 5216 01e0 3B       		.uleb128 0x3b
 5217 01e1 05       		.uleb128 0x5
 5218 01e2 49       		.uleb128 0x49
 5219 01e3 13       		.uleb128 0x13
 5220 01e4 02       		.uleb128 0x2
 5221 01e5 17       		.uleb128 0x17
 5222 01e6 00       		.byte	0
 5223 01e7 00       		.byte	0
 5224 01e8 20       		.uleb128 0x20
 5225 01e9 34       		.uleb128 0x34
 5226 01ea 00       		.byte	0
 5227 01eb 03       		.uleb128 0x3
 5228 01ec 0E       		.uleb128 0xe
 5229 01ed 3A       		.uleb128 0x3a
 5230 01ee 0B       		.uleb128 0xb
 5231 01ef 3B       		.uleb128 0x3b
 5232 01f0 05       		.uleb128 0x5
 5233 01f1 49       		.uleb128 0x49
 5234 01f2 13       		.uleb128 0x13
 5235 01f3 02       		.uleb128 0x2
 5236 01f4 18       		.uleb128 0x18
 5237 01f5 00       		.byte	0
 5238 01f6 00       		.byte	0
 5239 01f7 21       		.uleb128 0x21
 5240 01f8 26       		.uleb128 0x26
 5241 01f9 00       		.byte	0
 5242 01fa 49       		.uleb128 0x49
 5243 01fb 13       		.uleb128 0x13
 5244 01fc 00       		.byte	0
 5245 01fd 00       		.byte	0
 5246 01fe 22       		.uleb128 0x22
 5247 01ff 2E       		.uleb128 0x2e
 5248 0200 01       		.byte	0x1
 5249 0201 3F       		.uleb128 0x3f
 5250 0202 19       		.uleb128 0x19
 5251 0203 03       		.uleb128 0x3
 5252 0204 0E       		.uleb128 0xe
 5253 0205 3A       		.uleb128 0x3a
 5254 0206 0B       		.uleb128 0xb
 5255 0207 3B       		.uleb128 0x3b
 5256 0208 0B       		.uleb128 0xb
 5257 0209 27       		.uleb128 0x27
 5258 020a 19       		.uleb128 0x19
 5259 020b 3C       		.uleb128 0x3c
 5260 020c 19       		.uleb128 0x19
 5261 020d 01       		.uleb128 0x1
 5262 020e 13       		.uleb128 0x13
 5263 020f 00       		.byte	0
 5264 0210 00       		.byte	0
ARM GAS  C:\Users\Tim\AppData\Local\Temp\ccEK2rHG.s 			page 120


 5265 0211 23       		.uleb128 0x23
 5266 0212 05       		.uleb128 0x5
 5267 0213 00       		.byte	0
 5268 0214 49       		.uleb128 0x49
 5269 0215 13       		.uleb128 0x13
 5270 0216 00       		.byte	0
 5271 0217 00       		.byte	0
 5272 0218 24       		.uleb128 0x24
 5273 0219 2E       		.uleb128 0x2e
 5274 021a 01       		.byte	0x1
 5275 021b 3F       		.uleb128 0x3f
 5276 021c 19       		.uleb128 0x19
 5277 021d 03       		.uleb128 0x3
 5278 021e 0E       		.uleb128 0xe
 5279 021f 3A       		.uleb128 0x3a
 5280 0220 0B       		.uleb128 0xb
 5281 0221 3B       		.uleb128 0x3b
 5282 0222 0B       		.uleb128 0xb
 5283 0223 27       		.uleb128 0x27
 5284 0224 19       		.uleb128 0x19
 5285 0225 49       		.uleb128 0x49
 5286 0226 13       		.uleb128 0x13
 5287 0227 3C       		.uleb128 0x3c
 5288 0228 19       		.uleb128 0x19
 5289 0229 01       		.uleb128 0x1
 5290 022a 13       		.uleb128 0x13
 5291 022b 00       		.byte	0
 5292 022c 00       		.byte	0
 5293 022d 25       		.uleb128 0x25
 5294 022e 2E       		.uleb128 0x2e
 5295 022f 01       		.byte	0x1
 5296 0230 3F       		.uleb128 0x3f
 5297 0231 19       		.uleb128 0x19
 5298 0232 03       		.uleb128 0x3
 5299 0233 0E       		.uleb128 0xe
 5300 0234 3A       		.uleb128 0x3a
 5301 0235 0B       		.uleb128 0xb
 5302 0236 3B       		.uleb128 0x3b
 5303 0237 0B       		.uleb128 0xb
 5304 0238 27       		.uleb128 0x27
 5305 0239 19       		.uleb128 0x19
 5306 023a 3C       		.uleb128 0x3c
 5307 023b 19       		.uleb128 0x19
 5308 023c 00       		.byte	0
 5309 023d 00       		.byte	0
 5310 023e 00       		.byte	0
 5311              		.section	.debug_loc,"",%progbits
 5312              	.Ldebug_loc0:
 5313              	.LLST0:
 5314 0000 06000000 		.4byte	.LVL1
 5315 0004 22000000 		.4byte	.LVL6
 5316 0008 0100     		.2byte	0x1
 5317 000a 54       		.byte	0x54
 5318 000b 00000000 		.4byte	0
 5319 000f 00000000 		.4byte	0
 5320              	.LLST1:
 5321 0013 02000000 		.4byte	.LVL0
ARM GAS  C:\Users\Tim\AppData\Local\Temp\ccEK2rHG.s 			page 121


 5322 0017 0E000000 		.4byte	.LVL2
 5323 001b 0200     		.2byte	0x2
 5324 001d 30       		.byte	0x30
 5325 001e 9F       		.byte	0x9f
 5326 001f 0E000000 		.4byte	.LVL2
 5327 0023 22000000 		.4byte	.LVL7
 5328 0027 0100     		.2byte	0x1
 5329 0029 55       		.byte	0x55
 5330 002a 00000000 		.4byte	0
 5331 002e 00000000 		.4byte	0
 5332              	.LLST2:
 5333 0032 00000000 		.4byte	.LVL9
 5334 0036 06000000 		.4byte	.LVL10
 5335 003a 0100     		.2byte	0x1
 5336 003c 50       		.byte	0x50
 5337 003d 06000000 		.4byte	.LVL10
 5338 0041 09000000 		.4byte	.LVL11-1
 5339 0045 0100     		.2byte	0x1
 5340 0047 51       		.byte	0x51
 5341 0048 09000000 		.4byte	.LVL11-1
 5342 004c 0C000000 		.4byte	.LFE8
 5343 0050 0400     		.2byte	0x4
 5344 0052 F3       		.byte	0xf3
 5345 0053 01       		.uleb128 0x1
 5346 0054 50       		.byte	0x50
 5347 0055 9F       		.byte	0x9f
 5348 0056 00000000 		.4byte	0
 5349 005a 00000000 		.4byte	0
 5350              	.LLST3:
 5351 005e 00000000 		.4byte	.LVL16
 5352 0062 0C000000 		.4byte	.LVL17
 5353 0066 0100     		.2byte	0x1
 5354 0068 50       		.byte	0x50
 5355 0069 0C000000 		.4byte	.LVL17
 5356 006d 14000000 		.4byte	.LVL19
 5357 0071 0100     		.2byte	0x1
 5358 0073 54       		.byte	0x54
 5359 0074 14000000 		.4byte	.LVL19
 5360 0078 20000000 		.4byte	.LFE14
 5361 007c 0400     		.2byte	0x4
 5362 007e F3       		.byte	0xf3
 5363 007f 01       		.uleb128 0x1
 5364 0080 50       		.byte	0x50
 5365 0081 9F       		.byte	0x9f
 5366 0082 00000000 		.4byte	0
 5367 0086 00000000 		.4byte	0
 5368              	.LLST4:
 5369 008a 00000000 		.4byte	.LVL16
 5370 008e 0F000000 		.4byte	.LVL18-1
 5371 0092 0100     		.2byte	0x1
 5372 0094 51       		.byte	0x51
 5373 0095 0F000000 		.4byte	.LVL18-1
 5374 0099 18000000 		.4byte	.LVL21
 5375 009d 0100     		.2byte	0x1
 5376 009f 55       		.byte	0x55
 5377 00a0 18000000 		.4byte	.LVL21
 5378 00a4 20000000 		.4byte	.LFE14
ARM GAS  C:\Users\Tim\AppData\Local\Temp\ccEK2rHG.s 			page 122


 5379 00a8 0800     		.2byte	0x8
 5380 00aa F3       		.byte	0xf3
 5381 00ab 01       		.uleb128 0x1
 5382 00ac 50       		.byte	0x50
 5383 00ad 32       		.byte	0x32
 5384 00ae 24       		.byte	0x24
 5385 00af 73       		.byte	0x73
 5386 00b0 00       		.sleb128 0
 5387 00b1 22       		.byte	0x22
 5388 00b2 00000000 		.4byte	0
 5389 00b6 00000000 		.4byte	0
 5390              	.LLST5:
 5391 00ba 00000000 		.4byte	.LVL22
 5392 00be 0A000000 		.4byte	.LVL23
 5393 00c2 0100     		.2byte	0x1
 5394 00c4 50       		.byte	0x50
 5395 00c5 0A000000 		.4byte	.LVL23
 5396 00c9 10000000 		.4byte	.LVL25
 5397 00cd 0100     		.2byte	0x1
 5398 00cf 54       		.byte	0x54
 5399 00d0 10000000 		.4byte	.LVL25
 5400 00d4 1C000000 		.4byte	.LFE15
 5401 00d8 0400     		.2byte	0x4
 5402 00da F3       		.byte	0xf3
 5403 00db 01       		.uleb128 0x1
 5404 00dc 50       		.byte	0x50
 5405 00dd 9F       		.byte	0x9f
 5406 00de 00000000 		.4byte	0
 5407 00e2 00000000 		.4byte	0
 5408              	.LLST6:
 5409 00e6 00000000 		.4byte	.LVL26
 5410 00ea 08000000 		.4byte	.LVL27
 5411 00ee 0200     		.2byte	0x2
 5412 00f0 4F       		.byte	0x4f
 5413 00f1 9F       		.byte	0x9f
 5414 00f2 08000000 		.4byte	.LVL27
 5415 00f6 28000000 		.4byte	.LFE18
 5416 00fa 0100     		.2byte	0x1
 5417 00fc 50       		.byte	0x50
 5418 00fd 00000000 		.4byte	0
 5419 0101 00000000 		.4byte	0
 5420              	.LLST7:
 5421 0105 00000000 		.4byte	.LVL26
 5422 0109 08000000 		.4byte	.LVL27
 5423 010d 0500     		.2byte	0x5
 5424 010f 40       		.byte	0x40
 5425 0110 4B       		.byte	0x4b
 5426 0111 24       		.byte	0x24
 5427 0112 1F       		.byte	0x1f
 5428 0113 9F       		.byte	0x9f
 5429 0114 08000000 		.4byte	.LVL27
 5430 0118 12000000 		.4byte	.LVL28
 5431 011c 0100     		.2byte	0x1
 5432 011e 53       		.byte	0x53
 5433 011f 18000000 		.4byte	.LVL29
 5434 0123 20000000 		.4byte	.LVL32
 5435 0127 0100     		.2byte	0x1
ARM GAS  C:\Users\Tim\AppData\Local\Temp\ccEK2rHG.s 			page 123


 5436 0129 53       		.byte	0x53
 5437 012a 00000000 		.4byte	0
 5438 012e 00000000 		.4byte	0
 5439              	.LLST8:
 5440 0132 00000000 		.4byte	.LVL33
 5441 0136 0A000000 		.4byte	.LVL35
 5442 013a 0100     		.2byte	0x1
 5443 013c 50       		.byte	0x50
 5444 013d 0A000000 		.4byte	.LVL35
 5445 0141 1C000000 		.4byte	.LVL40
 5446 0145 0100     		.2byte	0x1
 5447 0147 54       		.byte	0x54
 5448 0148 1C000000 		.4byte	.LVL40
 5449 014c 24000000 		.4byte	.LFE19
 5450 0150 0400     		.2byte	0x4
 5451 0152 F3       		.byte	0xf3
 5452 0153 01       		.uleb128 0x1
 5453 0154 50       		.byte	0x50
 5454 0155 9F       		.byte	0x9f
 5455 0156 00000000 		.4byte	0
 5456 015a 00000000 		.4byte	0
 5457              	.LLST9:
 5458 015e 12000000 		.4byte	.LVL37
 5459 0162 1C000000 		.4byte	.LVL39
 5460 0166 0100     		.2byte	0x1
 5461 0168 50       		.byte	0x50
 5462 0169 1C000000 		.4byte	.LVL39
 5463 016d 1C000000 		.4byte	.LVL40
 5464 0171 0500     		.2byte	0x5
 5465 0173 31       		.byte	0x31
 5466 0174 74       		.byte	0x74
 5467 0175 00       		.sleb128 0
 5468 0176 24       		.byte	0x24
 5469 0177 9F       		.byte	0x9f
 5470 0178 1C000000 		.4byte	.LVL40
 5471 017c 24000000 		.4byte	.LFE19
 5472 0180 0600     		.2byte	0x6
 5473 0182 31       		.byte	0x31
 5474 0183 F3       		.byte	0xf3
 5475 0184 01       		.uleb128 0x1
 5476 0185 50       		.byte	0x50
 5477 0186 24       		.byte	0x24
 5478 0187 9F       		.byte	0x9f
 5479 0188 00000000 		.4byte	0
 5480 018c 00000000 		.4byte	0
 5481              	.LLST10:
 5482 0190 04000000 		.4byte	.LVL34
 5483 0194 1A000000 		.4byte	.LVL38
 5484 0198 0200     		.2byte	0x2
 5485 019a 31       		.byte	0x31
 5486 019b 9F       		.byte	0x9f
 5487 019c 1A000000 		.4byte	.LVL38
 5488 01a0 24000000 		.4byte	.LFE19
 5489 01a4 0200     		.2byte	0x2
 5490 01a6 30       		.byte	0x30
 5491 01a7 9F       		.byte	0x9f
 5492 01a8 00000000 		.4byte	0
ARM GAS  C:\Users\Tim\AppData\Local\Temp\ccEK2rHG.s 			page 124


 5493 01ac 00000000 		.4byte	0
 5494              	.LLST11:
 5495 01b0 00000000 		.4byte	.LVL41
 5496 01b4 0A000000 		.4byte	.LVL42
 5497 01b8 0100     		.2byte	0x1
 5498 01ba 50       		.byte	0x50
 5499 01bb 0A000000 		.4byte	.LVL42
 5500 01bf 12000000 		.4byte	.LVL44
 5501 01c3 0100     		.2byte	0x1
 5502 01c5 54       		.byte	0x54
 5503 01c6 12000000 		.4byte	.LVL44
 5504 01ca 24000000 		.4byte	.LFE20
 5505 01ce 0400     		.2byte	0x4
 5506 01d0 F3       		.byte	0xf3
 5507 01d1 01       		.uleb128 0x1
 5508 01d2 50       		.byte	0x50
 5509 01d3 9F       		.byte	0x9f
 5510 01d4 00000000 		.4byte	0
 5511 01d8 00000000 		.4byte	0
 5512              	.LLST12:
 5513 01dc 00000000 		.4byte	.LVL45
 5514 01e0 0A000000 		.4byte	.LVL46
 5515 01e4 0100     		.2byte	0x1
 5516 01e6 50       		.byte	0x50
 5517 01e7 0A000000 		.4byte	.LVL46
 5518 01eb 12000000 		.4byte	.LVL48
 5519 01ef 0100     		.2byte	0x1
 5520 01f1 54       		.byte	0x54
 5521 01f2 12000000 		.4byte	.LVL48
 5522 01f6 20000000 		.4byte	.LFE21
 5523 01fa 0400     		.2byte	0x4
 5524 01fc F3       		.byte	0xf3
 5525 01fd 01       		.uleb128 0x1
 5526 01fe 50       		.byte	0x50
 5527 01ff 9F       		.byte	0x9f
 5528 0200 00000000 		.4byte	0
 5529 0204 00000000 		.4byte	0
 5530              	.LLST13:
 5531 0208 00000000 		.4byte	.LVL49
 5532 020c 0A000000 		.4byte	.LVL50
 5533 0210 0100     		.2byte	0x1
 5534 0212 50       		.byte	0x50
 5535 0213 0A000000 		.4byte	.LVL50
 5536 0217 1A000000 		.4byte	.LVL52
 5537 021b 0100     		.2byte	0x1
 5538 021d 54       		.byte	0x54
 5539 021e 1A000000 		.4byte	.LVL52
 5540 0222 2C000000 		.4byte	.LFE22
 5541 0226 0400     		.2byte	0x4
 5542 0228 F3       		.byte	0xf3
 5543 0229 01       		.uleb128 0x1
 5544 022a 50       		.byte	0x50
 5545 022b 9F       		.byte	0x9f
 5546 022c 00000000 		.4byte	0
 5547 0230 00000000 		.4byte	0
 5548              	.LLST14:
 5549 0234 00000000 		.4byte	.LVL53
ARM GAS  C:\Users\Tim\AppData\Local\Temp\ccEK2rHG.s 			page 125


 5550 0238 0C000000 		.4byte	.LVL54
 5551 023c 0100     		.2byte	0x1
 5552 023e 50       		.byte	0x50
 5553 023f 0C000000 		.4byte	.LVL54
 5554 0243 1E000000 		.4byte	.LVL57
 5555 0247 0100     		.2byte	0x1
 5556 0249 54       		.byte	0x54
 5557 024a 1E000000 		.4byte	.LVL57
 5558 024e 34000000 		.4byte	.LFE23
 5559 0252 0400     		.2byte	0x4
 5560 0254 F3       		.byte	0xf3
 5561 0255 01       		.uleb128 0x1
 5562 0256 50       		.byte	0x50
 5563 0257 9F       		.byte	0x9f
 5564 0258 00000000 		.4byte	0
 5565 025c 00000000 		.4byte	0
 5566              	.LLST15:
 5567 0260 00000000 		.4byte	.LVL53
 5568 0264 0F000000 		.4byte	.LVL55-1
 5569 0268 0100     		.2byte	0x1
 5570 026a 51       		.byte	0x51
 5571 026b 0F000000 		.4byte	.LVL55-1
 5572 026f 2A000000 		.4byte	.LVL59
 5573 0273 0100     		.2byte	0x1
 5574 0275 55       		.byte	0x55
 5575 0276 2A000000 		.4byte	.LVL59
 5576 027a 34000000 		.4byte	.LFE23
 5577 027e 0400     		.2byte	0x4
 5578 0280 F3       		.byte	0xf3
 5579 0281 01       		.uleb128 0x1
 5580 0282 51       		.byte	0x51
 5581 0283 9F       		.byte	0x9f
 5582 0284 00000000 		.4byte	0
 5583 0288 00000000 		.4byte	0
 5584              	.LLST16:
 5585 028c 00000000 		.4byte	.LVL60
 5586 0290 0A000000 		.4byte	.LVL61
 5587 0294 0100     		.2byte	0x1
 5588 0296 50       		.byte	0x50
 5589 0297 0A000000 		.4byte	.LVL61
 5590 029b 10000000 		.4byte	.LVL63
 5591 029f 0100     		.2byte	0x1
 5592 02a1 54       		.byte	0x54
 5593 02a2 10000000 		.4byte	.LVL63
 5594 02a6 20000000 		.4byte	.LFE24
 5595 02aa 0400     		.2byte	0x4
 5596 02ac F3       		.byte	0xf3
 5597 02ad 01       		.uleb128 0x1
 5598 02ae 50       		.byte	0x50
 5599 02af 9F       		.byte	0x9f
 5600 02b0 00000000 		.4byte	0
 5601 02b4 00000000 		.4byte	0
 5602              	.LLST17:
 5603 02b8 00000000 		.4byte	.LVL65
 5604 02bc 0C000000 		.4byte	.LVL66
 5605 02c0 0100     		.2byte	0x1
 5606 02c2 50       		.byte	0x50
ARM GAS  C:\Users\Tim\AppData\Local\Temp\ccEK2rHG.s 			page 126


 5607 02c3 0C000000 		.4byte	.LVL66
 5608 02c7 1E000000 		.4byte	.LVL69
 5609 02cb 0100     		.2byte	0x1
 5610 02cd 54       		.byte	0x54
 5611 02ce 1E000000 		.4byte	.LVL69
 5612 02d2 34000000 		.4byte	.LFE25
 5613 02d6 0400     		.2byte	0x4
 5614 02d8 F3       		.byte	0xf3
 5615 02d9 01       		.uleb128 0x1
 5616 02da 50       		.byte	0x50
 5617 02db 9F       		.byte	0x9f
 5618 02dc 00000000 		.4byte	0
 5619 02e0 00000000 		.4byte	0
 5620              	.LLST18:
 5621 02e4 00000000 		.4byte	.LVL65
 5622 02e8 0F000000 		.4byte	.LVL67-1
 5623 02ec 0100     		.2byte	0x1
 5624 02ee 51       		.byte	0x51
 5625 02ef 0F000000 		.4byte	.LVL67-1
 5626 02f3 2A000000 		.4byte	.LVL71
 5627 02f7 0100     		.2byte	0x1
 5628 02f9 55       		.byte	0x55
 5629 02fa 2A000000 		.4byte	.LVL71
 5630 02fe 34000000 		.4byte	.LFE25
 5631 0302 0400     		.2byte	0x4
 5632 0304 F3       		.byte	0xf3
 5633 0305 01       		.uleb128 0x1
 5634 0306 51       		.byte	0x51
 5635 0307 9F       		.byte	0x9f
 5636 0308 00000000 		.4byte	0
 5637 030c 00000000 		.4byte	0
 5638              	.LLST19:
 5639 0310 00000000 		.4byte	.LVL72
 5640 0314 0A000000 		.4byte	.LVL73
 5641 0318 0100     		.2byte	0x1
 5642 031a 50       		.byte	0x50
 5643 031b 0A000000 		.4byte	.LVL73
 5644 031f 10000000 		.4byte	.LVL75
 5645 0323 0100     		.2byte	0x1
 5646 0325 54       		.byte	0x54
 5647 0326 10000000 		.4byte	.LVL75
 5648 032a 20000000 		.4byte	.LFE26
 5649 032e 0400     		.2byte	0x4
 5650 0330 F3       		.byte	0xf3
 5651 0331 01       		.uleb128 0x1
 5652 0332 50       		.byte	0x50
 5653 0333 9F       		.byte	0x9f
 5654 0334 00000000 		.4byte	0
 5655 0338 00000000 		.4byte	0
 5656              	.LLST20:
 5657 033c 00000000 		.4byte	.LVL77
 5658 0340 0E000000 		.4byte	.LVL78
 5659 0344 0100     		.2byte	0x1
 5660 0346 50       		.byte	0x50
 5661 0347 0E000000 		.4byte	.LVL78
 5662 034b AE000000 		.4byte	.LVL89
 5663 034f 0100     		.2byte	0x1
ARM GAS  C:\Users\Tim\AppData\Local\Temp\ccEK2rHG.s 			page 127


 5664 0351 56       		.byte	0x56
 5665 0352 AE000000 		.4byte	.LVL89
 5666 0356 E4000000 		.4byte	.LFE27
 5667 035a 0400     		.2byte	0x4
 5668 035c F3       		.byte	0xf3
 5669 035d 01       		.uleb128 0x1
 5670 035e 50       		.byte	0x50
 5671 035f 9F       		.byte	0x9f
 5672 0360 00000000 		.4byte	0
 5673 0364 00000000 		.4byte	0
 5674              	.LLST21:
 5675 0368 00000000 		.4byte	.LVL77
 5676 036c 11000000 		.4byte	.LVL79-1
 5677 0370 0100     		.2byte	0x1
 5678 0372 51       		.byte	0x51
 5679 0373 11000000 		.4byte	.LVL79-1
 5680 0377 B0000000 		.4byte	.LVL90
 5681 037b 0100     		.2byte	0x1
 5682 037d 55       		.byte	0x55
 5683 037e B0000000 		.4byte	.LVL90
 5684 0382 E4000000 		.4byte	.LFE27
 5685 0386 0400     		.2byte	0x4
 5686 0388 F3       		.byte	0xf3
 5687 0389 01       		.uleb128 0x1
 5688 038a 51       		.byte	0x51
 5689 038b 9F       		.byte	0x9f
 5690 038c 00000000 		.4byte	0
 5691 0390 00000000 		.4byte	0
 5692              	.LLST22:
 5693 0394 00000000 		.4byte	.LVL77
 5694 0398 11000000 		.4byte	.LVL79-1
 5695 039c 0100     		.2byte	0x1
 5696 039e 52       		.byte	0x52
 5697 039f 11000000 		.4byte	.LVL79-1
 5698 03a3 C0000000 		.4byte	.LVL91
 5699 03a7 0100     		.2byte	0x1
 5700 03a9 54       		.byte	0x54
 5701 03aa C0000000 		.4byte	.LVL91
 5702 03ae E4000000 		.4byte	.LFE27
 5703 03b2 0400     		.2byte	0x4
 5704 03b4 F3       		.byte	0xf3
 5705 03b5 01       		.uleb128 0x1
 5706 03b6 52       		.byte	0x52
 5707 03b7 9F       		.byte	0x9f
 5708 03b8 00000000 		.4byte	0
 5709 03bc 00000000 		.4byte	0
 5710              	.LLST23:
 5711 03c0 00000000 		.4byte	.LVL92
 5712 03c4 0C000000 		.4byte	.LVL93
 5713 03c8 0100     		.2byte	0x1
 5714 03ca 50       		.byte	0x50
 5715 03cb 0C000000 		.4byte	.LVL93
 5716 03cf 1C000000 		.4byte	.LVL96
 5717 03d3 0100     		.2byte	0x1
 5718 03d5 55       		.byte	0x55
 5719 03d6 1C000000 		.4byte	.LVL96
 5720 03da 34000000 		.4byte	.LFE28
ARM GAS  C:\Users\Tim\AppData\Local\Temp\ccEK2rHG.s 			page 128


 5721 03de 0400     		.2byte	0x4
 5722 03e0 F3       		.byte	0xf3
 5723 03e1 01       		.uleb128 0x1
 5724 03e2 50       		.byte	0x50
 5725 03e3 9F       		.byte	0x9f
 5726 03e4 00000000 		.4byte	0
 5727 03e8 00000000 		.4byte	0
 5728              	.LLST24:
 5729 03ec 00000000 		.4byte	.LVL92
 5730 03f0 0F000000 		.4byte	.LVL94-1
 5731 03f4 0100     		.2byte	0x1
 5732 03f6 51       		.byte	0x51
 5733 03f7 0F000000 		.4byte	.LVL94-1
 5734 03fb 1E000000 		.4byte	.LVL97
 5735 03ff 0100     		.2byte	0x1
 5736 0401 54       		.byte	0x54
 5737 0402 1E000000 		.4byte	.LVL97
 5738 0406 34000000 		.4byte	.LFE28
 5739 040a 0400     		.2byte	0x4
 5740 040c F3       		.byte	0xf3
 5741 040d 01       		.uleb128 0x1
 5742 040e 51       		.byte	0x51
 5743 040f 9F       		.byte	0x9f
 5744 0410 00000000 		.4byte	0
 5745 0414 00000000 		.4byte	0
 5746              	.LLST25:
 5747 0418 00000000 		.4byte	.LVL98
 5748 041c 0C000000 		.4byte	.LVL99
 5749 0420 0100     		.2byte	0x1
 5750 0422 50       		.byte	0x50
 5751 0423 0C000000 		.4byte	.LVL99
 5752 0427 1C000000 		.4byte	.LVL102
 5753 042b 0100     		.2byte	0x1
 5754 042d 55       		.byte	0x55
 5755 042e 1C000000 		.4byte	.LVL102
 5756 0432 30000000 		.4byte	.LFE29
 5757 0436 0400     		.2byte	0x4
 5758 0438 F3       		.byte	0xf3
 5759 0439 01       		.uleb128 0x1
 5760 043a 50       		.byte	0x50
 5761 043b 9F       		.byte	0x9f
 5762 043c 00000000 		.4byte	0
 5763 0440 00000000 		.4byte	0
 5764              	.LLST26:
 5765 0444 00000000 		.4byte	.LVL98
 5766 0448 0F000000 		.4byte	.LVL100-1
 5767 044c 0100     		.2byte	0x1
 5768 044e 51       		.byte	0x51
 5769 044f 0F000000 		.4byte	.LVL100-1
 5770 0453 1E000000 		.4byte	.LVL103
 5771 0457 0100     		.2byte	0x1
 5772 0459 54       		.byte	0x54
 5773 045a 1E000000 		.4byte	.LVL103
 5774 045e 30000000 		.4byte	.LFE29
 5775 0462 0400     		.2byte	0x4
 5776 0464 F3       		.byte	0xf3
 5777 0465 01       		.uleb128 0x1
ARM GAS  C:\Users\Tim\AppData\Local\Temp\ccEK2rHG.s 			page 129


 5778 0466 51       		.byte	0x51
 5779 0467 9F       		.byte	0x9f
 5780 0468 00000000 		.4byte	0
 5781 046c 00000000 		.4byte	0
 5782              	.LLST27:
 5783 0470 00000000 		.4byte	.LVL104
 5784 0474 0E000000 		.4byte	.LVL105
 5785 0478 0100     		.2byte	0x1
 5786 047a 50       		.byte	0x50
 5787 047b 0E000000 		.4byte	.LVL105
 5788 047f 1E000000 		.4byte	.LVL108
 5789 0483 0100     		.2byte	0x1
 5790 0485 55       		.byte	0x55
 5791 0486 1E000000 		.4byte	.LVL108
 5792 048a 2C000000 		.4byte	.LFE30
 5793 048e 0400     		.2byte	0x4
 5794 0490 F3       		.byte	0xf3
 5795 0491 01       		.uleb128 0x1
 5796 0492 50       		.byte	0x50
 5797 0493 9F       		.byte	0x9f
 5798 0494 00000000 		.4byte	0
 5799 0498 00000000 		.4byte	0
 5800              	.LLST28:
 5801 049c 00000000 		.4byte	.LVL104
 5802 04a0 11000000 		.4byte	.LVL106-1
 5803 04a4 0100     		.2byte	0x1
 5804 04a6 51       		.byte	0x51
 5805 04a7 11000000 		.4byte	.LVL106-1
 5806 04ab 20000000 		.4byte	.LVL109
 5807 04af 0100     		.2byte	0x1
 5808 04b1 54       		.byte	0x54
 5809 04b2 20000000 		.4byte	.LVL109
 5810 04b6 2C000000 		.4byte	.LFE30
 5811 04ba 0400     		.2byte	0x4
 5812 04bc F3       		.byte	0xf3
 5813 04bd 01       		.uleb128 0x1
 5814 04be 51       		.byte	0x51
 5815 04bf 9F       		.byte	0x9f
 5816 04c0 00000000 		.4byte	0
 5817 04c4 00000000 		.4byte	0
 5818              	.LLST29:
 5819 04c8 00000000 		.4byte	.LVL104
 5820 04cc 11000000 		.4byte	.LVL106-1
 5821 04d0 0100     		.2byte	0x1
 5822 04d2 52       		.byte	0x52
 5823 04d3 11000000 		.4byte	.LVL106-1
 5824 04d7 26000000 		.4byte	.LVL110
 5825 04db 0100     		.2byte	0x1
 5826 04dd 56       		.byte	0x56
 5827 04de 26000000 		.4byte	.LVL110
 5828 04e2 2C000000 		.4byte	.LFE30
 5829 04e6 0400     		.2byte	0x4
 5830 04e8 F3       		.byte	0xf3
 5831 04e9 01       		.uleb128 0x1
 5832 04ea 52       		.byte	0x52
 5833 04eb 9F       		.byte	0x9f
 5834 04ec 00000000 		.4byte	0
ARM GAS  C:\Users\Tim\AppData\Local\Temp\ccEK2rHG.s 			page 130


 5835 04f0 00000000 		.4byte	0
 5836              	.LLST30:
 5837 04f4 00000000 		.4byte	.LVL111
 5838 04f8 0C000000 		.4byte	.LVL112
 5839 04fc 0100     		.2byte	0x1
 5840 04fe 50       		.byte	0x50
 5841 04ff 0C000000 		.4byte	.LVL112
 5842 0503 1C000000 		.4byte	.LVL115
 5843 0507 0100     		.2byte	0x1
 5844 0509 55       		.byte	0x55
 5845 050a 1C000000 		.4byte	.LVL115
 5846 050e 2C000000 		.4byte	.LFE31
 5847 0512 0400     		.2byte	0x4
 5848 0514 F3       		.byte	0xf3
 5849 0515 01       		.uleb128 0x1
 5850 0516 50       		.byte	0x50
 5851 0517 9F       		.byte	0x9f
 5852 0518 00000000 		.4byte	0
 5853 051c 00000000 		.4byte	0
 5854              	.LLST31:
 5855 0520 00000000 		.4byte	.LVL111
 5856 0524 0F000000 		.4byte	.LVL113-1
 5857 0528 0100     		.2byte	0x1
 5858 052a 51       		.byte	0x51
 5859 052b 0F000000 		.4byte	.LVL113-1
 5860 052f 1E000000 		.4byte	.LVL116
 5861 0533 0100     		.2byte	0x1
 5862 0535 54       		.byte	0x54
 5863 0536 1E000000 		.4byte	.LVL116
 5864 053a 2C000000 		.4byte	.LFE31
 5865 053e 0400     		.2byte	0x4
 5866 0540 F3       		.byte	0xf3
 5867 0541 01       		.uleb128 0x1
 5868 0542 51       		.byte	0x51
 5869 0543 9F       		.byte	0x9f
 5870 0544 00000000 		.4byte	0
 5871 0548 00000000 		.4byte	0
 5872              	.LLST32:
 5873 054c 00000000 		.4byte	.LVL117
 5874 0550 0E000000 		.4byte	.LVL118
 5875 0554 0100     		.2byte	0x1
 5876 0556 50       		.byte	0x50
 5877 0557 0E000000 		.4byte	.LVL118
 5878 055b 1E000000 		.4byte	.LVL121
 5879 055f 0100     		.2byte	0x1
 5880 0561 55       		.byte	0x55
 5881 0562 1E000000 		.4byte	.LVL121
 5882 0566 30000000 		.4byte	.LFE32
 5883 056a 0400     		.2byte	0x4
 5884 056c F3       		.byte	0xf3
 5885 056d 01       		.uleb128 0x1
 5886 056e 50       		.byte	0x50
 5887 056f 9F       		.byte	0x9f
 5888 0570 00000000 		.4byte	0
 5889 0574 00000000 		.4byte	0
 5890              	.LLST33:
 5891 0578 00000000 		.4byte	.LVL117
ARM GAS  C:\Users\Tim\AppData\Local\Temp\ccEK2rHG.s 			page 131


 5892 057c 11000000 		.4byte	.LVL119-1
 5893 0580 0100     		.2byte	0x1
 5894 0582 51       		.byte	0x51
 5895 0583 11000000 		.4byte	.LVL119-1
 5896 0587 20000000 		.4byte	.LVL122
 5897 058b 0100     		.2byte	0x1
 5898 058d 54       		.byte	0x54
 5899 058e 20000000 		.4byte	.LVL122
 5900 0592 30000000 		.4byte	.LFE32
 5901 0596 0400     		.2byte	0x4
 5902 0598 F3       		.byte	0xf3
 5903 0599 01       		.uleb128 0x1
 5904 059a 51       		.byte	0x51
 5905 059b 9F       		.byte	0x9f
 5906 059c 00000000 		.4byte	0
 5907 05a0 00000000 		.4byte	0
 5908              	.LLST34:
 5909 05a4 00000000 		.4byte	.LVL117
 5910 05a8 11000000 		.4byte	.LVL119-1
 5911 05ac 0100     		.2byte	0x1
 5912 05ae 52       		.byte	0x52
 5913 05af 11000000 		.4byte	.LVL119-1
 5914 05b3 2A000000 		.4byte	.LVL123
 5915 05b7 0100     		.2byte	0x1
 5916 05b9 56       		.byte	0x56
 5917 05ba 2A000000 		.4byte	.LVL123
 5918 05be 30000000 		.4byte	.LFE32
 5919 05c2 0400     		.2byte	0x4
 5920 05c4 F3       		.byte	0xf3
 5921 05c5 01       		.uleb128 0x1
 5922 05c6 52       		.byte	0x52
 5923 05c7 9F       		.byte	0x9f
 5924 05c8 00000000 		.4byte	0
 5925 05cc 00000000 		.4byte	0
 5926              	.LLST35:
 5927 05d0 00000000 		.4byte	.LVL124
 5928 05d4 0C000000 		.4byte	.LVL125
 5929 05d8 0100     		.2byte	0x1
 5930 05da 50       		.byte	0x50
 5931 05db 0C000000 		.4byte	.LVL125
 5932 05df 1C000000 		.4byte	.LVL128
 5933 05e3 0100     		.2byte	0x1
 5934 05e5 55       		.byte	0x55
 5935 05e6 1C000000 		.4byte	.LVL128
 5936 05ea 30000000 		.4byte	.LFE33
 5937 05ee 0400     		.2byte	0x4
 5938 05f0 F3       		.byte	0xf3
 5939 05f1 01       		.uleb128 0x1
 5940 05f2 50       		.byte	0x50
 5941 05f3 9F       		.byte	0x9f
 5942 05f4 00000000 		.4byte	0
 5943 05f8 00000000 		.4byte	0
 5944              	.LLST36:
 5945 05fc 00000000 		.4byte	.LVL124
 5946 0600 0F000000 		.4byte	.LVL126-1
 5947 0604 0100     		.2byte	0x1
 5948 0606 51       		.byte	0x51
ARM GAS  C:\Users\Tim\AppData\Local\Temp\ccEK2rHG.s 			page 132


 5949 0607 0F000000 		.4byte	.LVL126-1
 5950 060b 1E000000 		.4byte	.LVL129
 5951 060f 0100     		.2byte	0x1
 5952 0611 54       		.byte	0x54
 5953 0612 1E000000 		.4byte	.LVL129
 5954 0616 30000000 		.4byte	.LFE33
 5955 061a 0400     		.2byte	0x4
 5956 061c F3       		.byte	0xf3
 5957 061d 01       		.uleb128 0x1
 5958 061e 51       		.byte	0x51
 5959 061f 9F       		.byte	0x9f
 5960 0620 00000000 		.4byte	0
 5961 0624 00000000 		.4byte	0
 5962              	.LLST37:
 5963 0628 00000000 		.4byte	.LVL130
 5964 062c 0E000000 		.4byte	.LVL131
 5965 0630 0100     		.2byte	0x1
 5966 0632 50       		.byte	0x50
 5967 0633 0E000000 		.4byte	.LVL131
 5968 0637 2A000000 		.4byte	.LVL135
 5969 063b 0100     		.2byte	0x1
 5970 063d 56       		.byte	0x56
 5971 063e 2A000000 		.4byte	.LVL135
 5972 0642 48000000 		.4byte	.LFE34
 5973 0646 0400     		.2byte	0x4
 5974 0648 F3       		.byte	0xf3
 5975 0649 01       		.uleb128 0x1
 5976 064a 50       		.byte	0x50
 5977 064b 9F       		.byte	0x9f
 5978 064c 00000000 		.4byte	0
 5979 0650 00000000 		.4byte	0
 5980              	.LLST38:
 5981 0654 00000000 		.4byte	.LVL130
 5982 0658 11000000 		.4byte	.LVL132-1
 5983 065c 0100     		.2byte	0x1
 5984 065e 51       		.byte	0x51
 5985 065f 11000000 		.4byte	.LVL132-1
 5986 0663 2C000000 		.4byte	.LVL136
 5987 0667 0100     		.2byte	0x1
 5988 0669 54       		.byte	0x54
 5989 066a 2C000000 		.4byte	.LVL136
 5990 066e 48000000 		.4byte	.LFE34
 5991 0672 0400     		.2byte	0x4
 5992 0674 F3       		.byte	0xf3
 5993 0675 01       		.uleb128 0x1
 5994 0676 51       		.byte	0x51
 5995 0677 9F       		.byte	0x9f
 5996 0678 00000000 		.4byte	0
 5997 067c 00000000 		.4byte	0
 5998              	.LLST39:
 5999 0680 00000000 		.4byte	.LVL130
 6000 0684 11000000 		.4byte	.LVL132-1
 6001 0688 0100     		.2byte	0x1
 6002 068a 52       		.byte	0x52
 6003 068b 11000000 		.4byte	.LVL132-1
 6004 068f 3C000000 		.4byte	.LVL138
 6005 0693 0100     		.2byte	0x1
ARM GAS  C:\Users\Tim\AppData\Local\Temp\ccEK2rHG.s 			page 133


 6006 0695 55       		.byte	0x55
 6007 0696 3C000000 		.4byte	.LVL138
 6008 069a 48000000 		.4byte	.LFE34
 6009 069e 0400     		.2byte	0x4
 6010 06a0 F3       		.byte	0xf3
 6011 06a1 01       		.uleb128 0x1
 6012 06a2 52       		.byte	0x52
 6013 06a3 9F       		.byte	0x9f
 6014 06a4 00000000 		.4byte	0
 6015 06a8 00000000 		.4byte	0
 6016              	.LLST40:
 6017 06ac 00000000 		.4byte	.LVL139
 6018 06b0 0C000000 		.4byte	.LVL140
 6019 06b4 0100     		.2byte	0x1
 6020 06b6 50       		.byte	0x50
 6021 06b7 0C000000 		.4byte	.LVL140
 6022 06bb 1C000000 		.4byte	.LVL143
 6023 06bf 0100     		.2byte	0x1
 6024 06c1 55       		.byte	0x55
 6025 06c2 1C000000 		.4byte	.LVL143
 6026 06c6 34000000 		.4byte	.LFE35
 6027 06ca 0400     		.2byte	0x4
 6028 06cc F3       		.byte	0xf3
 6029 06cd 01       		.uleb128 0x1
 6030 06ce 50       		.byte	0x50
 6031 06cf 9F       		.byte	0x9f
 6032 06d0 00000000 		.4byte	0
 6033 06d4 00000000 		.4byte	0
 6034              	.LLST41:
 6035 06d8 00000000 		.4byte	.LVL139
 6036 06dc 0F000000 		.4byte	.LVL141-1
 6037 06e0 0100     		.2byte	0x1
 6038 06e2 51       		.byte	0x51
 6039 06e3 0F000000 		.4byte	.LVL141-1
 6040 06e7 1E000000 		.4byte	.LVL144
 6041 06eb 0100     		.2byte	0x1
 6042 06ed 54       		.byte	0x54
 6043 06ee 1E000000 		.4byte	.LVL144
 6044 06f2 34000000 		.4byte	.LFE35
 6045 06f6 0400     		.2byte	0x4
 6046 06f8 F3       		.byte	0xf3
 6047 06f9 01       		.uleb128 0x1
 6048 06fa 51       		.byte	0x51
 6049 06fb 9F       		.byte	0x9f
 6050 06fc 00000000 		.4byte	0
 6051 0700 00000000 		.4byte	0
 6052              	.LLST42:
 6053 0704 00000000 		.4byte	.LVL145
 6054 0708 0E000000 		.4byte	.LVL146
 6055 070c 0100     		.2byte	0x1
 6056 070e 50       		.byte	0x50
 6057 070f 0E000000 		.4byte	.LVL146
 6058 0713 2E000000 		.4byte	.LVL151
 6059 0717 0100     		.2byte	0x1
 6060 0719 56       		.byte	0x56
 6061 071a 2E000000 		.4byte	.LVL151
 6062 071e 4C000000 		.4byte	.LFE36
ARM GAS  C:\Users\Tim\AppData\Local\Temp\ccEK2rHG.s 			page 134


 6063 0722 0400     		.2byte	0x4
 6064 0724 F3       		.byte	0xf3
 6065 0725 01       		.uleb128 0x1
 6066 0726 50       		.byte	0x50
 6067 0727 9F       		.byte	0x9f
 6068 0728 00000000 		.4byte	0
 6069 072c 00000000 		.4byte	0
 6070              	.LLST43:
 6071 0730 00000000 		.4byte	.LVL145
 6072 0734 11000000 		.4byte	.LVL147-1
 6073 0738 0100     		.2byte	0x1
 6074 073a 51       		.byte	0x51
 6075 073b 11000000 		.4byte	.LVL147-1
 6076 073f 30000000 		.4byte	.LVL152
 6077 0743 0100     		.2byte	0x1
 6078 0745 54       		.byte	0x54
 6079 0746 30000000 		.4byte	.LVL152
 6080 074a 4C000000 		.4byte	.LFE36
 6081 074e 0400     		.2byte	0x4
 6082 0750 F3       		.byte	0xf3
 6083 0751 01       		.uleb128 0x1
 6084 0752 51       		.byte	0x51
 6085 0753 9F       		.byte	0x9f
 6086 0754 00000000 		.4byte	0
 6087 0758 00000000 		.4byte	0
 6088              	.LLST44:
 6089 075c 00000000 		.4byte	.LVL145
 6090 0760 11000000 		.4byte	.LVL147-1
 6091 0764 0100     		.2byte	0x1
 6092 0766 52       		.byte	0x52
 6093 0767 11000000 		.4byte	.LVL147-1
 6094 076b 2C000000 		.4byte	.LVL150
 6095 076f 0100     		.2byte	0x1
 6096 0771 55       		.byte	0x55
 6097 0772 2C000000 		.4byte	.LVL150
 6098 0776 4C000000 		.4byte	.LFE36
 6099 077a 0100     		.2byte	0x1
 6100 077c 53       		.byte	0x53
 6101 077d 00000000 		.4byte	0
 6102 0781 00000000 		.4byte	0
 6103              	.LLST45:
 6104 0785 3E000000 		.4byte	.LVL153
 6105 0789 40000000 		.4byte	.LVL154
 6106 078d 0100     		.2byte	0x1
 6107 078f 55       		.byte	0x55
 6108 0790 00000000 		.4byte	0
 6109 0794 00000000 		.4byte	0
 6110              	.LLST46:
 6111 0798 00000000 		.4byte	.LVL155
 6112 079c 0C000000 		.4byte	.LVL156
 6113 07a0 0100     		.2byte	0x1
 6114 07a2 50       		.byte	0x50
 6115 07a3 0C000000 		.4byte	.LVL156
 6116 07a7 1C000000 		.4byte	.LVL159
 6117 07ab 0100     		.2byte	0x1
 6118 07ad 55       		.byte	0x55
 6119 07ae 1C000000 		.4byte	.LVL159
ARM GAS  C:\Users\Tim\AppData\Local\Temp\ccEK2rHG.s 			page 135


 6120 07b2 34000000 		.4byte	.LFE37
 6121 07b6 0400     		.2byte	0x4
 6122 07b8 F3       		.byte	0xf3
 6123 07b9 01       		.uleb128 0x1
 6124 07ba 50       		.byte	0x50
 6125 07bb 9F       		.byte	0x9f
 6126 07bc 00000000 		.4byte	0
 6127 07c0 00000000 		.4byte	0
 6128              	.LLST47:
 6129 07c4 00000000 		.4byte	.LVL155
 6130 07c8 0F000000 		.4byte	.LVL157-1
 6131 07cc 0100     		.2byte	0x1
 6132 07ce 51       		.byte	0x51
 6133 07cf 0F000000 		.4byte	.LVL157-1
 6134 07d3 1E000000 		.4byte	.LVL160
 6135 07d7 0100     		.2byte	0x1
 6136 07d9 54       		.byte	0x54
 6137 07da 1E000000 		.4byte	.LVL160
 6138 07de 34000000 		.4byte	.LFE37
 6139 07e2 0400     		.2byte	0x4
 6140 07e4 F3       		.byte	0xf3
 6141 07e5 01       		.uleb128 0x1
 6142 07e6 51       		.byte	0x51
 6143 07e7 9F       		.byte	0x9f
 6144 07e8 00000000 		.4byte	0
 6145 07ec 00000000 		.4byte	0
 6146              	.LLST48:
 6147 07f0 00000000 		.4byte	.LVL162
 6148 07f4 0E000000 		.4byte	.LVL163
 6149 07f8 0100     		.2byte	0x1
 6150 07fa 50       		.byte	0x50
 6151 07fb 0E000000 		.4byte	.LVL163
 6152 07ff 2A000000 		.4byte	.LVL167
 6153 0803 0100     		.2byte	0x1
 6154 0805 56       		.byte	0x56
 6155 0806 2A000000 		.4byte	.LVL167
 6156 080a 48000000 		.4byte	.LFE38
 6157 080e 0400     		.2byte	0x4
 6158 0810 F3       		.byte	0xf3
 6159 0811 01       		.uleb128 0x1
 6160 0812 50       		.byte	0x50
 6161 0813 9F       		.byte	0x9f
 6162 0814 00000000 		.4byte	0
 6163 0818 00000000 		.4byte	0
 6164              	.LLST49:
 6165 081c 00000000 		.4byte	.LVL162
 6166 0820 11000000 		.4byte	.LVL164-1
 6167 0824 0100     		.2byte	0x1
 6168 0826 51       		.byte	0x51
 6169 0827 11000000 		.4byte	.LVL164-1
 6170 082b 2C000000 		.4byte	.LVL168
 6171 082f 0100     		.2byte	0x1
 6172 0831 54       		.byte	0x54
 6173 0832 2C000000 		.4byte	.LVL168
 6174 0836 48000000 		.4byte	.LFE38
 6175 083a 0400     		.2byte	0x4
 6176 083c F3       		.byte	0xf3
ARM GAS  C:\Users\Tim\AppData\Local\Temp\ccEK2rHG.s 			page 136


 6177 083d 01       		.uleb128 0x1
 6178 083e 51       		.byte	0x51
 6179 083f 9F       		.byte	0x9f
 6180 0840 00000000 		.4byte	0
 6181 0844 00000000 		.4byte	0
 6182              	.LLST50:
 6183 0848 00000000 		.4byte	.LVL162
 6184 084c 11000000 		.4byte	.LVL164-1
 6185 0850 0100     		.2byte	0x1
 6186 0852 52       		.byte	0x52
 6187 0853 11000000 		.4byte	.LVL164-1
 6188 0857 3C000000 		.4byte	.LVL170
 6189 085b 0100     		.2byte	0x1
 6190 085d 55       		.byte	0x55
 6191 085e 3C000000 		.4byte	.LVL170
 6192 0862 48000000 		.4byte	.LFE38
 6193 0866 0400     		.2byte	0x4
 6194 0868 F3       		.byte	0xf3
 6195 0869 01       		.uleb128 0x1
 6196 086a 52       		.byte	0x52
 6197 086b 9F       		.byte	0x9f
 6198 086c 00000000 		.4byte	0
 6199 0870 00000000 		.4byte	0
 6200              	.LLST51:
 6201 0874 00000000 		.4byte	.LVL171
 6202 0878 0C000000 		.4byte	.LVL172
 6203 087c 0100     		.2byte	0x1
 6204 087e 50       		.byte	0x50
 6205 087f 0C000000 		.4byte	.LVL172
 6206 0883 1C000000 		.4byte	.LVL175
 6207 0887 0100     		.2byte	0x1
 6208 0889 55       		.byte	0x55
 6209 088a 1C000000 		.4byte	.LVL175
 6210 088e 34000000 		.4byte	.LFE39
 6211 0892 0400     		.2byte	0x4
 6212 0894 F3       		.byte	0xf3
 6213 0895 01       		.uleb128 0x1
 6214 0896 50       		.byte	0x50
 6215 0897 9F       		.byte	0x9f
 6216 0898 00000000 		.4byte	0
 6217 089c 00000000 		.4byte	0
 6218              	.LLST52:
 6219 08a0 00000000 		.4byte	.LVL171
 6220 08a4 0F000000 		.4byte	.LVL173-1
 6221 08a8 0100     		.2byte	0x1
 6222 08aa 51       		.byte	0x51
 6223 08ab 0F000000 		.4byte	.LVL173-1
 6224 08af 1E000000 		.4byte	.LVL176
 6225 08b3 0100     		.2byte	0x1
 6226 08b5 54       		.byte	0x54
 6227 08b6 1E000000 		.4byte	.LVL176
 6228 08ba 34000000 		.4byte	.LFE39
 6229 08be 0400     		.2byte	0x4
 6230 08c0 F3       		.byte	0xf3
 6231 08c1 01       		.uleb128 0x1
 6232 08c2 51       		.byte	0x51
 6233 08c3 9F       		.byte	0x9f
ARM GAS  C:\Users\Tim\AppData\Local\Temp\ccEK2rHG.s 			page 137


 6234 08c4 00000000 		.4byte	0
 6235 08c8 00000000 		.4byte	0
 6236              	.LLST53:
 6237 08cc 00000000 		.4byte	.LVL177
 6238 08d0 0E000000 		.4byte	.LVL178
 6239 08d4 0100     		.2byte	0x1
 6240 08d6 50       		.byte	0x50
 6241 08d7 0E000000 		.4byte	.LVL178
 6242 08db 2A000000 		.4byte	.LVL182
 6243 08df 0100     		.2byte	0x1
 6244 08e1 56       		.byte	0x56
 6245 08e2 2A000000 		.4byte	.LVL182
 6246 08e6 48000000 		.4byte	.LFE40
 6247 08ea 0400     		.2byte	0x4
 6248 08ec F3       		.byte	0xf3
 6249 08ed 01       		.uleb128 0x1
 6250 08ee 50       		.byte	0x50
 6251 08ef 9F       		.byte	0x9f
 6252 08f0 00000000 		.4byte	0
 6253 08f4 00000000 		.4byte	0
 6254              	.LLST54:
 6255 08f8 00000000 		.4byte	.LVL177
 6256 08fc 11000000 		.4byte	.LVL179-1
 6257 0900 0100     		.2byte	0x1
 6258 0902 51       		.byte	0x51
 6259 0903 11000000 		.4byte	.LVL179-1
 6260 0907 2C000000 		.4byte	.LVL183
 6261 090b 0100     		.2byte	0x1
 6262 090d 54       		.byte	0x54
 6263 090e 2C000000 		.4byte	.LVL183
 6264 0912 48000000 		.4byte	.LFE40
 6265 0916 0400     		.2byte	0x4
 6266 0918 F3       		.byte	0xf3
 6267 0919 01       		.uleb128 0x1
 6268 091a 51       		.byte	0x51
 6269 091b 9F       		.byte	0x9f
 6270 091c 00000000 		.4byte	0
 6271 0920 00000000 		.4byte	0
 6272              	.LLST55:
 6273 0924 00000000 		.4byte	.LVL177
 6274 0928 11000000 		.4byte	.LVL179-1
 6275 092c 0100     		.2byte	0x1
 6276 092e 52       		.byte	0x52
 6277 092f 11000000 		.4byte	.LVL179-1
 6278 0933 3C000000 		.4byte	.LVL185
 6279 0937 0100     		.2byte	0x1
 6280 0939 55       		.byte	0x55
 6281 093a 3C000000 		.4byte	.LVL185
 6282 093e 48000000 		.4byte	.LFE40
 6283 0942 0400     		.2byte	0x4
 6284 0944 F3       		.byte	0xf3
 6285 0945 01       		.uleb128 0x1
 6286 0946 52       		.byte	0x52
 6287 0947 9F       		.byte	0x9f
 6288 0948 00000000 		.4byte	0
 6289 094c 00000000 		.4byte	0
 6290              	.LLST56:
ARM GAS  C:\Users\Tim\AppData\Local\Temp\ccEK2rHG.s 			page 138


 6291 0950 00000000 		.4byte	.LVL186
 6292 0954 0C000000 		.4byte	.LVL187
 6293 0958 0100     		.2byte	0x1
 6294 095a 50       		.byte	0x50
 6295 095b 0C000000 		.4byte	.LVL187
 6296 095f 1C000000 		.4byte	.LVL190
 6297 0963 0100     		.2byte	0x1
 6298 0965 55       		.byte	0x55
 6299 0966 1C000000 		.4byte	.LVL190
 6300 096a 34000000 		.4byte	.LFE41
 6301 096e 0400     		.2byte	0x4
 6302 0970 F3       		.byte	0xf3
 6303 0971 01       		.uleb128 0x1
 6304 0972 50       		.byte	0x50
 6305 0973 9F       		.byte	0x9f
 6306 0974 00000000 		.4byte	0
 6307 0978 00000000 		.4byte	0
 6308              	.LLST57:
 6309 097c 00000000 		.4byte	.LVL186
 6310 0980 0F000000 		.4byte	.LVL188-1
 6311 0984 0100     		.2byte	0x1
 6312 0986 51       		.byte	0x51
 6313 0987 0F000000 		.4byte	.LVL188-1
 6314 098b 1E000000 		.4byte	.LVL191
 6315 098f 0100     		.2byte	0x1
 6316 0991 54       		.byte	0x54
 6317 0992 1E000000 		.4byte	.LVL191
 6318 0996 34000000 		.4byte	.LFE41
 6319 099a 0400     		.2byte	0x4
 6320 099c F3       		.byte	0xf3
 6321 099d 01       		.uleb128 0x1
 6322 099e 51       		.byte	0x51
 6323 099f 9F       		.byte	0x9f
 6324 09a0 00000000 		.4byte	0
 6325 09a4 00000000 		.4byte	0
 6326              	.LLST58:
 6327 09a8 00000000 		.4byte	.LVL192
 6328 09ac 0E000000 		.4byte	.LVL193
 6329 09b0 0100     		.2byte	0x1
 6330 09b2 50       		.byte	0x50
 6331 09b3 0E000000 		.4byte	.LVL193
 6332 09b7 2A000000 		.4byte	.LVL197
 6333 09bb 0100     		.2byte	0x1
 6334 09bd 56       		.byte	0x56
 6335 09be 2A000000 		.4byte	.LVL197
 6336 09c2 48000000 		.4byte	.LFE42
 6337 09c6 0400     		.2byte	0x4
 6338 09c8 F3       		.byte	0xf3
 6339 09c9 01       		.uleb128 0x1
 6340 09ca 50       		.byte	0x50
 6341 09cb 9F       		.byte	0x9f
 6342 09cc 00000000 		.4byte	0
 6343 09d0 00000000 		.4byte	0
 6344              	.LLST59:
 6345 09d4 00000000 		.4byte	.LVL192
 6346 09d8 11000000 		.4byte	.LVL194-1
 6347 09dc 0100     		.2byte	0x1
ARM GAS  C:\Users\Tim\AppData\Local\Temp\ccEK2rHG.s 			page 139


 6348 09de 51       		.byte	0x51
 6349 09df 11000000 		.4byte	.LVL194-1
 6350 09e3 2C000000 		.4byte	.LVL198
 6351 09e7 0100     		.2byte	0x1
 6352 09e9 54       		.byte	0x54
 6353 09ea 2C000000 		.4byte	.LVL198
 6354 09ee 48000000 		.4byte	.LFE42
 6355 09f2 0400     		.2byte	0x4
 6356 09f4 F3       		.byte	0xf3
 6357 09f5 01       		.uleb128 0x1
 6358 09f6 51       		.byte	0x51
 6359 09f7 9F       		.byte	0x9f
 6360 09f8 00000000 		.4byte	0
 6361 09fc 00000000 		.4byte	0
 6362              	.LLST60:
 6363 0a00 00000000 		.4byte	.LVL192
 6364 0a04 11000000 		.4byte	.LVL194-1
 6365 0a08 0100     		.2byte	0x1
 6366 0a0a 52       		.byte	0x52
 6367 0a0b 11000000 		.4byte	.LVL194-1
 6368 0a0f 3C000000 		.4byte	.LVL200
 6369 0a13 0100     		.2byte	0x1
 6370 0a15 55       		.byte	0x55
 6371 0a16 3C000000 		.4byte	.LVL200
 6372 0a1a 48000000 		.4byte	.LFE42
 6373 0a1e 0400     		.2byte	0x4
 6374 0a20 F3       		.byte	0xf3
 6375 0a21 01       		.uleb128 0x1
 6376 0a22 52       		.byte	0x52
 6377 0a23 9F       		.byte	0x9f
 6378 0a24 00000000 		.4byte	0
 6379 0a28 00000000 		.4byte	0
 6380              	.LLST61:
 6381 0a2c 00000000 		.4byte	.LVL201
 6382 0a30 0C000000 		.4byte	.LVL202
 6383 0a34 0100     		.2byte	0x1
 6384 0a36 50       		.byte	0x50
 6385 0a37 0C000000 		.4byte	.LVL202
 6386 0a3b 1C000000 		.4byte	.LVL205
 6387 0a3f 0100     		.2byte	0x1
 6388 0a41 55       		.byte	0x55
 6389 0a42 1C000000 		.4byte	.LVL205
 6390 0a46 34000000 		.4byte	.LFE43
 6391 0a4a 0400     		.2byte	0x4
 6392 0a4c F3       		.byte	0xf3
 6393 0a4d 01       		.uleb128 0x1
 6394 0a4e 50       		.byte	0x50
 6395 0a4f 9F       		.byte	0x9f
 6396 0a50 00000000 		.4byte	0
 6397 0a54 00000000 		.4byte	0
 6398              	.LLST62:
 6399 0a58 00000000 		.4byte	.LVL201
 6400 0a5c 0F000000 		.4byte	.LVL203-1
 6401 0a60 0100     		.2byte	0x1
 6402 0a62 51       		.byte	0x51
 6403 0a63 0F000000 		.4byte	.LVL203-1
 6404 0a67 1E000000 		.4byte	.LVL206
ARM GAS  C:\Users\Tim\AppData\Local\Temp\ccEK2rHG.s 			page 140


 6405 0a6b 0100     		.2byte	0x1
 6406 0a6d 54       		.byte	0x54
 6407 0a6e 1E000000 		.4byte	.LVL206
 6408 0a72 34000000 		.4byte	.LFE43
 6409 0a76 0400     		.2byte	0x4
 6410 0a78 F3       		.byte	0xf3
 6411 0a79 01       		.uleb128 0x1
 6412 0a7a 51       		.byte	0x51
 6413 0a7b 9F       		.byte	0x9f
 6414 0a7c 00000000 		.4byte	0
 6415 0a80 00000000 		.4byte	0
 6416              	.LLST63:
 6417 0a84 00000000 		.4byte	.LVL207
 6418 0a88 0E000000 		.4byte	.LVL208
 6419 0a8c 0100     		.2byte	0x1
 6420 0a8e 50       		.byte	0x50
 6421 0a8f 0E000000 		.4byte	.LVL208
 6422 0a93 28000000 		.4byte	.LVL212
 6423 0a97 0100     		.2byte	0x1
 6424 0a99 56       		.byte	0x56
 6425 0a9a 28000000 		.4byte	.LVL212
 6426 0a9e 44000000 		.4byte	.LFE44
 6427 0aa2 0400     		.2byte	0x4
 6428 0aa4 F3       		.byte	0xf3
 6429 0aa5 01       		.uleb128 0x1
 6430 0aa6 50       		.byte	0x50
 6431 0aa7 9F       		.byte	0x9f
 6432 0aa8 00000000 		.4byte	0
 6433 0aac 00000000 		.4byte	0
 6434              	.LLST64:
 6435 0ab0 00000000 		.4byte	.LVL207
 6436 0ab4 11000000 		.4byte	.LVL209-1
 6437 0ab8 0100     		.2byte	0x1
 6438 0aba 51       		.byte	0x51
 6439 0abb 11000000 		.4byte	.LVL209-1
 6440 0abf 2A000000 		.4byte	.LVL213
 6441 0ac3 0100     		.2byte	0x1
 6442 0ac5 54       		.byte	0x54
 6443 0ac6 2A000000 		.4byte	.LVL213
 6444 0aca 44000000 		.4byte	.LFE44
 6445 0ace 0400     		.2byte	0x4
 6446 0ad0 F3       		.byte	0xf3
 6447 0ad1 01       		.uleb128 0x1
 6448 0ad2 51       		.byte	0x51
 6449 0ad3 9F       		.byte	0x9f
 6450 0ad4 00000000 		.4byte	0
 6451 0ad8 00000000 		.4byte	0
 6452              	.LLST65:
 6453 0adc 00000000 		.4byte	.LVL207
 6454 0ae0 11000000 		.4byte	.LVL209-1
 6455 0ae4 0100     		.2byte	0x1
 6456 0ae6 52       		.byte	0x52
 6457 0ae7 11000000 		.4byte	.LVL209-1
 6458 0aeb 3C000000 		.4byte	.LVL216
 6459 0aef 0100     		.2byte	0x1
 6460 0af1 55       		.byte	0x55
 6461 0af2 3C000000 		.4byte	.LVL216
ARM GAS  C:\Users\Tim\AppData\Local\Temp\ccEK2rHG.s 			page 141


 6462 0af6 44000000 		.4byte	.LFE44
 6463 0afa 0400     		.2byte	0x4
 6464 0afc F3       		.byte	0xf3
 6465 0afd 01       		.uleb128 0x1
 6466 0afe 52       		.byte	0x52
 6467 0aff 9F       		.byte	0x9f
 6468 0b00 00000000 		.4byte	0
 6469 0b04 00000000 		.4byte	0
 6470              	.LLST66:
 6471 0b08 38000000 		.4byte	.LVL214
 6472 0b0c 3A000000 		.4byte	.LVL215
 6473 0b10 0100     		.2byte	0x1
 6474 0b12 52       		.byte	0x52
 6475 0b13 00000000 		.4byte	0
 6476 0b17 00000000 		.4byte	0
 6477              	.LLST67:
 6478 0b1b 00000000 		.4byte	.LVL217
 6479 0b1f 0C000000 		.4byte	.LVL218
 6480 0b23 0100     		.2byte	0x1
 6481 0b25 50       		.byte	0x50
 6482 0b26 0C000000 		.4byte	.LVL218
 6483 0b2a 1C000000 		.4byte	.LVL221
 6484 0b2e 0100     		.2byte	0x1
 6485 0b30 55       		.byte	0x55
 6486 0b31 1C000000 		.4byte	.LVL221
 6487 0b35 34000000 		.4byte	.LFE45
 6488 0b39 0400     		.2byte	0x4
 6489 0b3b F3       		.byte	0xf3
 6490 0b3c 01       		.uleb128 0x1
 6491 0b3d 50       		.byte	0x50
 6492 0b3e 9F       		.byte	0x9f
 6493 0b3f 00000000 		.4byte	0
 6494 0b43 00000000 		.4byte	0
 6495              	.LLST68:
 6496 0b47 00000000 		.4byte	.LVL217
 6497 0b4b 0F000000 		.4byte	.LVL219-1
 6498 0b4f 0100     		.2byte	0x1
 6499 0b51 51       		.byte	0x51
 6500 0b52 0F000000 		.4byte	.LVL219-1
 6501 0b56 1E000000 		.4byte	.LVL222
 6502 0b5a 0100     		.2byte	0x1
 6503 0b5c 54       		.byte	0x54
 6504 0b5d 1E000000 		.4byte	.LVL222
 6505 0b61 34000000 		.4byte	.LFE45
 6506 0b65 0400     		.2byte	0x4
 6507 0b67 F3       		.byte	0xf3
 6508 0b68 01       		.uleb128 0x1
 6509 0b69 51       		.byte	0x51
 6510 0b6a 9F       		.byte	0x9f
 6511 0b6b 00000000 		.4byte	0
 6512 0b6f 00000000 		.4byte	0
 6513              	.LLST69:
 6514 0b73 00000000 		.4byte	.LVL223
 6515 0b77 0E000000 		.4byte	.LVL224
 6516 0b7b 0100     		.2byte	0x1
 6517 0b7d 50       		.byte	0x50
 6518 0b7e 0E000000 		.4byte	.LVL224
ARM GAS  C:\Users\Tim\AppData\Local\Temp\ccEK2rHG.s 			page 142


 6519 0b82 2A000000 		.4byte	.LVL228
 6520 0b86 0100     		.2byte	0x1
 6521 0b88 56       		.byte	0x56
 6522 0b89 2A000000 		.4byte	.LVL228
 6523 0b8d 48000000 		.4byte	.LFE46
 6524 0b91 0400     		.2byte	0x4
 6525 0b93 F3       		.byte	0xf3
 6526 0b94 01       		.uleb128 0x1
 6527 0b95 50       		.byte	0x50
 6528 0b96 9F       		.byte	0x9f
 6529 0b97 00000000 		.4byte	0
 6530 0b9b 00000000 		.4byte	0
 6531              	.LLST70:
 6532 0b9f 00000000 		.4byte	.LVL223
 6533 0ba3 11000000 		.4byte	.LVL225-1
 6534 0ba7 0100     		.2byte	0x1
 6535 0ba9 51       		.byte	0x51
 6536 0baa 11000000 		.4byte	.LVL225-1
 6537 0bae 2C000000 		.4byte	.LVL229
 6538 0bb2 0100     		.2byte	0x1
 6539 0bb4 54       		.byte	0x54
 6540 0bb5 2C000000 		.4byte	.LVL229
 6541 0bb9 48000000 		.4byte	.LFE46
 6542 0bbd 0400     		.2byte	0x4
 6543 0bbf F3       		.byte	0xf3
 6544 0bc0 01       		.uleb128 0x1
 6545 0bc1 51       		.byte	0x51
 6546 0bc2 9F       		.byte	0x9f
 6547 0bc3 00000000 		.4byte	0
 6548 0bc7 00000000 		.4byte	0
 6549              	.LLST71:
 6550 0bcb 00000000 		.4byte	.LVL223
 6551 0bcf 11000000 		.4byte	.LVL225-1
 6552 0bd3 0100     		.2byte	0x1
 6553 0bd5 52       		.byte	0x52
 6554 0bd6 11000000 		.4byte	.LVL225-1
 6555 0bda 3C000000 		.4byte	.LVL231
 6556 0bde 0100     		.2byte	0x1
 6557 0be0 55       		.byte	0x55
 6558 0be1 3C000000 		.4byte	.LVL231
 6559 0be5 48000000 		.4byte	.LFE46
 6560 0be9 0400     		.2byte	0x4
 6561 0beb F3       		.byte	0xf3
 6562 0bec 01       		.uleb128 0x1
 6563 0bed 52       		.byte	0x52
 6564 0bee 9F       		.byte	0x9f
 6565 0bef 00000000 		.4byte	0
 6566 0bf3 00000000 		.4byte	0
 6567              	.LLST72:
 6568 0bf7 00000000 		.4byte	.LVL232
 6569 0bfb 0C000000 		.4byte	.LVL233
 6570 0bff 0100     		.2byte	0x1
 6571 0c01 50       		.byte	0x50
 6572 0c02 0C000000 		.4byte	.LVL233
 6573 0c06 1C000000 		.4byte	.LVL236
 6574 0c0a 0100     		.2byte	0x1
 6575 0c0c 55       		.byte	0x55
ARM GAS  C:\Users\Tim\AppData\Local\Temp\ccEK2rHG.s 			page 143


 6576 0c0d 1C000000 		.4byte	.LVL236
 6577 0c11 34000000 		.4byte	.LFE47
 6578 0c15 0400     		.2byte	0x4
 6579 0c17 F3       		.byte	0xf3
 6580 0c18 01       		.uleb128 0x1
 6581 0c19 50       		.byte	0x50
 6582 0c1a 9F       		.byte	0x9f
 6583 0c1b 00000000 		.4byte	0
 6584 0c1f 00000000 		.4byte	0
 6585              	.LLST73:
 6586 0c23 00000000 		.4byte	.LVL232
 6587 0c27 0F000000 		.4byte	.LVL234-1
 6588 0c2b 0100     		.2byte	0x1
 6589 0c2d 51       		.byte	0x51
 6590 0c2e 0F000000 		.4byte	.LVL234-1
 6591 0c32 1E000000 		.4byte	.LVL237
 6592 0c36 0100     		.2byte	0x1
 6593 0c38 54       		.byte	0x54
 6594 0c39 1E000000 		.4byte	.LVL237
 6595 0c3d 34000000 		.4byte	.LFE47
 6596 0c41 0400     		.2byte	0x4
 6597 0c43 F3       		.byte	0xf3
 6598 0c44 01       		.uleb128 0x1
 6599 0c45 51       		.byte	0x51
 6600 0c46 9F       		.byte	0x9f
 6601 0c47 00000000 		.4byte	0
 6602 0c4b 00000000 		.4byte	0
 6603              	.LLST74:
 6604 0c4f 00000000 		.4byte	.LVL238
 6605 0c53 0E000000 		.4byte	.LVL239
 6606 0c57 0100     		.2byte	0x1
 6607 0c59 50       		.byte	0x50
 6608 0c5a 0E000000 		.4byte	.LVL239
 6609 0c5e 2A000000 		.4byte	.LVL243
 6610 0c62 0100     		.2byte	0x1
 6611 0c64 56       		.byte	0x56
 6612 0c65 2A000000 		.4byte	.LVL243
 6613 0c69 48000000 		.4byte	.LFE48
 6614 0c6d 0400     		.2byte	0x4
 6615 0c6f F3       		.byte	0xf3
 6616 0c70 01       		.uleb128 0x1
 6617 0c71 50       		.byte	0x50
 6618 0c72 9F       		.byte	0x9f
 6619 0c73 00000000 		.4byte	0
 6620 0c77 00000000 		.4byte	0
 6621              	.LLST75:
 6622 0c7b 00000000 		.4byte	.LVL238
 6623 0c7f 11000000 		.4byte	.LVL240-1
 6624 0c83 0100     		.2byte	0x1
 6625 0c85 51       		.byte	0x51
 6626 0c86 11000000 		.4byte	.LVL240-1
 6627 0c8a 2C000000 		.4byte	.LVL244
 6628 0c8e 0100     		.2byte	0x1
 6629 0c90 54       		.byte	0x54
 6630 0c91 2C000000 		.4byte	.LVL244
 6631 0c95 48000000 		.4byte	.LFE48
 6632 0c99 0400     		.2byte	0x4
ARM GAS  C:\Users\Tim\AppData\Local\Temp\ccEK2rHG.s 			page 144


 6633 0c9b F3       		.byte	0xf3
 6634 0c9c 01       		.uleb128 0x1
 6635 0c9d 51       		.byte	0x51
 6636 0c9e 9F       		.byte	0x9f
 6637 0c9f 00000000 		.4byte	0
 6638 0ca3 00000000 		.4byte	0
 6639              	.LLST76:
 6640 0ca7 00000000 		.4byte	.LVL238
 6641 0cab 11000000 		.4byte	.LVL240-1
 6642 0caf 0100     		.2byte	0x1
 6643 0cb1 52       		.byte	0x52
 6644 0cb2 11000000 		.4byte	.LVL240-1
 6645 0cb6 3C000000 		.4byte	.LVL246
 6646 0cba 0100     		.2byte	0x1
 6647 0cbc 55       		.byte	0x55
 6648 0cbd 3C000000 		.4byte	.LVL246
 6649 0cc1 48000000 		.4byte	.LFE48
 6650 0cc5 0400     		.2byte	0x4
 6651 0cc7 F3       		.byte	0xf3
 6652 0cc8 01       		.uleb128 0x1
 6653 0cc9 52       		.byte	0x52
 6654 0cca 9F       		.byte	0x9f
 6655 0ccb 00000000 		.4byte	0
 6656 0ccf 00000000 		.4byte	0
 6657              	.LLST77:
 6658 0cd3 00000000 		.4byte	.LVL247
 6659 0cd7 0C000000 		.4byte	.LVL248
 6660 0cdb 0100     		.2byte	0x1
 6661 0cdd 50       		.byte	0x50
 6662 0cde 0C000000 		.4byte	.LVL248
 6663 0ce2 1C000000 		.4byte	.LVL251
 6664 0ce6 0100     		.2byte	0x1
 6665 0ce8 55       		.byte	0x55
 6666 0ce9 1C000000 		.4byte	.LVL251
 6667 0ced 34000000 		.4byte	.LFE49
 6668 0cf1 0400     		.2byte	0x4
 6669 0cf3 F3       		.byte	0xf3
 6670 0cf4 01       		.uleb128 0x1
 6671 0cf5 50       		.byte	0x50
 6672 0cf6 9F       		.byte	0x9f
 6673 0cf7 00000000 		.4byte	0
 6674 0cfb 00000000 		.4byte	0
 6675              	.LLST78:
 6676 0cff 00000000 		.4byte	.LVL247
 6677 0d03 0F000000 		.4byte	.LVL249-1
 6678 0d07 0100     		.2byte	0x1
 6679 0d09 51       		.byte	0x51
 6680 0d0a 0F000000 		.4byte	.LVL249-1
 6681 0d0e 1E000000 		.4byte	.LVL252
 6682 0d12 0100     		.2byte	0x1
 6683 0d14 54       		.byte	0x54
 6684 0d15 1E000000 		.4byte	.LVL252
 6685 0d19 34000000 		.4byte	.LFE49
 6686 0d1d 0400     		.2byte	0x4
 6687 0d1f F3       		.byte	0xf3
 6688 0d20 01       		.uleb128 0x1
 6689 0d21 51       		.byte	0x51
ARM GAS  C:\Users\Tim\AppData\Local\Temp\ccEK2rHG.s 			page 145


 6690 0d22 9F       		.byte	0x9f
 6691 0d23 00000000 		.4byte	0
 6692 0d27 00000000 		.4byte	0
 6693              		.section	.debug_aranges,"",%progbits
 6694 0000 94010000 		.4byte	0x194
 6695 0004 0200     		.2byte	0x2
 6696 0006 00000000 		.4byte	.Ldebug_info0
 6697 000a 04       		.byte	0x4
 6698 000b 00       		.byte	0
 6699 000c 0000     		.2byte	0
 6700 000e 0000     		.2byte	0
 6701 0010 00000000 		.4byte	.LFB16
 6702 0014 30000000 		.4byte	.LFE16-.LFB16
 6703 0018 00000000 		.4byte	.LFB17
 6704 001c 0A000000 		.4byte	.LFE17-.LFB17
 6705 0020 00000000 		.4byte	.LFB3
 6706 0024 10000000 		.4byte	.LFE3-.LFB3
 6707 0028 00000000 		.4byte	.LFB4
 6708 002c 0C000000 		.4byte	.LFE4-.LFB4
 6709 0030 00000000 		.4byte	.LFB5
 6710 0034 0C000000 		.4byte	.LFE5-.LFB5
 6711 0038 00000000 		.4byte	.LFB6
 6712 003c 0C000000 		.4byte	.LFE6-.LFB6
 6713 0040 00000000 		.4byte	.LFB7
 6714 0044 0C000000 		.4byte	.LFE7-.LFB7
 6715 0048 00000000 		.4byte	.LFB8
 6716 004c 0C000000 		.4byte	.LFE8-.LFB8
 6717 0050 00000000 		.4byte	.LFB2
 6718 0054 34000000 		.4byte	.LFE2-.LFB2
 6719 0058 00000000 		.4byte	.LFB9
 6720 005c 0C000000 		.4byte	.LFE9-.LFB9
 6721 0060 00000000 		.4byte	.LFB10
 6722 0064 0C000000 		.4byte	.LFE10-.LFB10
 6723 0068 00000000 		.4byte	.LFB11
 6724 006c 0C000000 		.4byte	.LFE11-.LFB11
 6725 0070 00000000 		.4byte	.LFB12
 6726 0074 0C000000 		.4byte	.LFE12-.LFB12
 6727 0078 00000000 		.4byte	.LFB13
 6728 007c 0C000000 		.4byte	.LFE13-.LFB13
 6729 0080 00000000 		.4byte	.LFB14
 6730 0084 20000000 		.4byte	.LFE14-.LFB14
 6731 0088 00000000 		.4byte	.LFB15
 6732 008c 1C000000 		.4byte	.LFE15-.LFB15
 6733 0090 00000000 		.4byte	.LFB18
 6734 0094 28000000 		.4byte	.LFE18-.LFB18
 6735 0098 00000000 		.4byte	.LFB19
 6736 009c 24000000 		.4byte	.LFE19-.LFB19
 6737 00a0 00000000 		.4byte	.LFB20
 6738 00a4 24000000 		.4byte	.LFE20-.LFB20
 6739 00a8 00000000 		.4byte	.LFB21
 6740 00ac 20000000 		.4byte	.LFE21-.LFB21
 6741 00b0 00000000 		.4byte	.LFB22
 6742 00b4 2C000000 		.4byte	.LFE22-.LFB22
 6743 00b8 00000000 		.4byte	.LFB23
 6744 00bc 34000000 		.4byte	.LFE23-.LFB23
 6745 00c0 00000000 		.4byte	.LFB24
 6746 00c4 20000000 		.4byte	.LFE24-.LFB24
ARM GAS  C:\Users\Tim\AppData\Local\Temp\ccEK2rHG.s 			page 146


 6747 00c8 00000000 		.4byte	.LFB25
 6748 00cc 34000000 		.4byte	.LFE25-.LFB25
 6749 00d0 00000000 		.4byte	.LFB26
 6750 00d4 20000000 		.4byte	.LFE26-.LFB26
 6751 00d8 00000000 		.4byte	.LFB27
 6752 00dc E4000000 		.4byte	.LFE27-.LFB27
 6753 00e0 00000000 		.4byte	.LFB28
 6754 00e4 34000000 		.4byte	.LFE28-.LFB28
 6755 00e8 00000000 		.4byte	.LFB29
 6756 00ec 30000000 		.4byte	.LFE29-.LFB29
 6757 00f0 00000000 		.4byte	.LFB30
 6758 00f4 2C000000 		.4byte	.LFE30-.LFB30
 6759 00f8 00000000 		.4byte	.LFB31
 6760 00fc 2C000000 		.4byte	.LFE31-.LFB31
 6761 0100 00000000 		.4byte	.LFB32
 6762 0104 30000000 		.4byte	.LFE32-.LFB32
 6763 0108 00000000 		.4byte	.LFB33
 6764 010c 30000000 		.4byte	.LFE33-.LFB33
 6765 0110 00000000 		.4byte	.LFB34
 6766 0114 48000000 		.4byte	.LFE34-.LFB34
 6767 0118 00000000 		.4byte	.LFB35
 6768 011c 34000000 		.4byte	.LFE35-.LFB35
 6769 0120 00000000 		.4byte	.LFB36
 6770 0124 4C000000 		.4byte	.LFE36-.LFB36
 6771 0128 00000000 		.4byte	.LFB37
 6772 012c 34000000 		.4byte	.LFE37-.LFB37
 6773 0130 00000000 		.4byte	.LFB38
 6774 0134 48000000 		.4byte	.LFE38-.LFB38
 6775 0138 00000000 		.4byte	.LFB39
 6776 013c 34000000 		.4byte	.LFE39-.LFB39
 6777 0140 00000000 		.4byte	.LFB40
 6778 0144 48000000 		.4byte	.LFE40-.LFB40
 6779 0148 00000000 		.4byte	.LFB41
 6780 014c 34000000 		.4byte	.LFE41-.LFB41
 6781 0150 00000000 		.4byte	.LFB42
 6782 0154 48000000 		.4byte	.LFE42-.LFB42
 6783 0158 00000000 		.4byte	.LFB43
 6784 015c 34000000 		.4byte	.LFE43-.LFB43
 6785 0160 00000000 		.4byte	.LFB44
 6786 0164 44000000 		.4byte	.LFE44-.LFB44
 6787 0168 00000000 		.4byte	.LFB45
 6788 016c 34000000 		.4byte	.LFE45-.LFB45
 6789 0170 00000000 		.4byte	.LFB46
 6790 0174 48000000 		.4byte	.LFE46-.LFB46
 6791 0178 00000000 		.4byte	.LFB47
 6792 017c 34000000 		.4byte	.LFE47-.LFB47
 6793 0180 00000000 		.4byte	.LFB48
 6794 0184 48000000 		.4byte	.LFE48-.LFB48
 6795 0188 00000000 		.4byte	.LFB49
 6796 018c 34000000 		.4byte	.LFE49-.LFB49
 6797 0190 00000000 		.4byte	0
 6798 0194 00000000 		.4byte	0
 6799              		.section	.debug_ranges,"",%progbits
 6800              	.Ldebug_ranges0:
 6801 0000 00000000 		.4byte	.LFB16
 6802 0004 30000000 		.4byte	.LFE16
 6803 0008 00000000 		.4byte	.LFB17
ARM GAS  C:\Users\Tim\AppData\Local\Temp\ccEK2rHG.s 			page 147


 6804 000c 0A000000 		.4byte	.LFE17
 6805 0010 00000000 		.4byte	.LFB3
 6806 0014 10000000 		.4byte	.LFE3
 6807 0018 00000000 		.4byte	.LFB4
 6808 001c 0C000000 		.4byte	.LFE4
 6809 0020 00000000 		.4byte	.LFB5
 6810 0024 0C000000 		.4byte	.LFE5
 6811 0028 00000000 		.4byte	.LFB6
 6812 002c 0C000000 		.4byte	.LFE6
 6813 0030 00000000 		.4byte	.LFB7
 6814 0034 0C000000 		.4byte	.LFE7
 6815 0038 00000000 		.4byte	.LFB8
 6816 003c 0C000000 		.4byte	.LFE8
 6817 0040 00000000 		.4byte	.LFB2
 6818 0044 34000000 		.4byte	.LFE2
 6819 0048 00000000 		.4byte	.LFB9
 6820 004c 0C000000 		.4byte	.LFE9
 6821 0050 00000000 		.4byte	.LFB10
 6822 0054 0C000000 		.4byte	.LFE10
 6823 0058 00000000 		.4byte	.LFB11
 6824 005c 0C000000 		.4byte	.LFE11
 6825 0060 00000000 		.4byte	.LFB12
 6826 0064 0C000000 		.4byte	.LFE12
 6827 0068 00000000 		.4byte	.LFB13
 6828 006c 0C000000 		.4byte	.LFE13
 6829 0070 00000000 		.4byte	.LFB14
 6830 0074 20000000 		.4byte	.LFE14
 6831 0078 00000000 		.4byte	.LFB15
 6832 007c 1C000000 		.4byte	.LFE15
 6833 0080 00000000 		.4byte	.LFB18
 6834 0084 28000000 		.4byte	.LFE18
 6835 0088 00000000 		.4byte	.LFB19
 6836 008c 24000000 		.4byte	.LFE19
 6837 0090 00000000 		.4byte	.LFB20
 6838 0094 24000000 		.4byte	.LFE20
 6839 0098 00000000 		.4byte	.LFB21
 6840 009c 20000000 		.4byte	.LFE21
 6841 00a0 00000000 		.4byte	.LFB22
 6842 00a4 2C000000 		.4byte	.LFE22
 6843 00a8 00000000 		.4byte	.LFB23
 6844 00ac 34000000 		.4byte	.LFE23
 6845 00b0 00000000 		.4byte	.LFB24
 6846 00b4 20000000 		.4byte	.LFE24
 6847 00b8 00000000 		.4byte	.LFB25
 6848 00bc 34000000 		.4byte	.LFE25
 6849 00c0 00000000 		.4byte	.LFB26
 6850 00c4 20000000 		.4byte	.LFE26
 6851 00c8 00000000 		.4byte	.LFB27
 6852 00cc E4000000 		.4byte	.LFE27
 6853 00d0 00000000 		.4byte	.LFB28
 6854 00d4 34000000 		.4byte	.LFE28
 6855 00d8 00000000 		.4byte	.LFB29
 6856 00dc 30000000 		.4byte	.LFE29
 6857 00e0 00000000 		.4byte	.LFB30
 6858 00e4 2C000000 		.4byte	.LFE30
 6859 00e8 00000000 		.4byte	.LFB31
 6860 00ec 2C000000 		.4byte	.LFE31
ARM GAS  C:\Users\Tim\AppData\Local\Temp\ccEK2rHG.s 			page 148


 6861 00f0 00000000 		.4byte	.LFB32
 6862 00f4 30000000 		.4byte	.LFE32
 6863 00f8 00000000 		.4byte	.LFB33
 6864 00fc 30000000 		.4byte	.LFE33
 6865 0100 00000000 		.4byte	.LFB34
 6866 0104 48000000 		.4byte	.LFE34
 6867 0108 00000000 		.4byte	.LFB35
 6868 010c 34000000 		.4byte	.LFE35
 6869 0110 00000000 		.4byte	.LFB36
 6870 0114 4C000000 		.4byte	.LFE36
 6871 0118 00000000 		.4byte	.LFB37
 6872 011c 34000000 		.4byte	.LFE37
 6873 0120 00000000 		.4byte	.LFB38
 6874 0124 48000000 		.4byte	.LFE38
 6875 0128 00000000 		.4byte	.LFB39
 6876 012c 34000000 		.4byte	.LFE39
 6877 0130 00000000 		.4byte	.LFB40
 6878 0134 48000000 		.4byte	.LFE40
 6879 0138 00000000 		.4byte	.LFB41
 6880 013c 34000000 		.4byte	.LFE41
 6881 0140 00000000 		.4byte	.LFB42
 6882 0144 48000000 		.4byte	.LFE42
 6883 0148 00000000 		.4byte	.LFB43
 6884 014c 34000000 		.4byte	.LFE43
 6885 0150 00000000 		.4byte	.LFB44
 6886 0154 44000000 		.4byte	.LFE44
 6887 0158 00000000 		.4byte	.LFB45
 6888 015c 34000000 		.4byte	.LFE45
 6889 0160 00000000 		.4byte	.LFB46
 6890 0164 48000000 		.4byte	.LFE46
 6891 0168 00000000 		.4byte	.LFB47
 6892 016c 34000000 		.4byte	.LFE47
 6893 0170 00000000 		.4byte	.LFB48
 6894 0174 48000000 		.4byte	.LFE48
 6895 0178 00000000 		.4byte	.LFB49
 6896 017c 34000000 		.4byte	.LFE49
 6897 0180 00000000 		.4byte	0
 6898 0184 00000000 		.4byte	0
 6899              		.section	.debug_line,"",%progbits
 6900              	.Ldebug_line0:
 6901 0000 4D060000 		.section	.debug_str,"MS",%progbits,1
 6901      02005A00 
 6901      00000201 
 6901      FB0E0D00 
 6901      01010101 
 6902              	.LASF41:
 6903 0000 4379446D 		.ascii	"CyDmaSetInterruptVector\000"
 6903      61536574 
 6903      496E7465 
 6903      72727570 
 6903      74566563 
 6904              	.LASF77:
 6905 0018 4379446D 		.ascii	"CyDmaGetSrcAddress\000"
 6905      61476574 
 6905      53726341 
 6905      64647265 
 6905      737300
ARM GAS  C:\Users\Tim\AppData\Local\Temp\ccEK2rHG.s 			page 149


 6906              	.LASF38:
 6907 002b 4379446D 		.ascii	"CyDmaGetActiveSrcAddress\000"
 6907      61476574 
 6907      41637469 
 6907      76655372 
 6907      63416464 
 6908              	.LASF61:
 6909 0044 4379446D 		.ascii	"CyDmaChDisable\000"
 6909      61436844 
 6909      69736162 
 6909      6C6500
 6910              	.LASF78:
 6911 0053 4379446D 		.ascii	"CyDmaSetDstAddress\000"
 6911      61536574 
 6911      44737441 
 6911      64647265 
 6911      737300
 6912              	.LASF60:
 6913 0066 4379446D 		.ascii	"CyDmaChEnable\000"
 6913      61436845 
 6913      6E61626C 
 6913      6500
 6914              	.LASF35:
 6915 0074 63624964 		.ascii	"cbIdx\000"
 6915      7800
 6916              	.LASF67:
 6917 007a 4379446D 		.ascii	"CyDmaGetPriority\000"
 6917      61476574 
 6917      5072696F 
 6917      72697479 
 6917      00
 6918              	.LASF7:
 6919 008b 6C6F6E67 		.ascii	"long long unsigned int\000"
 6919      206C6F6E 
 6919      6720756E 
 6919      7369676E 
 6919      65642069 
 6920              	.LASF46:
 6921 00a2 696E7465 		.ascii	"interruptVector\000"
 6921      72727570 
 6921      74566563 
 6921      746F7200 
 6922              	.LASF71:
 6923 00b2 4379446D 		.ascii	"CyDmaSetConfiguration\000"
 6923      61536574 
 6923      436F6E66 
 6923      69677572 
 6923      6174696F 
 6924              	.LASF63:
 6925 00c8 74724374 		.ascii	"trCtlLut\000"
 6925      6C4C7574 
 6925      00
 6926              	.LASF6:
 6927 00d1 6C6F6E67 		.ascii	"long long int\000"
 6927      206C6F6E 
 6927      6720696E 
 6927      7400
ARM GAS  C:\Users\Tim\AppData\Local\Temp\ccEK2rHG.s 			page 150


 6928              	.LASF0:
 6929 00df 7369676E 		.ascii	"signed char\000"
 6929      65642063 
 6929      68617200 
 6930              	.LASF84:
 6931 00eb 4379446D 		.ascii	"CyDmaGetNumDataElements\000"
 6931      61476574 
 6931      4E756D44 
 6931      61746145 
 6931      6C656D65 
 6932              	.LASF11:
 6933 0103 696E7433 		.ascii	"int32\000"
 6933      3200
 6934              	.LASF69:
 6935 0109 4379446D 		.ascii	"CyDmaGetNextDescriptor\000"
 6935      61476574 
 6935      4E657874 
 6935      44657363 
 6935      72697074 
 6936              	.LASF4:
 6937 0120 6C6F6E67 		.ascii	"long int\000"
 6937      20696E74 
 6937      00
 6938              	.LASF19:
 6939 0129 6379646D 		.ascii	"cydma_channel_ctl_struct\000"
 6939      615F6368 
 6939      616E6E65 
 6939      6C5F6374 
 6939      6C5F7374 
 6940              	.LASF75:
 6941 0142 4379446D 		.ascii	"CyDmaSetSrcAddress\000"
 6941      61536574 
 6941      53726341 
 6941      64647265 
 6941      737300
 6942              	.LASF43:
 6943 0155 696E6974 		.ascii	"initIntrVector\000"
 6943      496E7472 
 6943      56656374 
 6943      6F7200
 6944              	.LASF55:
 6945 0164 4379446D 		.ascii	"CyDmaGetInterruptCallback\000"
 6945      61476574 
 6945      496E7465 
 6945      72727570 
 6945      7443616C 
 6946              	.LASF25:
 6947 017e 6E756D44 		.ascii	"numDataElements\000"
 6947      61746145 
 6947      6C656D65 
 6947      6E747300 
 6948              	.LASF9:
 6949 018e 75696E74 		.ascii	"uint8\000"
 6949      3800
 6950              	.LASF105:
 6951 0194 4379446D 		.ascii	"CyDmaDisable\000"
 6951      61446973 
ARM GAS  C:\Users\Tim\AppData\Local\Temp\ccEK2rHG.s 			page 151


 6951      61626C65 
 6951      00
 6952              	.LASF59:
 6953 01a1 72657375 		.ascii	"result\000"
 6953      6C7400
 6954              	.LASF13:
 6955 01a8 646F7562 		.ascii	"double\000"
 6955      6C6500
 6956              	.LASF88:
 6957 01af 4379446D 		.ascii	"CyDmaGetSrcDstTransferWidth\000"
 6957      61476574 
 6957      53726344 
 6957      73745472 
 6957      616E7366 
 6958              	.LASF10:
 6959 01cb 75696E74 		.ascii	"uint32\000"
 6959      333200
 6960              	.LASF28:
 6961 01d2 74726967 		.ascii	"triggerType\000"
 6961      67657254 
 6961      79706500 
 6962              	.LASF53:
 6963 01de 70726576 		.ascii	"prevCallback\000"
 6963      43616C6C 
 6963      6261636B 
 6963      00
 6964              	.LASF66:
 6965 01eb 72656756 		.ascii	"regValue\000"
 6965      616C7565 
 6965      00
 6966              	.LASF48:
 6967 01f4 4379446D 		.ascii	"CyDmaSetInterruptSourceMask\000"
 6967      61536574 
 6967      496E7465 
 6967      72727570 
 6967      74536F75 
 6968              	.LASF32:
 6969 0210 6379646D 		.ascii	"cydma_init_struct\000"
 6969      615F696E 
 6969      69745F73 
 6969      74727563 
 6969      7400
 6970              	.LASF103:
 6971 0222 443A5C44 		.ascii	"D:\\Documents\\PSoC Creator\\IdeaArlobot\\SingleBoa"
 6971      6F63756D 
 6971      656E7473 
 6971      5C50536F 
 6971      43204372 
 6972 0251 72644465 		.ascii	"rdDesign-046.cydsn\000"
 6972      7369676E 
 6972      2D303436 
 6972      2E637964 
 6972      736E00
 6973              	.LASF68:
 6974 0264 4379446D 		.ascii	"CyDmaSetNextDescriptor\000"
 6974      61536574 
 6974      4E657874 
ARM GAS  C:\Users\Tim\AppData\Local\Temp\ccEK2rHG.s 			page 152


 6974      44657363 
 6974      72697074 
 6975              	.LASF29:
 6976 027b 7472616E 		.ascii	"transferMode\000"
 6976      73666572 
 6976      4D6F6465 
 6976      00
 6977              	.LASF8:
 6978 0288 756E7369 		.ascii	"unsigned int\000"
 6978      676E6564 
 6978      20696E74 
 6978      00
 6979              	.LASF37:
 6980 0295 4379446D 		.ascii	"CyDmaGetActiveChannels\000"
 6980      61476574 
 6980      41637469 
 6980      76654368 
 6980      616E6E65 
 6981              	.LASF5:
 6982 02ac 6C6F6E67 		.ascii	"long unsigned int\000"
 6982      20756E73 
 6982      69676E65 
 6982      6420696E 
 6982      7400
 6983              	.LASF79:
 6984 02be 64737441 		.ascii	"dstAddress\000"
 6984      64647265 
 6984      737300
 6985              	.LASF3:
 6986 02c9 73686F72 		.ascii	"short unsigned int\000"
 6986      7420756E 
 6986      7369676E 
 6986      65642069 
 6986      6E7400
 6987              	.LASF98:
 6988 02dc 4379446D 		.ascii	"CyDmaGetPostCompletionActions\000"
 6988      61476574 
 6988      506F7374 
 6988      436F6D70 
 6988      6C657469 
 6989              	.LASF107:
 6990 02fa 4379496E 		.ascii	"CyIntSetVector\000"
 6990      74536574 
 6990      56656374 
 6990      6F7200
 6991              	.LASF90:
 6992 0309 4379446D 		.ascii	"CyDmaGetAddressIncrement\000"
 6992      61476574 
 6992      41646472 
 6992      65737349 
 6992      6E637265 
 6993              	.LASF52:
 6994 0322 63616C6C 		.ascii	"callback\000"
 6994      6261636B 
 6994      00
 6995              	.LASF65:
 6996 032b 7072696F 		.ascii	"priority\000"
ARM GAS  C:\Users\Tim\AppData\Local\Temp\ccEK2rHG.s 			page 153


 6996      72697479 
 6996      00
 6997              	.LASF89:
 6998 0334 4379446D 		.ascii	"CyDmaSetAddressIncrement\000"
 6998      61536574 
 6998      41646472 
 6998      65737349 
 6998      6E637265 
 6999              	.LASF96:
 7000 034d 4379446D 		.ascii	"CyDmaGetPreemptable\000"
 7000      61476574 
 7000      50726565 
 7000      6D707461 
 7000      626C6500 
 7001              	.LASF102:
 7002 0361 2E5C4765 		.ascii	".\\Generated_Source\\PSoC4\\CyDMA.c\000"
 7002      6E657261 
 7002      7465645F 
 7002      536F7572 
 7002      63655C50 
 7003              	.LASF108:
 7004 0382 4379496E 		.ascii	"CyIntSetPriority\000"
 7004      74536574 
 7004      5072696F 
 7004      72697479 
 7004      00
 7005              	.LASF16:
 7006 0393 72656733 		.ascii	"reg32\000"
 7006      3200
 7007              	.LASF94:
 7008 0399 4379446D 		.ascii	"CyDmaGetTransferMode\000"
 7008      61476574 
 7008      5472616E 
 7008      73666572 
 7008      4D6F6465 
 7009              	.LASF97:
 7010 03ae 4379446D 		.ascii	"CyDmaSetPostCompletionActions\000"
 7010      61536574 
 7010      506F7374 
 7010      436F6D70 
 7010      6C657469 
 7011              	.LASF18:
 7012 03cc 73697A65 		.ascii	"sizetype\000"
 7012      74797065 
 7012      00
 7013              	.LASF34:
 7014 03d5 696E7472 		.ascii	"intr\000"
 7014      00
 7015              	.LASF104:
 7016 03da 4379446D 		.ascii	"CyDmaDefaultInterruptCallback\000"
 7016      61446566 
 7016      61756C74 
 7016      496E7465 
 7016      72727570 
 7017              	.LASF85:
 7018 03f8 6E756D45 		.ascii	"numElements\000"
 7018      6C656D65 
ARM GAS  C:\Users\Tim\AppData\Local\Temp\ccEK2rHG.s 			page 154


 7018      6E747300 
 7019              	.LASF40:
 7020 0404 4379446D 		.ascii	"CyDmaInterrupt\000"
 7020      61496E74 
 7020      65727275 
 7020      707400
 7021              	.LASF76:
 7022 0413 73726341 		.ascii	"srcAddress\000"
 7022      64647265 
 7022      737300
 7023              	.LASF74:
 7024 041e 4379446D 		.ascii	"CyDmaGetDescriptorStatus\000"
 7024      61476574 
 7024      44657363 
 7024      72697074 
 7024      6F725374 
 7025              	.LASF54:
 7026 0437 4379446D 		.ascii	"CyDmaSetInterruptCallback\000"
 7026      61536574 
 7026      496E7465 
 7026      72727570 
 7026      7443616C 
 7027              	.LASF44:
 7028 0451 4379446D 		.ascii	"CyDmaGetInterruptSource\000"
 7028      61476574 
 7028      496E7465 
 7028      72727570 
 7028      74536F75 
 7029              	.LASF26:
 7030 0469 73726344 		.ascii	"srcDstTransferWidth\000"
 7030      73745472 
 7030      616E7366 
 7030      65725769 
 7030      64746800 
 7031              	.LASF81:
 7032 047d 4379446D 		.ascii	"CyDmaSetDataElementSize\000"
 7032      61536574 
 7032      44617461 
 7032      456C656D 
 7032      656E7453 
 7033              	.LASF101:
 7034 0495 474E5520 		.ascii	"GNU C 4.9.3 20150303 (release) [ARM/embedded-4_9-br"
 7034      4320342E 
 7034      392E3320 
 7034      32303135 
 7034      30333033 
 7035 04c8 616E6368 		.ascii	"anch revision 221220] -mcpu=cortex-m0 -mthumb -g -O"
 7035      20726576 
 7035      6973696F 
 7035      6E203232 
 7035      31323230 
 7036 04fb 67202D66 		.ascii	"g -ffunction-sections -ffat-lto-objects\000"
 7036      66756E63 
 7036      74696F6E 
 7036      2D736563 
 7036      74696F6E 
 7037              	.LASF64:
ARM GAS  C:\Users\Tim\AppData\Local\Temp\ccEK2rHG.s 			page 155


 7038 0523 4379446D 		.ascii	"CyDmaSetPriority\000"
 7038      61536574 
 7038      5072696F 
 7038      72697479 
 7038      00
 7039              	.LASF24:
 7040 0534 64617461 		.ascii	"dataElementSize\000"
 7040      456C656D 
 7040      656E7453 
 7040      697A6500 
 7041              	.LASF12:
 7042 0544 666C6F61 		.ascii	"float\000"
 7042      7400
 7043              	.LASF33:
 7044 054a 6379646D 		.ascii	"cydma_callback_t\000"
 7044      615F6361 
 7044      6C6C6261 
 7044      636B5F74 
 7044      00
 7045              	.LASF99:
 7046 055b 4379446D 		.ascii	"CyDmaInterruptCallback\000"
 7046      61496E74 
 7046      65727275 
 7046      70744361 
 7046      6C6C6261 
 7047              	.LASF106:
 7048 0572 43794861 		.ascii	"CyHalt\000"
 7048      6C7400
 7049              	.LASF36:
 7050 0579 4379446D 		.ascii	"CyDmaGetStatus\000"
 7050      61476574 
 7050      53746174 
 7050      757300
 7051              	.LASF1:
 7052 0588 756E7369 		.ascii	"unsigned char\000"
 7052      676E6564 
 7052      20636861 
 7052      7200
 7053              	.LASF50:
 7054 0596 4379446D 		.ascii	"CyDmaGetInterruptSourceMasked\000"
 7054      61476574 
 7054      496E7465 
 7054      72727570 
 7054      74536F75 
 7055              	.LASF2:
 7056 05b4 73686F72 		.ascii	"short int\000"
 7056      7420696E 
 7056      7400
 7057              	.LASF47:
 7058 05be 696E7465 		.ascii	"interruptMask\000"
 7058      72727570 
 7058      744D6173 
 7058      6B00
 7059              	.LASF49:
 7060 05cc 4379446D 		.ascii	"CyDmaGetInterruptSourceMask\000"
 7060      61476574 
 7060      496E7465 
ARM GAS  C:\Users\Tim\AppData\Local\Temp\ccEK2rHG.s 			page 156


 7060      72727570 
 7060      74536F75 
 7061              	.LASF70:
 7062 05e8 6E657874 		.ascii	"nextDescriptor\000"
 7062      44657363 
 7062      72697074 
 7062      6F7200
 7063              	.LASF51:
 7064 05f7 6368616E 		.ascii	"channel\000"
 7064      6E656C00 
 7065              	.LASF92:
 7066 05ff 4379446D 		.ascii	"CyDmaGetTriggerType\000"
 7066      61476574 
 7066      54726967 
 7066      67657254 
 7066      79706500 
 7067              	.LASF56:
 7068 0613 4379446D 		.ascii	"CyDmaChAlloc\000"
 7068      61436841 
 7068      6C6C6F63 
 7068      00
 7069              	.LASF22:
 7070 0620 64657363 		.ascii	"descriptor\000"
 7070      72697074 
 7070      6F7200
 7071              	.LASF57:
 7072 062b 6368616E 		.ascii	"channelMask\000"
 7072      6E656C4D 
 7072      61736B00 
 7073              	.LASF14:
 7074 0637 63686172 		.ascii	"char\000"
 7074      00
 7075              	.LASF45:
 7076 063c 4379446D 		.ascii	"CyDmaClearInterruptSource\000"
 7076      61436C65 
 7076      6172496E 
 7076      74657272 
 7076      75707453 
 7077              	.LASF17:
 7078 0656 63796973 		.ascii	"cyisraddress\000"
 7078      72616464 
 7078      72657373 
 7078      00
 7079              	.LASF72:
 7080 0663 636F6E66 		.ascii	"config\000"
 7080      696700
 7081              	.LASF100:
 7082 066a 4379446D 		.ascii	"CyDmaChannelUsedMask\000"
 7082      61436861 
 7082      6E6E656C 
 7082      55736564 
 7082      4D61736B 
 7083              	.LASF82:
 7084 067f 4379446D 		.ascii	"CyDmaGetDataElementSize\000"
 7084      61476574 
 7084      44617461 
 7084      456C656D 
ARM GAS  C:\Users\Tim\AppData\Local\Temp\ccEK2rHG.s 			page 157


 7084      656E7453 
 7085              	.LASF86:
 7086 0697 4379446D 		.ascii	"CyDmaSetSrcDstTransferWidth\000"
 7086      61536574 
 7086      53726344 
 7086      73745472 
 7086      616E7366 
 7087              	.LASF73:
 7088 06b3 4379446D 		.ascii	"CyDmaValidateDescriptor\000"
 7088      6156616C 
 7088      69646174 
 7088      65446573 
 7088      63726970 
 7089              	.LASF42:
 7090 06cb 4379446D 		.ascii	"CyDmaEnable\000"
 7090      61456E61 
 7090      626C6500 
 7091              	.LASF27:
 7092 06d7 61646472 		.ascii	"addressIncrement\000"
 7092      65737349 
 7092      6E637265 
 7092      6D656E74 
 7092      00
 7093              	.LASF80:
 7094 06e8 4379446D 		.ascii	"CyDmaGetDstAddress\000"
 7094      61476574 
 7094      44737441 
 7094      64647265 
 7094      737300
 7095              	.LASF39:
 7096 06fb 4379446D 		.ascii	"CyDmaGetActiveDstAddress\000"
 7096      61476574 
 7096      41637469 
 7096      76654473 
 7096      74416464 
 7097              	.LASF83:
 7098 0714 4379446D 		.ascii	"CyDmaSetNumDataElements\000"
 7098      61536574 
 7098      4E756D44 
 7098      61746145 
 7098      6C656D65 
 7099              	.LASF20:
 7100 072c 73746174 		.ascii	"status\000"
 7100      757300
 7101              	.LASF21:
 7102 0733 6379646D 		.ascii	"cydma_descriptor_struct\000"
 7102      615F6465 
 7102      73637269 
 7102      70746F72 
 7102      5F737472 
 7103              	.LASF15:
 7104 074b 63797374 		.ascii	"cystatus\000"
 7104      61747573 
 7104      00
 7105              	.LASF87:
 7106 0754 7472616E 		.ascii	"transferWidth\000"
 7106      73666572 
ARM GAS  C:\Users\Tim\AppData\Local\Temp\ccEK2rHG.s 			page 158


 7106      57696474 
 7106      6800
 7107              	.LASF62:
 7108 0762 4379446D 		.ascii	"CyDmaTrigger\000"
 7108      61547269 
 7108      67676572 
 7108      00
 7109              	.LASF93:
 7110 076f 4379446D 		.ascii	"CyDmaSetTransferMode\000"
 7110      61536574 
 7110      5472616E 
 7110      73666572 
 7110      4D6F6465 
 7111              	.LASF23:
 7112 0784 6379646D 		.ascii	"cydma_descriptor_ram_struct\000"
 7112      615F6465 
 7112      73637269 
 7112      70746F72 
 7112      5F72616D 
 7113              	.LASF91:
 7114 07a0 4379446D 		.ascii	"CyDmaSetTriggerType\000"
 7114      61536574 
 7114      54726967 
 7114      67657254 
 7114      79706500 
 7115              	.LASF31:
 7116 07b4 61637469 		.ascii	"actions\000"
 7116      6F6E7300 
 7117              	.LASF30:
 7118 07bc 70726565 		.ascii	"preemptable\000"
 7118      6D707461 
 7118      626C6500 
 7119              	.LASF95:
 7120 07c8 4379446D 		.ascii	"CyDmaSetPreemptable\000"
 7120      61536574 
 7120      50726565 
 7120      6D707461 
 7120      626C6500 
 7121              	.LASF58:
 7122 07dc 4379446D 		.ascii	"CyDmaChFree\000"
 7122      61436846 
 7122      72656500 
 7123              		.ident	"GCC: (GNU Tools for ARM Embedded Processors) 4.9.3 20150303 (release) [ARM/embedded-4_9-br
