ARM GAS  C:\Users\Tim\AppData\Local\Temp\ccoyQTkh.s 			page 1


   1              		.cpu cortex-m0
   2              		.fpu softvfp
   3              		.eabi_attribute 20, 1
   4              		.eabi_attribute 21, 1
   5              		.eabi_attribute 23, 3
   6              		.eabi_attribute 24, 1
   7              		.eabi_attribute 25, 1
   8              		.eabi_attribute 26, 1
   9              		.eabi_attribute 30, 1
  10              		.eabi_attribute 34, 0
  11              		.eabi_attribute 18, 4
  12              		.code	16
  13              		.file	"cyfitter_cfg.c"
  14              		.text
  15              	.Ltext0:
  16              		.cfi_sections	.debug_frame
  17              		.section	.text.cfg_write_bytes32,"ax",%progbits
  18              		.align	2
  19              		.code	16
  20              		.thumb_func
  21              		.type	cfg_write_bytes32, %function
  22              	cfg_write_bytes32:
  23              	.LFB5:
  24              		.file 1 ".\\Generated_Source\\PSoC4\\cyfitter_cfg.c"
   1:.\Generated_Source\PSoC4/cyfitter_cfg.c **** /*******************************************************************************
   2:.\Generated_Source\PSoC4/cyfitter_cfg.c **** * File Name: cyfitter_cfg.c
   3:.\Generated_Source\PSoC4/cyfitter_cfg.c **** * 
   4:.\Generated_Source\PSoC4/cyfitter_cfg.c **** * PSoC Creator  3.3 CP2
   5:.\Generated_Source\PSoC4/cyfitter_cfg.c **** *
   6:.\Generated_Source\PSoC4/cyfitter_cfg.c **** * Description:
   7:.\Generated_Source\PSoC4/cyfitter_cfg.c **** * This file contains device initialization code.
   8:.\Generated_Source\PSoC4/cyfitter_cfg.c **** * Except for the user defined sections in CyClockStartupError(), this file should not be modified.
   9:.\Generated_Source\PSoC4/cyfitter_cfg.c **** * This file is automatically generated by PSoC Creator.
  10:.\Generated_Source\PSoC4/cyfitter_cfg.c **** *
  11:.\Generated_Source\PSoC4/cyfitter_cfg.c **** ********************************************************************************
  12:.\Generated_Source\PSoC4/cyfitter_cfg.c **** * Copyright (c) 2007-2015 Cypress Semiconductor.  All rights reserved.
  13:.\Generated_Source\PSoC4/cyfitter_cfg.c **** * You may use this file only in accordance with the license, terms, conditions, 
  14:.\Generated_Source\PSoC4/cyfitter_cfg.c **** * disclaimers, and limitations in the end user license agreement accompanying 
  15:.\Generated_Source\PSoC4/cyfitter_cfg.c **** * the software package with which this file was provided.
  16:.\Generated_Source\PSoC4/cyfitter_cfg.c **** ********************************************************************************/
  17:.\Generated_Source\PSoC4/cyfitter_cfg.c **** 
  18:.\Generated_Source\PSoC4/cyfitter_cfg.c **** #include <string.h>
  19:.\Generated_Source\PSoC4/cyfitter_cfg.c **** #include "cytypes.h"
  20:.\Generated_Source\PSoC4/cyfitter_cfg.c **** #include "cydevice_trm.h"
  21:.\Generated_Source\PSoC4/cyfitter_cfg.c **** #include "cyfitter.h"
  22:.\Generated_Source\PSoC4/cyfitter_cfg.c **** #include "CyLib.h"
  23:.\Generated_Source\PSoC4/cyfitter_cfg.c **** #include "CyLFClk.h"
  24:.\Generated_Source\PSoC4/cyfitter_cfg.c **** #include "cyfitter_cfg.h"
  25:.\Generated_Source\PSoC4/cyfitter_cfg.c **** 
  26:.\Generated_Source\PSoC4/cyfitter_cfg.c **** 
  27:.\Generated_Source\PSoC4/cyfitter_cfg.c **** #if defined(__GNUC__) || defined(__ARMCC_VERSION)
  28:.\Generated_Source\PSoC4/cyfitter_cfg.c ****     #define CYPACKED 
  29:.\Generated_Source\PSoC4/cyfitter_cfg.c ****     #define CYPACKED_ATTR __attribute__ ((packed))
  30:.\Generated_Source\PSoC4/cyfitter_cfg.c ****     #define CYALIGNED __attribute__ ((aligned))
  31:.\Generated_Source\PSoC4/cyfitter_cfg.c ****     #define CY_CFG_UNUSED __attribute__ ((unused))
  32:.\Generated_Source\PSoC4/cyfitter_cfg.c ****     #ifndef CY_CFG_SECTION
  33:.\Generated_Source\PSoC4/cyfitter_cfg.c ****         #define CY_CFG_SECTION __attribute__ ((section(".psocinit")))
ARM GAS  C:\Users\Tim\AppData\Local\Temp\ccoyQTkh.s 			page 2


  34:.\Generated_Source\PSoC4/cyfitter_cfg.c ****     #endif
  35:.\Generated_Source\PSoC4/cyfitter_cfg.c ****     
  36:.\Generated_Source\PSoC4/cyfitter_cfg.c ****     #if defined(__ARMCC_VERSION)
  37:.\Generated_Source\PSoC4/cyfitter_cfg.c ****         #define CY_CFG_MEMORY_BARRIER() __memory_changed()
  38:.\Generated_Source\PSoC4/cyfitter_cfg.c ****     #else
  39:.\Generated_Source\PSoC4/cyfitter_cfg.c ****         #define CY_CFG_MEMORY_BARRIER() __sync_synchronize()
  40:.\Generated_Source\PSoC4/cyfitter_cfg.c ****     #endif
  41:.\Generated_Source\PSoC4/cyfitter_cfg.c ****     
  42:.\Generated_Source\PSoC4/cyfitter_cfg.c **** #elif defined(__ICCARM__)
  43:.\Generated_Source\PSoC4/cyfitter_cfg.c ****     #include <intrinsics.h>
  44:.\Generated_Source\PSoC4/cyfitter_cfg.c **** 
  45:.\Generated_Source\PSoC4/cyfitter_cfg.c ****     #define CYPACKED __packed
  46:.\Generated_Source\PSoC4/cyfitter_cfg.c ****     #define CYPACKED_ATTR 
  47:.\Generated_Source\PSoC4/cyfitter_cfg.c ****     #define CYALIGNED _Pragma("data_alignment=4")
  48:.\Generated_Source\PSoC4/cyfitter_cfg.c ****     #define CY_CFG_UNUSED _Pragma("diag_suppress=Pe177")
  49:.\Generated_Source\PSoC4/cyfitter_cfg.c ****     #define CY_CFG_SECTION _Pragma("location=\".psocinit\"")
  50:.\Generated_Source\PSoC4/cyfitter_cfg.c ****     
  51:.\Generated_Source\PSoC4/cyfitter_cfg.c ****     #define CY_CFG_MEMORY_BARRIER() __DMB()
  52:.\Generated_Source\PSoC4/cyfitter_cfg.c ****     
  53:.\Generated_Source\PSoC4/cyfitter_cfg.c **** #else
  54:.\Generated_Source\PSoC4/cyfitter_cfg.c ****     #error Unsupported toolchain
  55:.\Generated_Source\PSoC4/cyfitter_cfg.c **** #endif
  56:.\Generated_Source\PSoC4/cyfitter_cfg.c **** 
  57:.\Generated_Source\PSoC4/cyfitter_cfg.c **** 
  58:.\Generated_Source\PSoC4/cyfitter_cfg.c **** CY_CFG_UNUSED
  59:.\Generated_Source\PSoC4/cyfitter_cfg.c **** static void CYMEMZERO(void *s, size_t n);
  60:.\Generated_Source\PSoC4/cyfitter_cfg.c **** CY_CFG_UNUSED
  61:.\Generated_Source\PSoC4/cyfitter_cfg.c **** static void CYMEMZERO(void *s, size_t n)
  62:.\Generated_Source\PSoC4/cyfitter_cfg.c **** {
  63:.\Generated_Source\PSoC4/cyfitter_cfg.c **** 	(void)memset(s, 0, n);
  64:.\Generated_Source\PSoC4/cyfitter_cfg.c **** }
  65:.\Generated_Source\PSoC4/cyfitter_cfg.c **** CY_CFG_UNUSED
  66:.\Generated_Source\PSoC4/cyfitter_cfg.c **** static void CYCONFIGCPY(void *dest, const void *src, size_t n);
  67:.\Generated_Source\PSoC4/cyfitter_cfg.c **** CY_CFG_UNUSED
  68:.\Generated_Source\PSoC4/cyfitter_cfg.c **** static void CYCONFIGCPY(void *dest, const void *src, size_t n)
  69:.\Generated_Source\PSoC4/cyfitter_cfg.c **** {
  70:.\Generated_Source\PSoC4/cyfitter_cfg.c **** 	(void)memcpy(dest, src, n);
  71:.\Generated_Source\PSoC4/cyfitter_cfg.c **** }
  72:.\Generated_Source\PSoC4/cyfitter_cfg.c **** CY_CFG_UNUSED
  73:.\Generated_Source\PSoC4/cyfitter_cfg.c **** static void CYCONFIGCPYCODE(void *dest, const void *src, size_t n);
  74:.\Generated_Source\PSoC4/cyfitter_cfg.c **** CY_CFG_UNUSED
  75:.\Generated_Source\PSoC4/cyfitter_cfg.c **** static void CYCONFIGCPYCODE(void *dest, const void *src, size_t n)
  76:.\Generated_Source\PSoC4/cyfitter_cfg.c **** {
  77:.\Generated_Source\PSoC4/cyfitter_cfg.c **** 	(void)memcpy(dest, src, n);
  78:.\Generated_Source\PSoC4/cyfitter_cfg.c **** }
  79:.\Generated_Source\PSoC4/cyfitter_cfg.c **** 
  80:.\Generated_Source\PSoC4/cyfitter_cfg.c **** 
  81:.\Generated_Source\PSoC4/cyfitter_cfg.c **** 
  82:.\Generated_Source\PSoC4/cyfitter_cfg.c **** /* Clock startup error codes                                                   */
  83:.\Generated_Source\PSoC4/cyfitter_cfg.c **** #define CYCLOCKSTART_NO_ERROR    0u
  84:.\Generated_Source\PSoC4/cyfitter_cfg.c **** #define CYCLOCKSTART_XTAL_ERROR  1u
  85:.\Generated_Source\PSoC4/cyfitter_cfg.c **** #define CYCLOCKSTART_32KHZ_ERROR 2u
  86:.\Generated_Source\PSoC4/cyfitter_cfg.c **** #define CYCLOCKSTART_PLL_ERROR   3u
  87:.\Generated_Source\PSoC4/cyfitter_cfg.c **** 
  88:.\Generated_Source\PSoC4/cyfitter_cfg.c **** #ifdef CY_NEED_CYCLOCKSTARTUPERROR
  89:.\Generated_Source\PSoC4/cyfitter_cfg.c **** /*******************************************************************************
  90:.\Generated_Source\PSoC4/cyfitter_cfg.c **** * Function Name: CyClockStartupError
ARM GAS  C:\Users\Tim\AppData\Local\Temp\ccoyQTkh.s 			page 3


  91:.\Generated_Source\PSoC4/cyfitter_cfg.c **** ********************************************************************************
  92:.\Generated_Source\PSoC4/cyfitter_cfg.c **** * Summary:
  93:.\Generated_Source\PSoC4/cyfitter_cfg.c **** *  If an error is encountered during clock configuration (crystal startup error,
  94:.\Generated_Source\PSoC4/cyfitter_cfg.c **** *  PLL lock error, etc.), the system will end up here.  Unless reimplemented by
  95:.\Generated_Source\PSoC4/cyfitter_cfg.c **** *  the customer, this function will stop in an infinite loop.
  96:.\Generated_Source\PSoC4/cyfitter_cfg.c **** *
  97:.\Generated_Source\PSoC4/cyfitter_cfg.c **** * Parameters:
  98:.\Generated_Source\PSoC4/cyfitter_cfg.c **** *   void
  99:.\Generated_Source\PSoC4/cyfitter_cfg.c **** *
 100:.\Generated_Source\PSoC4/cyfitter_cfg.c **** * Return:
 101:.\Generated_Source\PSoC4/cyfitter_cfg.c **** *   void
 102:.\Generated_Source\PSoC4/cyfitter_cfg.c **** *
 103:.\Generated_Source\PSoC4/cyfitter_cfg.c **** *******************************************************************************/
 104:.\Generated_Source\PSoC4/cyfitter_cfg.c **** CY_CFG_UNUSED
 105:.\Generated_Source\PSoC4/cyfitter_cfg.c **** static void CyClockStartupError(uint8 errorCode);
 106:.\Generated_Source\PSoC4/cyfitter_cfg.c **** CY_CFG_UNUSED
 107:.\Generated_Source\PSoC4/cyfitter_cfg.c **** static void CyClockStartupError(uint8 errorCode)
 108:.\Generated_Source\PSoC4/cyfitter_cfg.c **** {
 109:.\Generated_Source\PSoC4/cyfitter_cfg.c ****     /* To remove the compiler warning if errorCode not used.                */
 110:.\Generated_Source\PSoC4/cyfitter_cfg.c ****     errorCode = errorCode;
 111:.\Generated_Source\PSoC4/cyfitter_cfg.c **** 
 112:.\Generated_Source\PSoC4/cyfitter_cfg.c ****     /* `#START CyClockStartupError` */
 113:.\Generated_Source\PSoC4/cyfitter_cfg.c **** 
 114:.\Generated_Source\PSoC4/cyfitter_cfg.c ****     /* If we have a clock startup error (bad MHz crystal, PLL lock, etc.),  */
 115:.\Generated_Source\PSoC4/cyfitter_cfg.c ****     /* we will end up here to allow the customer to implement something to  */
 116:.\Generated_Source\PSoC4/cyfitter_cfg.c ****     /* deal with the clock condition.                                       */
 117:.\Generated_Source\PSoC4/cyfitter_cfg.c **** 
 118:.\Generated_Source\PSoC4/cyfitter_cfg.c ****     /* `#END` */
 119:.\Generated_Source\PSoC4/cyfitter_cfg.c **** 
 120:.\Generated_Source\PSoC4/cyfitter_cfg.c ****     /* If nothing else, stop here since the clocks have not started         */
 121:.\Generated_Source\PSoC4/cyfitter_cfg.c ****     /* correctly.                                                           */
 122:.\Generated_Source\PSoC4/cyfitter_cfg.c ****     while(1) {}
 123:.\Generated_Source\PSoC4/cyfitter_cfg.c **** }
 124:.\Generated_Source\PSoC4/cyfitter_cfg.c **** #endif
 125:.\Generated_Source\PSoC4/cyfitter_cfg.c **** 
 126:.\Generated_Source\PSoC4/cyfitter_cfg.c **** #define CY_CFG_BASE_ADDR_COUNT 18u
 127:.\Generated_Source\PSoC4/cyfitter_cfg.c **** CYPACKED typedef struct
 128:.\Generated_Source\PSoC4/cyfitter_cfg.c **** {
 129:.\Generated_Source\PSoC4/cyfitter_cfg.c **** 	uint8 offset;
 130:.\Generated_Source\PSoC4/cyfitter_cfg.c **** 	uint8 value;
 131:.\Generated_Source\PSoC4/cyfitter_cfg.c **** } CYPACKED_ATTR cy_cfg_addrvalue_t;
 132:.\Generated_Source\PSoC4/cyfitter_cfg.c **** 
 133:.\Generated_Source\PSoC4/cyfitter_cfg.c **** 
 134:.\Generated_Source\PSoC4/cyfitter_cfg.c **** 
 135:.\Generated_Source\PSoC4/cyfitter_cfg.c **** /*******************************************************************************
 136:.\Generated_Source\PSoC4/cyfitter_cfg.c **** * Function Name: cfg_write_bytes32
 137:.\Generated_Source\PSoC4/cyfitter_cfg.c **** ********************************************************************************
 138:.\Generated_Source\PSoC4/cyfitter_cfg.c **** * Summary:
 139:.\Generated_Source\PSoC4/cyfitter_cfg.c **** *  This function is used for setting up the chip configuration areas that
 140:.\Generated_Source\PSoC4/cyfitter_cfg.c **** *  contain relatively sparse data.
 141:.\Generated_Source\PSoC4/cyfitter_cfg.c **** *
 142:.\Generated_Source\PSoC4/cyfitter_cfg.c **** * Parameters:
 143:.\Generated_Source\PSoC4/cyfitter_cfg.c **** *   void
 144:.\Generated_Source\PSoC4/cyfitter_cfg.c **** *
 145:.\Generated_Source\PSoC4/cyfitter_cfg.c **** * Return:
 146:.\Generated_Source\PSoC4/cyfitter_cfg.c **** *   void
 147:.\Generated_Source\PSoC4/cyfitter_cfg.c **** *
ARM GAS  C:\Users\Tim\AppData\Local\Temp\ccoyQTkh.s 			page 4


 148:.\Generated_Source\PSoC4/cyfitter_cfg.c **** *******************************************************************************/
 149:.\Generated_Source\PSoC4/cyfitter_cfg.c **** static void cfg_write_bytes32(const uint32 addr_table[], const cy_cfg_addrvalue_t data_table[]);
 150:.\Generated_Source\PSoC4/cyfitter_cfg.c **** static void cfg_write_bytes32(const uint32 addr_table[], const cy_cfg_addrvalue_t data_table[])
 151:.\Generated_Source\PSoC4/cyfitter_cfg.c **** {
  25              		.loc 1 151 0
  26              		.cfi_startproc
  27              	.LVL0:
  28 0000 F0B5     		push	{r4, r5, r6, r7, lr}
  29              		.cfi_def_cfa_offset 20
  30              		.cfi_offset 4, -20
  31              		.cfi_offset 5, -16
  32              		.cfi_offset 6, -12
  33              		.cfi_offset 7, -8
  34              		.cfi_offset 14, -4
  35              	.LVL1:
 152:.\Generated_Source\PSoC4/cyfitter_cfg.c **** 	/* For 32-bit little-endian architectures */
 153:.\Generated_Source\PSoC4/cyfitter_cfg.c **** 	uint32 i, j = 0u;
  36              		.loc 1 153 0
  37 0002 0025     		mov	r5, #0
 154:.\Generated_Source\PSoC4/cyfitter_cfg.c **** 	for (i = 0u; i < CY_CFG_BASE_ADDR_COUNT; i++)
  38              		.loc 1 154 0
  39 0004 0027     		mov	r7, #0
  40 0006 11E0     		b	.L2
  41              	.LVL2:
  42              	.L5:
  43              	.LBB2:
 155:.\Generated_Source\PSoC4/cyfitter_cfg.c **** 	{
 156:.\Generated_Source\PSoC4/cyfitter_cfg.c **** 		uint32 baseAddr = addr_table[i];
  44              		.loc 1 156 0
  45 0008 BB00     		lsl	r3, r7, #2
  46 000a C658     		ldr	r6, [r0, r3]
  47              	.LVL3:
 157:.\Generated_Source\PSoC4/cyfitter_cfg.c **** 		uint8 count = (uint8)baseAddr;
  48              		.loc 1 157 0
  49 000c F3B2     		uxtb	r3, r6
  50              	.LVL4:
 158:.\Generated_Source\PSoC4/cyfitter_cfg.c **** 		baseAddr &= 0xFFFFFF00u;
  51              		.loc 1 158 0
  52 000e FF22     		mov	r2, #255
  53 0010 9643     		bic	r6, r2
  54              	.LVL5:
 159:.\Generated_Source\PSoC4/cyfitter_cfg.c **** 		while (count != 0u)
  55              		.loc 1 159 0
  56 0012 08E0     		b	.L3
  57              	.L4:
 160:.\Generated_Source\PSoC4/cyfitter_cfg.c **** 		{
 161:.\Generated_Source\PSoC4/cyfitter_cfg.c **** 			CY_SET_XTND_REG8((void CYFAR *)(baseAddr + data_table[j].offset), data_table[j].value);
  58              		.loc 1 161 0
  59 0014 6A00     		lsl	r2, r5, #1
  60 0016 8A18     		add	r2, r1, r2
  61 0018 1478     		ldrb	r4, [r2]
  62 001a A419     		add	r4, r4, r6
  63 001c 5278     		ldrb	r2, [r2, #1]
  64 001e 2270     		strb	r2, [r4]
 162:.\Generated_Source\PSoC4/cyfitter_cfg.c **** 			j++;
  65              		.loc 1 162 0
  66 0020 0135     		add	r5, r5, #1
ARM GAS  C:\Users\Tim\AppData\Local\Temp\ccoyQTkh.s 			page 5


  67              	.LVL6:
 163:.\Generated_Source\PSoC4/cyfitter_cfg.c **** 			count--;
  68              		.loc 1 163 0
  69 0022 013B     		sub	r3, r3, #1
  70              	.LVL7:
  71 0024 DBB2     		uxtb	r3, r3
  72              	.LVL8:
  73              	.L3:
 159:.\Generated_Source\PSoC4/cyfitter_cfg.c **** 		{
  74              		.loc 1 159 0
  75 0026 002B     		cmp	r3, #0
  76 0028 F4D1     		bne	.L4
  77              	.LBE2:
 154:.\Generated_Source\PSoC4/cyfitter_cfg.c **** 	{
  78              		.loc 1 154 0 discriminator 2
  79 002a 0137     		add	r7, r7, #1
  80              	.LVL9:
  81              	.L2:
 154:.\Generated_Source\PSoC4/cyfitter_cfg.c **** 	{
  82              		.loc 1 154 0 is_stmt 0 discriminator 1
  83 002c 112F     		cmp	r7, #17
  84 002e EBD9     		bls	.L5
 164:.\Generated_Source\PSoC4/cyfitter_cfg.c **** 		}
 165:.\Generated_Source\PSoC4/cyfitter_cfg.c **** 	}
 166:.\Generated_Source\PSoC4/cyfitter_cfg.c **** }
  85              		.loc 1 166 0 is_stmt 1
  86              		@ sp needed
  87              	.LVL10:
  88              	.LVL11:
  89 0030 F0BD     		pop	{r4, r5, r6, r7, pc}
  90              		.cfi_endproc
  91              	.LFE5:
  92              		.size	cfg_write_bytes32, .-cfg_write_bytes32
  93 0032 C046     		.section	.text.CYMEMZERO,"ax",%progbits
  94              		.align	2
  95              		.code	16
  96              		.thumb_func
  97              		.type	CYMEMZERO, %function
  98              	CYMEMZERO:
  99              	.LFB2:
  62:.\Generated_Source\PSoC4/cyfitter_cfg.c **** 	(void)memset(s, 0, n);
 100              		.loc 1 62 0
 101              		.cfi_startproc
 102              	.LVL12:
 103 0000 08B5     		push	{r3, lr}
 104              		.cfi_def_cfa_offset 8
 105              		.cfi_offset 3, -8
 106              		.cfi_offset 14, -4
 107 0002 0A1C     		mov	r2, r1
  63:.\Generated_Source\PSoC4/cyfitter_cfg.c **** }
 108              		.loc 1 63 0
 109 0004 0021     		mov	r1, #0
 110              	.LVL13:
 111 0006 FFF7FEFF 		bl	memset
 112              	.LVL14:
  64:.\Generated_Source\PSoC4/cyfitter_cfg.c **** CY_CFG_UNUSED
 113              		.loc 1 64 0
ARM GAS  C:\Users\Tim\AppData\Local\Temp\ccoyQTkh.s 			page 6


 114              		@ sp needed
 115 000a 08BD     		pop	{r3, pc}
 116              		.cfi_endproc
 117              	.LFE2:
 118              		.size	CYMEMZERO, .-CYMEMZERO
 119              		.section	.psocinit,"ax",%progbits
 120              		.align	2
 121              		.code	16
 122              		.thumb_func
 123              		.type	ClockSetup, %function
 124              	ClockSetup:
 125              	.LFB6:
 167:.\Generated_Source\PSoC4/cyfitter_cfg.c **** 
 168:.\Generated_Source\PSoC4/cyfitter_cfg.c **** 
 169:.\Generated_Source\PSoC4/cyfitter_cfg.c **** /*******************************************************************************
 170:.\Generated_Source\PSoC4/cyfitter_cfg.c **** * Function Name: ClockSetup
 171:.\Generated_Source\PSoC4/cyfitter_cfg.c **** ********************************************************************************
 172:.\Generated_Source\PSoC4/cyfitter_cfg.c **** *
 173:.\Generated_Source\PSoC4/cyfitter_cfg.c **** * Summary:
 174:.\Generated_Source\PSoC4/cyfitter_cfg.c **** *   Performs the initialization of all of the clocks in the device based on the
 175:.\Generated_Source\PSoC4/cyfitter_cfg.c **** *   settings in the Clock tab of the DWR.  This includes enabling the requested
 176:.\Generated_Source\PSoC4/cyfitter_cfg.c **** *   clocks and setting the necessary dividers to produce the desired frequency. 
 177:.\Generated_Source\PSoC4/cyfitter_cfg.c **** *
 178:.\Generated_Source\PSoC4/cyfitter_cfg.c **** * Parameters:
 179:.\Generated_Source\PSoC4/cyfitter_cfg.c **** *   void
 180:.\Generated_Source\PSoC4/cyfitter_cfg.c **** *
 181:.\Generated_Source\PSoC4/cyfitter_cfg.c **** * Return:
 182:.\Generated_Source\PSoC4/cyfitter_cfg.c **** *   void
 183:.\Generated_Source\PSoC4/cyfitter_cfg.c **** *
 184:.\Generated_Source\PSoC4/cyfitter_cfg.c **** *******************************************************************************/
 185:.\Generated_Source\PSoC4/cyfitter_cfg.c **** static void ClockSetup(void);
 186:.\Generated_Source\PSoC4/cyfitter_cfg.c **** CY_CFG_SECTION
 187:.\Generated_Source\PSoC4/cyfitter_cfg.c **** static void ClockSetup(void)
 188:.\Generated_Source\PSoC4/cyfitter_cfg.c **** {
 126              		.loc 1 188 0
 127              		.cfi_startproc
 128 0000 08B5     		push	{r3, lr}
 129              		.cfi_def_cfa_offset 8
 130              		.cfi_offset 3, -8
 131              		.cfi_offset 14, -4
 189:.\Generated_Source\PSoC4/cyfitter_cfg.c **** 
 190:.\Generated_Source\PSoC4/cyfitter_cfg.c **** 	/* Set Flash Cycles based on max possible frequency in case a glitch occurs during ClockSetup(). *
 191:.\Generated_Source\PSoC4/cyfitter_cfg.c **** 	CY_SET_REG32((void CYXDATA *)(CYREG_CPUSS_FLASH_CTL), (0x0012u));
 132              		.loc 1 191 0
 133 0002 1222     		mov	r2, #18
 134 0004 274B     		ldr	r3, .L8
 135 0006 1A60     		str	r2, [r3]
 192:.\Generated_Source\PSoC4/cyfitter_cfg.c **** 	/* Setup and trim IMO based on desired frequency. */
 193:.\Generated_Source\PSoC4/cyfitter_cfg.c **** 	CySysClkWriteImoFreq(48u);
 136              		.loc 1 193 0
 137 0008 3020     		mov	r0, #48
 138 000a FFF7FEFF 		bl	CySysClkWriteImoFreq
 139              	.LVL15:
 194:.\Generated_Source\PSoC4/cyfitter_cfg.c **** 	/* CYDEV_CLK_ILO_CONFIG Starting address: CYDEV_CLK_ILO_CONFIG */
 195:.\Generated_Source\PSoC4/cyfitter_cfg.c **** 	CY_SET_XTND_REG32((void CYFAR *)(CYREG_CLK_ILO_CONFIG), 0x80000006u);
 140              		.loc 1 195 0
 141 000e 264A     		ldr	r2, .L8+4
ARM GAS  C:\Users\Tim\AppData\Local\Temp\ccoyQTkh.s 			page 7


 142 0010 264B     		ldr	r3, .L8+8
 143 0012 1A60     		str	r2, [r3]
 196:.\Generated_Source\PSoC4/cyfitter_cfg.c **** 
 197:.\Generated_Source\PSoC4/cyfitter_cfg.c **** 
 198:.\Generated_Source\PSoC4/cyfitter_cfg.c **** 	/* Setup phase aligned clocks */
 199:.\Generated_Source\PSoC4/cyfitter_cfg.c **** 	CY_SET_REG32((void *)CYREG_PERI_DIV_16_CTL2, 0x00000300u);
 144              		.loc 1 199 0
 145 0014 C022     		mov	r2, #192
 146 0016 9200     		lsl	r2, r2, #2
 147 0018 254B     		ldr	r3, .L8+12
 148 001a 1A60     		str	r2, [r3]
 200:.\Generated_Source\PSoC4/cyfitter_cfg.c **** 	CY_SET_REG32((void *)CYREG_PERI_DIV_CMD, 0x8000FF42u);
 149              		.loc 1 200 0
 150 001c 254B     		ldr	r3, .L8+16
 151 001e 2649     		ldr	r1, .L8+20
 152 0020 1960     		str	r1, [r3]
 201:.\Generated_Source\PSoC4/cyfitter_cfg.c **** 	CY_SET_REG32((void *)CYREG_PERI_DIV_16_CTL1, 0x00000300u);
 153              		.loc 1 201 0
 154 0022 2649     		ldr	r1, .L8+24
 155 0024 0A60     		str	r2, [r1]
 202:.\Generated_Source\PSoC4/cyfitter_cfg.c **** 	CY_SET_REG32((void *)CYREG_PERI_DIV_CMD, 0x8000FF41u);
 156              		.loc 1 202 0
 157 0026 264A     		ldr	r2, .L8+28
 158 0028 1A60     		str	r2, [r3]
 203:.\Generated_Source\PSoC4/cyfitter_cfg.c **** 	CY_SET_REG32((void *)CYREG_PERI_DIV_16_CTL5, 0x00002F00u);
 159              		.loc 1 203 0
 160 002a BC22     		mov	r2, #188
 161 002c 9201     		lsl	r2, r2, #6
 162 002e 2549     		ldr	r1, .L8+32
 163 0030 0A60     		str	r2, [r1]
 204:.\Generated_Source\PSoC4/cyfitter_cfg.c **** 	CY_SET_REG32((void *)CYREG_PERI_DIV_CMD, 0x8000FF45u);
 164              		.loc 1 204 0
 165 0032 2549     		ldr	r1, .L8+36
 166 0034 1960     		str	r1, [r3]
 205:.\Generated_Source\PSoC4/cyfitter_cfg.c **** 	CY_SET_REG32((void *)CYREG_PERI_DIV_16_CTL4, 0x00002F00u);
 167              		.loc 1 205 0
 168 0036 2549     		ldr	r1, .L8+40
 169 0038 0A60     		str	r2, [r1]
 206:.\Generated_Source\PSoC4/cyfitter_cfg.c **** 	CY_SET_REG32((void *)CYREG_PERI_DIV_CMD, 0x8000FF44u);
 170              		.loc 1 206 0
 171 003a 254A     		ldr	r2, .L8+44
 172 003c 1A60     		str	r2, [r3]
 207:.\Generated_Source\PSoC4/cyfitter_cfg.c **** 	CY_SET_REG32((void *)CYREG_PERI_DIV_16_CTL0, 0x00000200u);
 173              		.loc 1 207 0
 174 003e 8021     		mov	r1, #128
 175 0040 8900     		lsl	r1, r1, #2
 176 0042 244A     		ldr	r2, .L8+48
 177 0044 1160     		str	r1, [r2]
 208:.\Generated_Source\PSoC4/cyfitter_cfg.c **** 	CY_SET_REG32((void *)CYREG_PERI_DIV_CMD, 0x8000FF40u);
 178              		.loc 1 208 0
 179 0046 244A     		ldr	r2, .L8+52
 180 0048 1A60     		str	r2, [r3]
 209:.\Generated_Source\PSoC4/cyfitter_cfg.c **** 	CY_SET_REG32((void *)CYREG_PERI_DIV_16_CTL3, 0x00001D00u);
 181              		.loc 1 209 0
 182 004a E821     		mov	r1, #232
 183 004c 4901     		lsl	r1, r1, #5
 184 004e 234A     		ldr	r2, .L8+56
ARM GAS  C:\Users\Tim\AppData\Local\Temp\ccoyQTkh.s 			page 8


 185 0050 1160     		str	r1, [r2]
 210:.\Generated_Source\PSoC4/cyfitter_cfg.c **** 	CY_SET_REG32((void *)CYREG_PERI_DIV_CMD, 0x8000FF43u);
 186              		.loc 1 210 0
 187 0052 234A     		ldr	r2, .L8+60
 188 0054 1A60     		str	r2, [r3]
 211:.\Generated_Source\PSoC4/cyfitter_cfg.c **** 
 212:.\Generated_Source\PSoC4/cyfitter_cfg.c **** 	/* CYDEV_CLK_IMO_CONFIG Starting address: CYDEV_CLK_IMO_CONFIG */
 213:.\Generated_Source\PSoC4/cyfitter_cfg.c **** 	CY_SET_XTND_REG32((void CYFAR *)(CYREG_CLK_IMO_CONFIG), 0x82000000u);
 189              		.loc 1 213 0
 190 0056 8222     		mov	r2, #130
 191 0058 1206     		lsl	r2, r2, #24
 192 005a 224B     		ldr	r3, .L8+64
 193 005c 1A60     		str	r2, [r3]
 214:.\Generated_Source\PSoC4/cyfitter_cfg.c **** 
 215:.\Generated_Source\PSoC4/cyfitter_cfg.c **** 	/* CYDEV_CLK_SELECT Starting address: CYDEV_CLK_SELECT */
 216:.\Generated_Source\PSoC4/cyfitter_cfg.c **** 	CY_SET_XTND_REG32((void CYFAR *)(CYREG_CLK_SELECT), 0x00040000u);
 194              		.loc 1 216 0
 195 005e 8022     		mov	r2, #128
 196 0060 D202     		lsl	r2, r2, #11
 197 0062 214B     		ldr	r3, .L8+68
 198 0064 1A60     		str	r2, [r3]
 217:.\Generated_Source\PSoC4/cyfitter_cfg.c **** 
 218:.\Generated_Source\PSoC4/cyfitter_cfg.c **** 	/* CYDEV_PERI_PCLK_CTL22 Starting address: CYDEV_PERI_PCLK_CTL22 */
 219:.\Generated_Source\PSoC4/cyfitter_cfg.c **** 	CY_SET_XTND_REG32((void CYFAR *)(CYREG_PERI_PCLK_CTL22), 0x00000042u);
 199              		.loc 1 219 0
 200 0066 4222     		mov	r2, #66
 201 0068 204B     		ldr	r3, .L8+72
 202 006a 1A60     		str	r2, [r3]
 220:.\Generated_Source\PSoC4/cyfitter_cfg.c **** 
 221:.\Generated_Source\PSoC4/cyfitter_cfg.c **** 	/* CYDEV_PERI_PCLK_CTL20 Starting address: CYDEV_PERI_PCLK_CTL20 */
 222:.\Generated_Source\PSoC4/cyfitter_cfg.c **** 	CY_SET_XTND_REG32((void CYFAR *)(CYREG_PERI_PCLK_CTL20), 0x00000041u);
 203              		.loc 1 222 0
 204 006c 013A     		sub	r2, r2, #1
 205 006e 204B     		ldr	r3, .L8+76
 206 0070 1A60     		str	r2, [r3]
 223:.\Generated_Source\PSoC4/cyfitter_cfg.c **** 
 224:.\Generated_Source\PSoC4/cyfitter_cfg.c **** 	/* CYDEV_PERI_PCLK_CTL13 Starting address: CYDEV_PERI_PCLK_CTL13 */
 225:.\Generated_Source\PSoC4/cyfitter_cfg.c **** 	CY_SET_XTND_REG32((void CYFAR *)(CYREG_PERI_PCLK_CTL13), 0x00000045u);
 207              		.loc 1 225 0
 208 0072 4523     		mov	r3, #69
 209 0074 1F4A     		ldr	r2, .L8+80
 210 0076 1360     		str	r3, [r2]
 226:.\Generated_Source\PSoC4/cyfitter_cfg.c **** 
 227:.\Generated_Source\PSoC4/cyfitter_cfg.c **** 	/* CYDEV_PERI_PCLK_CTL12 Starting address: CYDEV_PERI_PCLK_CTL12 */
 228:.\Generated_Source\PSoC4/cyfitter_cfg.c **** 	CY_SET_XTND_REG32((void CYFAR *)(CYREG_PERI_PCLK_CTL12), 0x00000045u);
 211              		.loc 1 228 0
 212 0078 1F4A     		ldr	r2, .L8+84
 213 007a 1360     		str	r3, [r2]
 229:.\Generated_Source\PSoC4/cyfitter_cfg.c **** 
 230:.\Generated_Source\PSoC4/cyfitter_cfg.c **** 	/* CYDEV_PERI_PCLK_CTL11 Starting address: CYDEV_PERI_PCLK_CTL11 */
 231:.\Generated_Source\PSoC4/cyfitter_cfg.c **** 	CY_SET_XTND_REG32((void CYFAR *)(CYREG_PERI_PCLK_CTL11), 0x00000044u);
 214              		.loc 1 231 0
 215 007c 4422     		mov	r2, #68
 216 007e 1F4B     		ldr	r3, .L8+88
 217 0080 1A60     		str	r2, [r3]
 232:.\Generated_Source\PSoC4/cyfitter_cfg.c **** 
 233:.\Generated_Source\PSoC4/cyfitter_cfg.c **** 	/* CYDEV_PERI_PCLK_CTL10 Starting address: CYDEV_PERI_PCLK_CTL10 */
ARM GAS  C:\Users\Tim\AppData\Local\Temp\ccoyQTkh.s 			page 9


 234:.\Generated_Source\PSoC4/cyfitter_cfg.c **** 	CY_SET_XTND_REG32((void CYFAR *)(CYREG_PERI_PCLK_CTL10), 0x00000040u);
 218              		.loc 1 234 0
 219 0082 043A     		sub	r2, r2, #4
 220 0084 1E4B     		ldr	r3, .L8+92
 221 0086 1A60     		str	r2, [r3]
 235:.\Generated_Source\PSoC4/cyfitter_cfg.c **** 
 236:.\Generated_Source\PSoC4/cyfitter_cfg.c **** 	/* CYDEV_PERI_PCLK_CTL2 Starting address: CYDEV_PERI_PCLK_CTL2 */
 237:.\Generated_Source\PSoC4/cyfitter_cfg.c **** 	CY_SET_XTND_REG32((void CYFAR *)(CYREG_PERI_PCLK_CTL2), 0x00000043u);
 222              		.loc 1 237 0
 223 0088 0332     		add	r2, r2, #3
 224 008a 1E4B     		ldr	r3, .L8+96
 225 008c 1A60     		str	r2, [r3]
 238:.\Generated_Source\PSoC4/cyfitter_cfg.c **** 
 239:.\Generated_Source\PSoC4/cyfitter_cfg.c **** 	(void)CyIntSetVector(8u, &CySysWdtIsr);
 226              		.loc 1 239 0
 227 008e 0820     		mov	r0, #8
 228 0090 1D49     		ldr	r1, .L8+100
 229 0092 FFF7FEFF 		bl	CyIntSetVector
 230              	.LVL16:
 240:.\Generated_Source\PSoC4/cyfitter_cfg.c **** 	CyIntEnable(8u);
 231              		.loc 1 240 0
 232 0096 0820     		mov	r0, #8
 233 0098 FFF7FEFF 		bl	CyIntEnable
 234              	.LVL17:
 241:.\Generated_Source\PSoC4/cyfitter_cfg.c **** 	CY_SET_XTND_REG32((void CYFAR *)(CYREG_WDT_CONFIG), 0x00000000u);
 235              		.loc 1 241 0
 236 009c 0022     		mov	r2, #0
 237 009e 1B4B     		ldr	r3, .L8+104
 238 00a0 1A60     		str	r2, [r3]
 242:.\Generated_Source\PSoC4/cyfitter_cfg.c **** }
 239              		.loc 1 242 0
 240              		@ sp needed
 241 00a2 08BD     		pop	{r3, pc}
 242              	.L9:
 243              		.align	2
 244              	.L8:
 245 00a4 30001040 		.word	1074790448
 246 00a8 06000080 		.word	-2147483642
 247 00ac 04010B40 		.word	1074462980
 248 00b0 08030140 		.word	1073808136
 249 00b4 00000140 		.word	1073807360
 250 00b8 42FF0080 		.word	-2147418302
 251 00bc 04030140 		.word	1073808132
 252 00c0 41FF0080 		.word	-2147418303
 253 00c4 14030140 		.word	1073808148
 254 00c8 45FF0080 		.word	-2147418299
 255 00cc 10030140 		.word	1073808144
 256 00d0 44FF0080 		.word	-2147418300
 257 00d4 00030140 		.word	1073808128
 258 00d8 40FF0080 		.word	-2147418304
 259 00dc 0C030140 		.word	1073808140
 260 00e0 43FF0080 		.word	-2147418301
 261 00e4 08010B40 		.word	1074462984
 262 00e8 00010B40 		.word	1074462976
 263 00ec 58010140 		.word	1073807704
 264 00f0 50010140 		.word	1073807696
 265 00f4 34010140 		.word	1073807668
ARM GAS  C:\Users\Tim\AppData\Local\Temp\ccoyQTkh.s 			page 10


 266 00f8 30010140 		.word	1073807664
 267 00fc 2C010140 		.word	1073807660
 268 0100 28010140 		.word	1073807656
 269 0104 08010140 		.word	1073807624
 270 0108 00000000 		.word	CySysWdtIsr
 271 010c 0C020B40 		.word	1074463244
 272              		.cfi_endproc
 273              	.LFE6:
 274              		.size	ClockSetup, .-ClockSetup
 275              		.section	.text.SetAnalogRoutingPumps,"ax",%progbits
 276              		.align	2
 277              		.global	SetAnalogRoutingPumps
 278              		.code	16
 279              		.thumb_func
 280              		.type	SetAnalogRoutingPumps, %function
 281              	SetAnalogRoutingPumps:
 282              	.LFB8:
 243:.\Generated_Source\PSoC4/cyfitter_cfg.c **** 
 244:.\Generated_Source\PSoC4/cyfitter_cfg.c **** 
 245:.\Generated_Source\PSoC4/cyfitter_cfg.c **** /* Analog API Functions */
 246:.\Generated_Source\PSoC4/cyfitter_cfg.c **** 
 247:.\Generated_Source\PSoC4/cyfitter_cfg.c **** 
 248:.\Generated_Source\PSoC4/cyfitter_cfg.c **** /*******************************************************************************
 249:.\Generated_Source\PSoC4/cyfitter_cfg.c **** * Function Name: AnalogSetDefault
 250:.\Generated_Source\PSoC4/cyfitter_cfg.c **** ********************************************************************************
 251:.\Generated_Source\PSoC4/cyfitter_cfg.c **** *
 252:.\Generated_Source\PSoC4/cyfitter_cfg.c **** * Summary:
 253:.\Generated_Source\PSoC4/cyfitter_cfg.c **** *  Sets up the analog portions of the chip to default values based on chip
 254:.\Generated_Source\PSoC4/cyfitter_cfg.c **** *  configuration options from the project.
 255:.\Generated_Source\PSoC4/cyfitter_cfg.c **** *
 256:.\Generated_Source\PSoC4/cyfitter_cfg.c **** * Parameters:
 257:.\Generated_Source\PSoC4/cyfitter_cfg.c **** *  void
 258:.\Generated_Source\PSoC4/cyfitter_cfg.c **** *
 259:.\Generated_Source\PSoC4/cyfitter_cfg.c **** * Return:
 260:.\Generated_Source\PSoC4/cyfitter_cfg.c **** *  void
 261:.\Generated_Source\PSoC4/cyfitter_cfg.c **** *
 262:.\Generated_Source\PSoC4/cyfitter_cfg.c **** *******************************************************************************/
 263:.\Generated_Source\PSoC4/cyfitter_cfg.c **** static void AnalogSetDefault(void);
 264:.\Generated_Source\PSoC4/cyfitter_cfg.c **** static void AnalogSetDefault(void)
 265:.\Generated_Source\PSoC4/cyfitter_cfg.c **** {
 266:.\Generated_Source\PSoC4/cyfitter_cfg.c **** 	CY_SET_XTND_REG32((void CYFAR *)CYREG_CTBM0_DFT_CTRL, 0x00000003u);
 267:.\Generated_Source\PSoC4/cyfitter_cfg.c **** 	CY_SET_XTND_REG32((void CYFAR *)CYREG_CTBM1_DFT_CTRL, 0x00000003u);
 268:.\Generated_Source\PSoC4/cyfitter_cfg.c **** 	CY_SET_XTND_REG32((void CYFAR *)CYREG_SAR_CTRL, 0x08000000u);
 269:.\Generated_Source\PSoC4/cyfitter_cfg.c **** 	CY_SET_XTND_REG32((void CYFAR *)CYREG_SAR_MUX_SWITCH0, 0x000400FFu);
 270:.\Generated_Source\PSoC4/cyfitter_cfg.c **** 	CY_SET_XTND_REG32((void CYFAR *)CYREG_SAR_MUX_SWITCH_HW_CTRL, 0x000000FFu);
 271:.\Generated_Source\PSoC4/cyfitter_cfg.c **** 	CY_SET_XTND_REG32((void CYFAR *)CYREG_PASS_DSAB_DSAB_CTRL, 0x00000000u);
 272:.\Generated_Source\PSoC4/cyfitter_cfg.c **** 	SetAnalogRoutingPumps(1);
 273:.\Generated_Source\PSoC4/cyfitter_cfg.c **** }
 274:.\Generated_Source\PSoC4/cyfitter_cfg.c **** 
 275:.\Generated_Source\PSoC4/cyfitter_cfg.c **** 
 276:.\Generated_Source\PSoC4/cyfitter_cfg.c **** /*******************************************************************************
 277:.\Generated_Source\PSoC4/cyfitter_cfg.c **** * Function Name: SetAnalogRoutingPumps
 278:.\Generated_Source\PSoC4/cyfitter_cfg.c **** ********************************************************************************
 279:.\Generated_Source\PSoC4/cyfitter_cfg.c **** *
 280:.\Generated_Source\PSoC4/cyfitter_cfg.c **** * Summary:
 281:.\Generated_Source\PSoC4/cyfitter_cfg.c **** * Enables or disables the analog pumps feeding analog routing switches.
 282:.\Generated_Source\PSoC4/cyfitter_cfg.c **** * Intended to be called at startup, based on the Vdda system configuration;
ARM GAS  C:\Users\Tim\AppData\Local\Temp\ccoyQTkh.s 			page 11


 283:.\Generated_Source\PSoC4/cyfitter_cfg.c **** * may be called during operation when the user informs us that the Vdda voltage crossed the pump th
 284:.\Generated_Source\PSoC4/cyfitter_cfg.c **** *
 285:.\Generated_Source\PSoC4/cyfitter_cfg.c **** * Parameters:
 286:.\Generated_Source\PSoC4/cyfitter_cfg.c **** *  enabled - 1 to enable the pumps, 0 to disable the pumps
 287:.\Generated_Source\PSoC4/cyfitter_cfg.c **** *
 288:.\Generated_Source\PSoC4/cyfitter_cfg.c **** * Return:
 289:.\Generated_Source\PSoC4/cyfitter_cfg.c **** *  void
 290:.\Generated_Source\PSoC4/cyfitter_cfg.c **** *
 291:.\Generated_Source\PSoC4/cyfitter_cfg.c **** *******************************************************************************/
 292:.\Generated_Source\PSoC4/cyfitter_cfg.c **** void SetAnalogRoutingPumps(uint8 enabled)
 293:.\Generated_Source\PSoC4/cyfitter_cfg.c **** {
 283              		.loc 1 293 0
 284              		.cfi_startproc
 285              	.LVL18:
 294:.\Generated_Source\PSoC4/cyfitter_cfg.c **** 	uint32 regValue = CY_GET_XTND_REG32((void *)(CYREG_SAR_PUMP_CTRL));
 286              		.loc 1 294 0
 287 0000 064B     		ldr	r3, .L13
 288 0002 1B68     		ldr	r3, [r3]
 289              	.LVL19:
 295:.\Generated_Source\PSoC4/cyfitter_cfg.c **** 	if (enabled != 0u)
 290              		.loc 1 295 0
 291 0004 0028     		cmp	r0, #0
 292 0006 03D0     		beq	.L11
 296:.\Generated_Source\PSoC4/cyfitter_cfg.c **** 	{
 297:.\Generated_Source\PSoC4/cyfitter_cfg.c **** 		regValue |= 0x80000000u;
 293              		.loc 1 297 0
 294 0008 8022     		mov	r2, #128
 295 000a 1206     		lsl	r2, r2, #24
 296 000c 1343     		orr	r3, r2
 297              	.LVL20:
 298 000e 01E0     		b	.L12
 299              	.L11:
 298:.\Generated_Source\PSoC4/cyfitter_cfg.c **** 	}
 299:.\Generated_Source\PSoC4/cyfitter_cfg.c **** 	else
 300:.\Generated_Source\PSoC4/cyfitter_cfg.c **** 	{
 301:.\Generated_Source\PSoC4/cyfitter_cfg.c **** 		regValue &= ~0x80000000u;
 300              		.loc 1 301 0
 301 0010 5B00     		lsl	r3, r3, #1
 302              	.LVL21:
 303 0012 5B08     		lsr	r3, r3, #1
 304              	.LVL22:
 305              	.L12:
 302:.\Generated_Source\PSoC4/cyfitter_cfg.c **** 	}
 303:.\Generated_Source\PSoC4/cyfitter_cfg.c **** 	CY_SET_XTND_REG32((void *)(CYREG_SAR_PUMP_CTRL), regValue);
 306              		.loc 1 303 0
 307 0014 014A     		ldr	r2, .L13
 308 0016 1360     		str	r3, [r2]
 304:.\Generated_Source\PSoC4/cyfitter_cfg.c **** }
 309              		.loc 1 304 0
 310              		@ sp needed
 311 0018 7047     		bx	lr
 312              	.L14:
 313 001a C046     		.align	2
 314              	.L13:
 315 001c 80033A40 		.word	1077543808
 316              		.cfi_endproc
 317              	.LFE8:
ARM GAS  C:\Users\Tim\AppData\Local\Temp\ccoyQTkh.s 			page 12


 318              		.size	SetAnalogRoutingPumps, .-SetAnalogRoutingPumps
 319              		.section	.text.AnalogSetDefault,"ax",%progbits
 320              		.align	2
 321              		.code	16
 322              		.thumb_func
 323              		.type	AnalogSetDefault, %function
 324              	AnalogSetDefault:
 325              	.LFB7:
 265:.\Generated_Source\PSoC4/cyfitter_cfg.c **** 	CY_SET_XTND_REG32((void CYFAR *)CYREG_CTBM0_DFT_CTRL, 0x00000003u);
 326              		.loc 1 265 0
 327              		.cfi_startproc
 328 0000 08B5     		push	{r3, lr}
 329              		.cfi_def_cfa_offset 8
 330              		.cfi_offset 3, -8
 331              		.cfi_offset 14, -4
 266:.\Generated_Source\PSoC4/cyfitter_cfg.c **** 	CY_SET_XTND_REG32((void CYFAR *)CYREG_CTBM1_DFT_CTRL, 0x00000003u);
 332              		.loc 1 266 0
 333 0002 0323     		mov	r3, #3
 334 0004 0A4A     		ldr	r2, .L16
 335 0006 1360     		str	r3, [r2]
 267:.\Generated_Source\PSoC4/cyfitter_cfg.c **** 	CY_SET_XTND_REG32((void CYFAR *)CYREG_SAR_CTRL, 0x08000000u);
 336              		.loc 1 267 0
 337 0008 0A4A     		ldr	r2, .L16+4
 338 000a 1360     		str	r3, [r2]
 268:.\Generated_Source\PSoC4/cyfitter_cfg.c **** 	CY_SET_XTND_REG32((void CYFAR *)CYREG_SAR_MUX_SWITCH0, 0x000400FFu);
 339              		.loc 1 268 0
 340 000c 8022     		mov	r2, #128
 341 000e 1205     		lsl	r2, r2, #20
 342 0010 094B     		ldr	r3, .L16+8
 343 0012 1A60     		str	r2, [r3]
 269:.\Generated_Source\PSoC4/cyfitter_cfg.c **** 	CY_SET_XTND_REG32((void CYFAR *)CYREG_SAR_MUX_SWITCH_HW_CTRL, 0x000000FFu);
 344              		.loc 1 269 0
 345 0014 094A     		ldr	r2, .L16+12
 346 0016 0A4B     		ldr	r3, .L16+16
 347 0018 1A60     		str	r2, [r3]
 270:.\Generated_Source\PSoC4/cyfitter_cfg.c **** 	CY_SET_XTND_REG32((void CYFAR *)CYREG_PASS_DSAB_DSAB_CTRL, 0x00000000u);
 348              		.loc 1 270 0
 349 001a FF22     		mov	r2, #255
 350 001c 094B     		ldr	r3, .L16+20
 351 001e 1A60     		str	r2, [r3]
 271:.\Generated_Source\PSoC4/cyfitter_cfg.c **** 	SetAnalogRoutingPumps(1);
 352              		.loc 1 271 0
 353 0020 0022     		mov	r2, #0
 354 0022 094B     		ldr	r3, .L16+24
 355 0024 1A60     		str	r2, [r3]
 272:.\Generated_Source\PSoC4/cyfitter_cfg.c **** }
 356              		.loc 1 272 0
 357 0026 0120     		mov	r0, #1
 358 0028 FFF7FEFF 		bl	SetAnalogRoutingPumps
 359              	.LVL23:
 273:.\Generated_Source\PSoC4/cyfitter_cfg.c **** 
 360              		.loc 1 273 0
 361              		@ sp needed
 362 002c 08BD     		pop	{r3, pc}
 363              	.L17:
 364 002e C046     		.align	2
 365              	.L16:
ARM GAS  C:\Users\Tim\AppData\Local\Temp\ccoyQTkh.s 			page 13


 366 0030 30003040 		.word	1076887600
 367 0034 30003140 		.word	1076953136
 368 0038 00003A40 		.word	1077542912
 369 003c FF000400 		.word	262399
 370 0040 00033A40 		.word	1077543680
 371 0044 40033A40 		.word	1077543744
 372 0048 000E3F40 		.word	1077874176
 373              		.cfi_endproc
 374              	.LFE7:
 375              		.size	AnalogSetDefault, .-AnalogSetDefault
 376              		.section	.psocinit
 377              		.align	2
 378              		.global	cyfitter_cfg
 379              		.code	16
 380              		.thumb_func
 381              		.type	cyfitter_cfg, %function
 382              	cyfitter_cfg:
 383              	.LFB9:
 305:.\Generated_Source\PSoC4/cyfitter_cfg.c **** 
 306:.\Generated_Source\PSoC4/cyfitter_cfg.c **** #define CY_AMUX_UNUSED CYREG_CM0_ROM_DWT
 307:.\Generated_Source\PSoC4/cyfitter_cfg.c **** 
 308:.\Generated_Source\PSoC4/cyfitter_cfg.c **** 
 309:.\Generated_Source\PSoC4/cyfitter_cfg.c **** /*******************************************************************************
 310:.\Generated_Source\PSoC4/cyfitter_cfg.c **** * Function Name: cyfitter_cfg
 311:.\Generated_Source\PSoC4/cyfitter_cfg.c **** ********************************************************************************
 312:.\Generated_Source\PSoC4/cyfitter_cfg.c **** * Summary:
 313:.\Generated_Source\PSoC4/cyfitter_cfg.c **** *  This function is called by the start-up code for the selected device. It
 314:.\Generated_Source\PSoC4/cyfitter_cfg.c **** *  performs all of the necessary device configuration based on the design
 315:.\Generated_Source\PSoC4/cyfitter_cfg.c **** *  settings.  This includes settings from the Design Wide Resources (DWR) such
 316:.\Generated_Source\PSoC4/cyfitter_cfg.c **** *  as Clocks and Pins as well as any component configuration that is necessary.
 317:.\Generated_Source\PSoC4/cyfitter_cfg.c **** *
 318:.\Generated_Source\PSoC4/cyfitter_cfg.c **** * Parameters:  
 319:.\Generated_Source\PSoC4/cyfitter_cfg.c **** *   void
 320:.\Generated_Source\PSoC4/cyfitter_cfg.c **** *
 321:.\Generated_Source\PSoC4/cyfitter_cfg.c **** * Return:
 322:.\Generated_Source\PSoC4/cyfitter_cfg.c **** *   void
 323:.\Generated_Source\PSoC4/cyfitter_cfg.c **** *
 324:.\Generated_Source\PSoC4/cyfitter_cfg.c **** *******************************************************************************/
 325:.\Generated_Source\PSoC4/cyfitter_cfg.c **** CY_CFG_SECTION
 326:.\Generated_Source\PSoC4/cyfitter_cfg.c **** void cyfitter_cfg(void)
 327:.\Generated_Source\PSoC4/cyfitter_cfg.c **** {
 384              		.loc 1 327 0
 385              		.cfi_startproc
 386 0110 10B5     		push	{r4, lr}
 387              		.cfi_def_cfa_offset 8
 388              		.cfi_offset 4, -8
 389              		.cfi_offset 14, -4
 328:.\Generated_Source\PSoC4/cyfitter_cfg.c **** 	/* Disable interrupts by default. Let user enable if/when they want. */
 329:.\Generated_Source\PSoC4/cyfitter_cfg.c **** 	CyGlobalIntDisable;
 390              		.loc 1 329 0
 391              	@ 329 ".\Generated_Source\PSoC4\cyfitter_cfg.c" 1
 392 0112 72B6     		CPSID   i
 393              	@ 0 "" 2
 330:.\Generated_Source\PSoC4/cyfitter_cfg.c **** 
 331:.\Generated_Source\PSoC4/cyfitter_cfg.c **** 	/* Enable the clock in the interrupt controller for the routed interrupts */
 332:.\Generated_Source\PSoC4/cyfitter_cfg.c **** 	CY_SET_REG8((void *)CYREG_UDB_UDB_INT_CLK_CTL, 0x01u);
 394              		.loc 1 332 0
ARM GAS  C:\Users\Tim\AppData\Local\Temp\ccoyQTkh.s 			page 14


 395              		.code	16
 396 0114 0122     		mov	r2, #1
 397 0116 514B     		ldr	r3, .L21
 398 0118 1A70     		strb	r2, [r3]
 399              	.LVL24:
 400              	.LBB3:
 333:.\Generated_Source\PSoC4/cyfitter_cfg.c **** 	{
 334:.\Generated_Source\PSoC4/cyfitter_cfg.c **** 		static const uint32 CYCODE cy_cfg_addr_table[] = {
 335:.\Generated_Source\PSoC4/cyfitter_cfg.c **** 			0x400F0002u, /* Base address: 0x400F0000 Count: 2 */
 336:.\Generated_Source\PSoC4/cyfitter_cfg.c **** 			0x400F3065u, /* Base address: 0x400F3000 Count: 101 */
 337:.\Generated_Source\PSoC4/cyfitter_cfg.c **** 			0x400F3138u, /* Base address: 0x400F3100 Count: 56 */
 338:.\Generated_Source\PSoC4/cyfitter_cfg.c **** 			0x400F326Bu, /* Base address: 0x400F3200 Count: 107 */
 339:.\Generated_Source\PSoC4/cyfitter_cfg.c **** 			0x400F3350u, /* Base address: 0x400F3300 Count: 80 */
 340:.\Generated_Source\PSoC4/cyfitter_cfg.c **** 			0x400F3472u, /* Base address: 0x400F3400 Count: 114 */
 341:.\Generated_Source\PSoC4/cyfitter_cfg.c **** 			0x400F3549u, /* Base address: 0x400F3500 Count: 73 */
 342:.\Generated_Source\PSoC4/cyfitter_cfg.c **** 			0x400F365Eu, /* Base address: 0x400F3600 Count: 94 */
 343:.\Generated_Source\PSoC4/cyfitter_cfg.c **** 			0x400F3748u, /* Base address: 0x400F3700 Count: 72 */
 344:.\Generated_Source\PSoC4/cyfitter_cfg.c **** 			0x400F400Eu, /* Base address: 0x400F4000 Count: 14 */
 345:.\Generated_Source\PSoC4/cyfitter_cfg.c **** 			0x400F4116u, /* Base address: 0x400F4100 Count: 22 */
 346:.\Generated_Source\PSoC4/cyfitter_cfg.c **** 			0x400F4222u, /* Base address: 0x400F4200 Count: 34 */
 347:.\Generated_Source\PSoC4/cyfitter_cfg.c **** 			0x400F4316u, /* Base address: 0x400F4300 Count: 22 */
 348:.\Generated_Source\PSoC4/cyfitter_cfg.c **** 			0x400F440Au, /* Base address: 0x400F4400 Count: 10 */
 349:.\Generated_Source\PSoC4/cyfitter_cfg.c **** 			0x400F4510u, /* Base address: 0x400F4500 Count: 16 */
 350:.\Generated_Source\PSoC4/cyfitter_cfg.c **** 			0x400F4613u, /* Base address: 0x400F4600 Count: 19 */
 351:.\Generated_Source\PSoC4/cyfitter_cfg.c **** 			0x400F470Au, /* Base address: 0x400F4700 Count: 10 */
 352:.\Generated_Source\PSoC4/cyfitter_cfg.c **** 			0x400F6003u, /* Base address: 0x400F6000 Count: 3 */
 353:.\Generated_Source\PSoC4/cyfitter_cfg.c **** 		};
 354:.\Generated_Source\PSoC4/cyfitter_cfg.c **** 
 355:.\Generated_Source\PSoC4/cyfitter_cfg.c **** 		static const cy_cfg_addrvalue_t CYCODE cy_cfg_data_table[] = {
 356:.\Generated_Source\PSoC4/cyfitter_cfg.c **** 			{0x80u, 0x6Fu},
 357:.\Generated_Source\PSoC4/cyfitter_cfg.c **** 			{0x87u, 0x6Fu},
 358:.\Generated_Source\PSoC4/cyfitter_cfg.c **** 			{0x03u, 0x20u},
 359:.\Generated_Source\PSoC4/cyfitter_cfg.c **** 			{0x07u, 0x02u},
 360:.\Generated_Source\PSoC4/cyfitter_cfg.c **** 			{0x0Bu, 0x08u},
 361:.\Generated_Source\PSoC4/cyfitter_cfg.c **** 			{0x0Eu, 0x0Cu},
 362:.\Generated_Source\PSoC4/cyfitter_cfg.c **** 			{0x0Fu, 0x01u},
 363:.\Generated_Source\PSoC4/cyfitter_cfg.c **** 			{0x10u, 0x01u},
 364:.\Generated_Source\PSoC4/cyfitter_cfg.c **** 			{0x11u, 0xFDu},
 365:.\Generated_Source\PSoC4/cyfitter_cfg.c **** 			{0x13u, 0x02u},
 366:.\Generated_Source\PSoC4/cyfitter_cfg.c **** 			{0x14u, 0x04u},
 367:.\Generated_Source\PSoC4/cyfitter_cfg.c **** 			{0x15u, 0x97u},
 368:.\Generated_Source\PSoC4/cyfitter_cfg.c **** 			{0x17u, 0x68u},
 369:.\Generated_Source\PSoC4/cyfitter_cfg.c **** 			{0x1Bu, 0x40u},
 370:.\Generated_Source\PSoC4/cyfitter_cfg.c **** 			{0x1Fu, 0x04u},
 371:.\Generated_Source\PSoC4/cyfitter_cfg.c **** 			{0x22u, 0x03u},
 372:.\Generated_Source\PSoC4/cyfitter_cfg.c **** 			{0x23u, 0x80u},
 373:.\Generated_Source\PSoC4/cyfitter_cfg.c **** 			{0x25u, 0x4Fu},
 374:.\Generated_Source\PSoC4/cyfitter_cfg.c **** 			{0x27u, 0xB0u},
 375:.\Generated_Source\PSoC4/cyfitter_cfg.c **** 			{0x2Bu, 0x10u},
 376:.\Generated_Source\PSoC4/cyfitter_cfg.c **** 			{0x2Du, 0x3Eu},
 377:.\Generated_Source\PSoC4/cyfitter_cfg.c **** 			{0x2Fu, 0xC1u},
 378:.\Generated_Source\PSoC4/cyfitter_cfg.c **** 			{0x30u, 0x02u},
 379:.\Generated_Source\PSoC4/cyfitter_cfg.c **** 			{0x32u, 0x08u},
 380:.\Generated_Source\PSoC4/cyfitter_cfg.c **** 			{0x34u, 0x04u},
 381:.\Generated_Source\PSoC4/cyfitter_cfg.c **** 			{0x35u, 0xFFu},
 382:.\Generated_Source\PSoC4/cyfitter_cfg.c **** 			{0x36u, 0x01u},
 383:.\Generated_Source\PSoC4/cyfitter_cfg.c **** 			{0x3Eu, 0x50u},
ARM GAS  C:\Users\Tim\AppData\Local\Temp\ccoyQTkh.s 			page 15


 384:.\Generated_Source\PSoC4/cyfitter_cfg.c **** 			{0x3Fu, 0x10u},
 385:.\Generated_Source\PSoC4/cyfitter_cfg.c **** 			{0x40u, 0x10u},
 386:.\Generated_Source\PSoC4/cyfitter_cfg.c **** 			{0x41u, 0x05u},
 387:.\Generated_Source\PSoC4/cyfitter_cfg.c **** 			{0x49u, 0xFFu},
 388:.\Generated_Source\PSoC4/cyfitter_cfg.c **** 			{0x4Au, 0xFFu},
 389:.\Generated_Source\PSoC4/cyfitter_cfg.c **** 			{0x4Bu, 0xFFu},
 390:.\Generated_Source\PSoC4/cyfitter_cfg.c **** 			{0x4Du, 0xA0u},
 391:.\Generated_Source\PSoC4/cyfitter_cfg.c **** 			{0x4Fu, 0x01u},
 392:.\Generated_Source\PSoC4/cyfitter_cfg.c **** 			{0x50u, 0x18u},
 393:.\Generated_Source\PSoC4/cyfitter_cfg.c **** 			{0x54u, 0x0Fu},
 394:.\Generated_Source\PSoC4/cyfitter_cfg.c **** 			{0x56u, 0x04u},
 395:.\Generated_Source\PSoC4/cyfitter_cfg.c **** 			{0x58u, 0x04u},
 396:.\Generated_Source\PSoC4/cyfitter_cfg.c **** 			{0x59u, 0x04u},
 397:.\Generated_Source\PSoC4/cyfitter_cfg.c **** 			{0x5Au, 0x04u},
 398:.\Generated_Source\PSoC4/cyfitter_cfg.c **** 			{0x5Bu, 0x04u},
 399:.\Generated_Source\PSoC4/cyfitter_cfg.c **** 			{0x5Cu, 0x01u},
 400:.\Generated_Source\PSoC4/cyfitter_cfg.c **** 			{0x5Du, 0x11u},
 401:.\Generated_Source\PSoC4/cyfitter_cfg.c **** 			{0x5Fu, 0x01u},
 402:.\Generated_Source\PSoC4/cyfitter_cfg.c **** 			{0x60u, 0x40u},
 403:.\Generated_Source\PSoC4/cyfitter_cfg.c **** 			{0x62u, 0x80u},
 404:.\Generated_Source\PSoC4/cyfitter_cfg.c **** 			{0x64u, 0x40u},
 405:.\Generated_Source\PSoC4/cyfitter_cfg.c **** 			{0x65u, 0x40u},
 406:.\Generated_Source\PSoC4/cyfitter_cfg.c **** 			{0x66u, 0x80u},
 407:.\Generated_Source\PSoC4/cyfitter_cfg.c **** 			{0x68u, 0x40u},
 408:.\Generated_Source\PSoC4/cyfitter_cfg.c **** 			{0x6Au, 0x80u},
 409:.\Generated_Source\PSoC4/cyfitter_cfg.c **** 			{0x6Cu, 0x40u},
 410:.\Generated_Source\PSoC4/cyfitter_cfg.c **** 			{0x6Du, 0x20u},
 411:.\Generated_Source\PSoC4/cyfitter_cfg.c **** 			{0x6Eu, 0x80u},
 412:.\Generated_Source\PSoC4/cyfitter_cfg.c **** 			{0x81u, 0x01u},
 413:.\Generated_Source\PSoC4/cyfitter_cfg.c **** 			{0x82u, 0x0Fu},
 414:.\Generated_Source\PSoC4/cyfitter_cfg.c **** 			{0x84u, 0x07u},
 415:.\Generated_Source\PSoC4/cyfitter_cfg.c **** 			{0x86u, 0x08u},
 416:.\Generated_Source\PSoC4/cyfitter_cfg.c **** 			{0x90u, 0x0Au},
 417:.\Generated_Source\PSoC4/cyfitter_cfg.c **** 			{0x92u, 0x05u},
 418:.\Generated_Source\PSoC4/cyfitter_cfg.c **** 			{0x93u, 0x04u},
 419:.\Generated_Source\PSoC4/cyfitter_cfg.c **** 			{0x9Bu, 0x08u},
 420:.\Generated_Source\PSoC4/cyfitter_cfg.c **** 			{0x9Cu, 0x01u},
 421:.\Generated_Source\PSoC4/cyfitter_cfg.c **** 			{0x9Eu, 0x0Eu},
 422:.\Generated_Source\PSoC4/cyfitter_cfg.c **** 			{0xA8u, 0x03u},
 423:.\Generated_Source\PSoC4/cyfitter_cfg.c **** 			{0xAAu, 0x0Cu},
 424:.\Generated_Source\PSoC4/cyfitter_cfg.c **** 			{0xABu, 0x03u},
 425:.\Generated_Source\PSoC4/cyfitter_cfg.c **** 			{0xB0u, 0x08u},
 426:.\Generated_Source\PSoC4/cyfitter_cfg.c **** 			{0xB1u, 0x02u},
 427:.\Generated_Source\PSoC4/cyfitter_cfg.c **** 			{0xB2u, 0x04u},
 428:.\Generated_Source\PSoC4/cyfitter_cfg.c **** 			{0xB3u, 0x01u},
 429:.\Generated_Source\PSoC4/cyfitter_cfg.c **** 			{0xB4u, 0x02u},
 430:.\Generated_Source\PSoC4/cyfitter_cfg.c **** 			{0xB5u, 0x04u},
 431:.\Generated_Source\PSoC4/cyfitter_cfg.c **** 			{0xB6u, 0x01u},
 432:.\Generated_Source\PSoC4/cyfitter_cfg.c **** 			{0xB7u, 0x08u},
 433:.\Generated_Source\PSoC4/cyfitter_cfg.c **** 			{0xBFu, 0x04u},
 434:.\Generated_Source\PSoC4/cyfitter_cfg.c **** 			{0xC0u, 0x10u},
 435:.\Generated_Source\PSoC4/cyfitter_cfg.c **** 			{0xC1u, 0x05u},
 436:.\Generated_Source\PSoC4/cyfitter_cfg.c **** 			{0xC9u, 0xFFu},
 437:.\Generated_Source\PSoC4/cyfitter_cfg.c **** 			{0xCAu, 0xFFu},
 438:.\Generated_Source\PSoC4/cyfitter_cfg.c **** 			{0xCBu, 0xFFu},
 439:.\Generated_Source\PSoC4/cyfitter_cfg.c **** 			{0xCDu, 0xAFu},
 440:.\Generated_Source\PSoC4/cyfitter_cfg.c **** 			{0xCEu, 0x07u},
ARM GAS  C:\Users\Tim\AppData\Local\Temp\ccoyQTkh.s 			page 16


 441:.\Generated_Source\PSoC4/cyfitter_cfg.c **** 			{0xCFu, 0x01u},
 442:.\Generated_Source\PSoC4/cyfitter_cfg.c **** 			{0xD0u, 0x18u},
 443:.\Generated_Source\PSoC4/cyfitter_cfg.c **** 			{0xD8u, 0x04u},
 444:.\Generated_Source\PSoC4/cyfitter_cfg.c **** 			{0xD9u, 0x04u},
 445:.\Generated_Source\PSoC4/cyfitter_cfg.c **** 			{0xDAu, 0x04u},
 446:.\Generated_Source\PSoC4/cyfitter_cfg.c **** 			{0xDCu, 0x13u},
 447:.\Generated_Source\PSoC4/cyfitter_cfg.c **** 			{0xDDu, 0x01u},
 448:.\Generated_Source\PSoC4/cyfitter_cfg.c **** 			{0xDFu, 0x01u},
 449:.\Generated_Source\PSoC4/cyfitter_cfg.c **** 			{0xE0u, 0x40u},
 450:.\Generated_Source\PSoC4/cyfitter_cfg.c **** 			{0xE2u, 0x80u},
 451:.\Generated_Source\PSoC4/cyfitter_cfg.c **** 			{0xE4u, 0x40u},
 452:.\Generated_Source\PSoC4/cyfitter_cfg.c **** 			{0xE5u, 0x40u},
 453:.\Generated_Source\PSoC4/cyfitter_cfg.c **** 			{0xE6u, 0x80u},
 454:.\Generated_Source\PSoC4/cyfitter_cfg.c **** 			{0xE8u, 0x40u},
 455:.\Generated_Source\PSoC4/cyfitter_cfg.c **** 			{0xEAu, 0x80u},
 456:.\Generated_Source\PSoC4/cyfitter_cfg.c **** 			{0xECu, 0x40u},
 457:.\Generated_Source\PSoC4/cyfitter_cfg.c **** 			{0xEDu, 0x20u},
 458:.\Generated_Source\PSoC4/cyfitter_cfg.c **** 			{0xEEu, 0x80u},
 459:.\Generated_Source\PSoC4/cyfitter_cfg.c **** 			{0x00u, 0x80u},
 460:.\Generated_Source\PSoC4/cyfitter_cfg.c **** 			{0x05u, 0x02u},
 461:.\Generated_Source\PSoC4/cyfitter_cfg.c **** 			{0x07u, 0x10u},
 462:.\Generated_Source\PSoC4/cyfitter_cfg.c **** 			{0x0Au, 0x50u},
 463:.\Generated_Source\PSoC4/cyfitter_cfg.c **** 			{0x0Fu, 0x41u},
 464:.\Generated_Source\PSoC4/cyfitter_cfg.c **** 			{0x12u, 0x40u},
 465:.\Generated_Source\PSoC4/cyfitter_cfg.c **** 			{0x15u, 0x10u},
 466:.\Generated_Source\PSoC4/cyfitter_cfg.c **** 			{0x19u, 0x40u},
 467:.\Generated_Source\PSoC4/cyfitter_cfg.c **** 			{0x1Au, 0x54u},
 468:.\Generated_Source\PSoC4/cyfitter_cfg.c **** 			{0x1Cu, 0x0Au},
 469:.\Generated_Source\PSoC4/cyfitter_cfg.c **** 			{0x1Du, 0x01u},
 470:.\Generated_Source\PSoC4/cyfitter_cfg.c **** 			{0x1Eu, 0x20u},
 471:.\Generated_Source\PSoC4/cyfitter_cfg.c **** 			{0x23u, 0x04u},
 472:.\Generated_Source\PSoC4/cyfitter_cfg.c **** 			{0x25u, 0x59u},
 473:.\Generated_Source\PSoC4/cyfitter_cfg.c **** 			{0x2Au, 0x82u},
 474:.\Generated_Source\PSoC4/cyfitter_cfg.c **** 			{0x2Bu, 0x14u},
 475:.\Generated_Source\PSoC4/cyfitter_cfg.c **** 			{0x2Du, 0x20u},
 476:.\Generated_Source\PSoC4/cyfitter_cfg.c **** 			{0x2Fu, 0x08u},
 477:.\Generated_Source\PSoC4/cyfitter_cfg.c **** 			{0x30u, 0x02u},
 478:.\Generated_Source\PSoC4/cyfitter_cfg.c **** 			{0x31u, 0x10u},
 479:.\Generated_Source\PSoC4/cyfitter_cfg.c **** 			{0x32u, 0x48u},
 480:.\Generated_Source\PSoC4/cyfitter_cfg.c **** 			{0x36u, 0x01u},
 481:.\Generated_Source\PSoC4/cyfitter_cfg.c **** 			{0x37u, 0x20u},
 482:.\Generated_Source\PSoC4/cyfitter_cfg.c **** 			{0x38u, 0x88u},
 483:.\Generated_Source\PSoC4/cyfitter_cfg.c **** 			{0x3Au, 0x01u},
 484:.\Generated_Source\PSoC4/cyfitter_cfg.c **** 			{0x3Bu, 0x10u},
 485:.\Generated_Source\PSoC4/cyfitter_cfg.c **** 			{0x3Du, 0x02u},
 486:.\Generated_Source\PSoC4/cyfitter_cfg.c **** 			{0x41u, 0x80u},
 487:.\Generated_Source\PSoC4/cyfitter_cfg.c **** 			{0x45u, 0x80u},
 488:.\Generated_Source\PSoC4/cyfitter_cfg.c **** 			{0x4Au, 0x02u},
 489:.\Generated_Source\PSoC4/cyfitter_cfg.c **** 			{0x4Eu, 0x02u},
 490:.\Generated_Source\PSoC4/cyfitter_cfg.c **** 			{0x58u, 0x01u},
 491:.\Generated_Source\PSoC4/cyfitter_cfg.c **** 			{0x59u, 0x60u},
 492:.\Generated_Source\PSoC4/cyfitter_cfg.c **** 			{0x5Au, 0x04u},
 493:.\Generated_Source\PSoC4/cyfitter_cfg.c **** 			{0x61u, 0x24u},
 494:.\Generated_Source\PSoC4/cyfitter_cfg.c **** 			{0x63u, 0x80u},
 495:.\Generated_Source\PSoC4/cyfitter_cfg.c **** 			{0x80u, 0x04u},
 496:.\Generated_Source\PSoC4/cyfitter_cfg.c **** 			{0x81u, 0x10u},
 497:.\Generated_Source\PSoC4/cyfitter_cfg.c **** 			{0x84u, 0x01u},
ARM GAS  C:\Users\Tim\AppData\Local\Temp\ccoyQTkh.s 			page 17


 498:.\Generated_Source\PSoC4/cyfitter_cfg.c **** 			{0x85u, 0x08u},
 499:.\Generated_Source\PSoC4/cyfitter_cfg.c **** 			{0x8Au, 0x10u},
 500:.\Generated_Source\PSoC4/cyfitter_cfg.c **** 			{0x8Cu, 0x44u},
 501:.\Generated_Source\PSoC4/cyfitter_cfg.c **** 			{0x8Eu, 0x02u},
 502:.\Generated_Source\PSoC4/cyfitter_cfg.c **** 			{0x8Fu, 0x40u},
 503:.\Generated_Source\PSoC4/cyfitter_cfg.c **** 			{0xC0u, 0x31u},
 504:.\Generated_Source\PSoC4/cyfitter_cfg.c **** 			{0xC2u, 0x9Cu},
 505:.\Generated_Source\PSoC4/cyfitter_cfg.c **** 			{0xC4u, 0x48u},
 506:.\Generated_Source\PSoC4/cyfitter_cfg.c **** 			{0xCAu, 0x2Fu},
 507:.\Generated_Source\PSoC4/cyfitter_cfg.c **** 			{0xCCu, 0xAFu},
 508:.\Generated_Source\PSoC4/cyfitter_cfg.c **** 			{0xCEu, 0x8Fu},
 509:.\Generated_Source\PSoC4/cyfitter_cfg.c **** 			{0xD0u, 0x18u},
 510:.\Generated_Source\PSoC4/cyfitter_cfg.c **** 			{0xD2u, 0x18u},
 511:.\Generated_Source\PSoC4/cyfitter_cfg.c **** 			{0xD6u, 0x0Fu},
 512:.\Generated_Source\PSoC4/cyfitter_cfg.c **** 			{0xD8u, 0x07u},
 513:.\Generated_Source\PSoC4/cyfitter_cfg.c **** 			{0xE2u, 0x80u},
 514:.\Generated_Source\PSoC4/cyfitter_cfg.c **** 			{0xE6u, 0x40u},
 515:.\Generated_Source\PSoC4/cyfitter_cfg.c **** 			{0x02u, 0x0Fu},
 516:.\Generated_Source\PSoC4/cyfitter_cfg.c **** 			{0x04u, 0x03u},
 517:.\Generated_Source\PSoC4/cyfitter_cfg.c **** 			{0x06u, 0x0Cu},
 518:.\Generated_Source\PSoC4/cyfitter_cfg.c **** 			{0x09u, 0x96u},
 519:.\Generated_Source\PSoC4/cyfitter_cfg.c **** 			{0x0Bu, 0x69u},
 520:.\Generated_Source\PSoC4/cyfitter_cfg.c **** 			{0x0Du, 0x0Fu},
 521:.\Generated_Source\PSoC4/cyfitter_cfg.c **** 			{0x0Fu, 0xF0u},
 522:.\Generated_Source\PSoC4/cyfitter_cfg.c **** 			{0x10u, 0x06u},
 523:.\Generated_Source\PSoC4/cyfitter_cfg.c **** 			{0x12u, 0x09u},
 524:.\Generated_Source\PSoC4/cyfitter_cfg.c **** 			{0x15u, 0x33u},
 525:.\Generated_Source\PSoC4/cyfitter_cfg.c **** 			{0x17u, 0xCCu},
 526:.\Generated_Source\PSoC4/cyfitter_cfg.c **** 			{0x19u, 0x55u},
 527:.\Generated_Source\PSoC4/cyfitter_cfg.c **** 			{0x1Bu, 0xAAu},
 528:.\Generated_Source\PSoC4/cyfitter_cfg.c **** 			{0x1Cu, 0x07u},
 529:.\Generated_Source\PSoC4/cyfitter_cfg.c **** 			{0x1Eu, 0x08u},
 530:.\Generated_Source\PSoC4/cyfitter_cfg.c **** 			{0x28u, 0x0Au},
 531:.\Generated_Source\PSoC4/cyfitter_cfg.c **** 			{0x2Au, 0x05u},
 532:.\Generated_Source\PSoC4/cyfitter_cfg.c **** 			{0x30u, 0x02u},
 533:.\Generated_Source\PSoC4/cyfitter_cfg.c **** 			{0x31u, 0xFFu},
 534:.\Generated_Source\PSoC4/cyfitter_cfg.c **** 			{0x32u, 0x08u},
 535:.\Generated_Source\PSoC4/cyfitter_cfg.c **** 			{0x34u, 0x04u},
 536:.\Generated_Source\PSoC4/cyfitter_cfg.c **** 			{0x36u, 0x01u},
 537:.\Generated_Source\PSoC4/cyfitter_cfg.c **** 			{0x40u, 0x40u},
 538:.\Generated_Source\PSoC4/cyfitter_cfg.c **** 			{0x41u, 0x05u},
 539:.\Generated_Source\PSoC4/cyfitter_cfg.c **** 			{0x49u, 0xFFu},
 540:.\Generated_Source\PSoC4/cyfitter_cfg.c **** 			{0x4Au, 0xFFu},
 541:.\Generated_Source\PSoC4/cyfitter_cfg.c **** 			{0x4Bu, 0xFFu},
 542:.\Generated_Source\PSoC4/cyfitter_cfg.c **** 			{0x4Du, 0xAFu},
 543:.\Generated_Source\PSoC4/cyfitter_cfg.c **** 			{0x4Eu, 0x07u},
 544:.\Generated_Source\PSoC4/cyfitter_cfg.c **** 			{0x4Fu, 0x01u},
 545:.\Generated_Source\PSoC4/cyfitter_cfg.c **** 			{0x50u, 0x18u},
 546:.\Generated_Source\PSoC4/cyfitter_cfg.c **** 			{0x58u, 0x04u},
 547:.\Generated_Source\PSoC4/cyfitter_cfg.c **** 			{0x59u, 0x04u},
 548:.\Generated_Source\PSoC4/cyfitter_cfg.c **** 			{0x5Au, 0x04u},
 549:.\Generated_Source\PSoC4/cyfitter_cfg.c **** 			{0x5Cu, 0x13u},
 550:.\Generated_Source\PSoC4/cyfitter_cfg.c **** 			{0x5Du, 0x01u},
 551:.\Generated_Source\PSoC4/cyfitter_cfg.c **** 			{0x5Fu, 0x01u},
 552:.\Generated_Source\PSoC4/cyfitter_cfg.c **** 			{0x60u, 0x40u},
 553:.\Generated_Source\PSoC4/cyfitter_cfg.c **** 			{0x62u, 0x80u},
 554:.\Generated_Source\PSoC4/cyfitter_cfg.c **** 			{0x64u, 0x40u},
ARM GAS  C:\Users\Tim\AppData\Local\Temp\ccoyQTkh.s 			page 18


 555:.\Generated_Source\PSoC4/cyfitter_cfg.c **** 			{0x65u, 0x40u},
 556:.\Generated_Source\PSoC4/cyfitter_cfg.c **** 			{0x66u, 0x80u},
 557:.\Generated_Source\PSoC4/cyfitter_cfg.c **** 			{0x68u, 0x40u},
 558:.\Generated_Source\PSoC4/cyfitter_cfg.c **** 			{0x6Au, 0x80u},
 559:.\Generated_Source\PSoC4/cyfitter_cfg.c **** 			{0x6Cu, 0x40u},
 560:.\Generated_Source\PSoC4/cyfitter_cfg.c **** 			{0x6Du, 0x20u},
 561:.\Generated_Source\PSoC4/cyfitter_cfg.c **** 			{0x6Eu, 0x80u},
 562:.\Generated_Source\PSoC4/cyfitter_cfg.c **** 			{0x81u, 0x54u},
 563:.\Generated_Source\PSoC4/cyfitter_cfg.c **** 			{0x82u, 0x0Fu},
 564:.\Generated_Source\PSoC4/cyfitter_cfg.c **** 			{0x83u, 0xABu},
 565:.\Generated_Source\PSoC4/cyfitter_cfg.c **** 			{0x84u, 0x03u},
 566:.\Generated_Source\PSoC4/cyfitter_cfg.c **** 			{0x86u, 0x0Cu},
 567:.\Generated_Source\PSoC4/cyfitter_cfg.c **** 			{0x87u, 0x80u},
 568:.\Generated_Source\PSoC4/cyfitter_cfg.c **** 			{0x89u, 0x0Eu},
 569:.\Generated_Source\PSoC4/cyfitter_cfg.c **** 			{0x8Bu, 0xF1u},
 570:.\Generated_Source\PSoC4/cyfitter_cfg.c **** 			{0x8Fu, 0x04u},
 571:.\Generated_Source\PSoC4/cyfitter_cfg.c **** 			{0x91u, 0x01u},
 572:.\Generated_Source\PSoC4/cyfitter_cfg.c **** 			{0x93u, 0xFEu},
 573:.\Generated_Source\PSoC4/cyfitter_cfg.c **** 			{0x97u, 0x01u},
 574:.\Generated_Source\PSoC4/cyfitter_cfg.c **** 			{0x9Bu, 0x02u},
 575:.\Generated_Source\PSoC4/cyfitter_cfg.c **** 			{0x9Fu, 0x40u},
 576:.\Generated_Source\PSoC4/cyfitter_cfg.c **** 			{0xA2u, 0x0Fu},
 577:.\Generated_Source\PSoC4/cyfitter_cfg.c **** 			{0xA3u, 0x20u},
 578:.\Generated_Source\PSoC4/cyfitter_cfg.c **** 			{0xA5u, 0x32u},
 579:.\Generated_Source\PSoC4/cyfitter_cfg.c **** 			{0xA7u, 0xCDu},
 580:.\Generated_Source\PSoC4/cyfitter_cfg.c **** 			{0xA8u, 0x09u},
 581:.\Generated_Source\PSoC4/cyfitter_cfg.c **** 			{0xAAu, 0x06u},
 582:.\Generated_Source\PSoC4/cyfitter_cfg.c **** 			{0xABu, 0x10u},
 583:.\Generated_Source\PSoC4/cyfitter_cfg.c **** 			{0xACu, 0x0Au},
 584:.\Generated_Source\PSoC4/cyfitter_cfg.c **** 			{0xAEu, 0x05u},
 585:.\Generated_Source\PSoC4/cyfitter_cfg.c **** 			{0xAFu, 0x08u},
 586:.\Generated_Source\PSoC4/cyfitter_cfg.c **** 			{0xB0u, 0x08u},
 587:.\Generated_Source\PSoC4/cyfitter_cfg.c **** 			{0xB2u, 0x04u},
 588:.\Generated_Source\PSoC4/cyfitter_cfg.c **** 			{0xB3u, 0xFFu},
 589:.\Generated_Source\PSoC4/cyfitter_cfg.c **** 			{0xB4u, 0x01u},
 590:.\Generated_Source\PSoC4/cyfitter_cfg.c **** 			{0xB6u, 0x02u},
 591:.\Generated_Source\PSoC4/cyfitter_cfg.c **** 			{0xBFu, 0x04u},
 592:.\Generated_Source\PSoC4/cyfitter_cfg.c **** 			{0xC0u, 0x10u},
 593:.\Generated_Source\PSoC4/cyfitter_cfg.c **** 			{0xC1u, 0x05u},
 594:.\Generated_Source\PSoC4/cyfitter_cfg.c **** 			{0xC5u, 0x3Eu},
 595:.\Generated_Source\PSoC4/cyfitter_cfg.c **** 			{0xC6u, 0xC5u},
 596:.\Generated_Source\PSoC4/cyfitter_cfg.c **** 			{0xC7u, 0x02u},
 597:.\Generated_Source\PSoC4/cyfitter_cfg.c **** 			{0xC8u, 0x1Fu},
 598:.\Generated_Source\PSoC4/cyfitter_cfg.c **** 			{0xC9u, 0xFFu},
 599:.\Generated_Source\PSoC4/cyfitter_cfg.c **** 			{0xCAu, 0xFFu},
 600:.\Generated_Source\PSoC4/cyfitter_cfg.c **** 			{0xCBu, 0xFFu},
 601:.\Generated_Source\PSoC4/cyfitter_cfg.c **** 			{0xCDu, 0xAFu},
 602:.\Generated_Source\PSoC4/cyfitter_cfg.c **** 			{0xCEu, 0x07u},
 603:.\Generated_Source\PSoC4/cyfitter_cfg.c **** 			{0xCFu, 0x01u},
 604:.\Generated_Source\PSoC4/cyfitter_cfg.c **** 			{0xD0u, 0x18u},
 605:.\Generated_Source\PSoC4/cyfitter_cfg.c **** 			{0xD8u, 0x04u},
 606:.\Generated_Source\PSoC4/cyfitter_cfg.c **** 			{0xD9u, 0x04u},
 607:.\Generated_Source\PSoC4/cyfitter_cfg.c **** 			{0xDAu, 0x04u},
 608:.\Generated_Source\PSoC4/cyfitter_cfg.c **** 			{0xDBu, 0x04u},
 609:.\Generated_Source\PSoC4/cyfitter_cfg.c **** 			{0xDCu, 0x03u},
 610:.\Generated_Source\PSoC4/cyfitter_cfg.c **** 			{0xDDu, 0x01u},
 611:.\Generated_Source\PSoC4/cyfitter_cfg.c **** 			{0xDFu, 0x01u},
ARM GAS  C:\Users\Tim\AppData\Local\Temp\ccoyQTkh.s 			page 19


 612:.\Generated_Source\PSoC4/cyfitter_cfg.c **** 			{0xE0u, 0x40u},
 613:.\Generated_Source\PSoC4/cyfitter_cfg.c **** 			{0xE2u, 0x80u},
 614:.\Generated_Source\PSoC4/cyfitter_cfg.c **** 			{0xE4u, 0x40u},
 615:.\Generated_Source\PSoC4/cyfitter_cfg.c **** 			{0xE5u, 0x40u},
 616:.\Generated_Source\PSoC4/cyfitter_cfg.c **** 			{0xE6u, 0x80u},
 617:.\Generated_Source\PSoC4/cyfitter_cfg.c **** 			{0xE8u, 0x40u},
 618:.\Generated_Source\PSoC4/cyfitter_cfg.c **** 			{0xEAu, 0x80u},
 619:.\Generated_Source\PSoC4/cyfitter_cfg.c **** 			{0xECu, 0x40u},
 620:.\Generated_Source\PSoC4/cyfitter_cfg.c **** 			{0xEDu, 0x20u},
 621:.\Generated_Source\PSoC4/cyfitter_cfg.c **** 			{0xEEu, 0x80u},
 622:.\Generated_Source\PSoC4/cyfitter_cfg.c **** 			{0x01u, 0x02u},
 623:.\Generated_Source\PSoC4/cyfitter_cfg.c **** 			{0x03u, 0x10u},
 624:.\Generated_Source\PSoC4/cyfitter_cfg.c **** 			{0x05u, 0x02u},
 625:.\Generated_Source\PSoC4/cyfitter_cfg.c **** 			{0x07u, 0x10u},
 626:.\Generated_Source\PSoC4/cyfitter_cfg.c **** 			{0x0Du, 0x04u},
 627:.\Generated_Source\PSoC4/cyfitter_cfg.c **** 			{0x0Fu, 0x61u},
 628:.\Generated_Source\PSoC4/cyfitter_cfg.c **** 			{0x11u, 0x10u},
 629:.\Generated_Source\PSoC4/cyfitter_cfg.c **** 			{0x13u, 0x41u},
 630:.\Generated_Source\PSoC4/cyfitter_cfg.c **** 			{0x15u, 0x10u},
 631:.\Generated_Source\PSoC4/cyfitter_cfg.c **** 			{0x18u, 0x08u},
 632:.\Generated_Source\PSoC4/cyfitter_cfg.c **** 			{0x1Bu, 0x45u},
 633:.\Generated_Source\PSoC4/cyfitter_cfg.c **** 			{0x1Cu, 0x20u},
 634:.\Generated_Source\PSoC4/cyfitter_cfg.c **** 			{0x1Du, 0x10u},
 635:.\Generated_Source\PSoC4/cyfitter_cfg.c **** 			{0x1Fu, 0x81u},
 636:.\Generated_Source\PSoC4/cyfitter_cfg.c **** 			{0x23u, 0x10u},
 637:.\Generated_Source\PSoC4/cyfitter_cfg.c **** 			{0x25u, 0x01u},
 638:.\Generated_Source\PSoC4/cyfitter_cfg.c **** 			{0x26u, 0x01u},
 639:.\Generated_Source\PSoC4/cyfitter_cfg.c **** 			{0x28u, 0x01u},
 640:.\Generated_Source\PSoC4/cyfitter_cfg.c **** 			{0x29u, 0x20u},
 641:.\Generated_Source\PSoC4/cyfitter_cfg.c **** 			{0x2Au, 0x01u},
 642:.\Generated_Source\PSoC4/cyfitter_cfg.c **** 			{0x2Bu, 0x10u},
 643:.\Generated_Source\PSoC4/cyfitter_cfg.c **** 			{0x30u, 0x06u},
 644:.\Generated_Source\PSoC4/cyfitter_cfg.c **** 			{0x32u, 0xA0u},
 645:.\Generated_Source\PSoC4/cyfitter_cfg.c **** 			{0x36u, 0x04u},
 646:.\Generated_Source\PSoC4/cyfitter_cfg.c **** 			{0x37u, 0x20u},
 647:.\Generated_Source\PSoC4/cyfitter_cfg.c **** 			{0x38u, 0x84u},
 648:.\Generated_Source\PSoC4/cyfitter_cfg.c **** 			{0x39u, 0x21u},
 649:.\Generated_Source\PSoC4/cyfitter_cfg.c **** 			{0x3Du, 0x80u},
 650:.\Generated_Source\PSoC4/cyfitter_cfg.c **** 			{0x3Eu, 0x10u},
 651:.\Generated_Source\PSoC4/cyfitter_cfg.c **** 			{0x41u, 0x80u},
 652:.\Generated_Source\PSoC4/cyfitter_cfg.c **** 			{0x47u, 0x01u},
 653:.\Generated_Source\PSoC4/cyfitter_cfg.c **** 			{0x48u, 0x40u},
 654:.\Generated_Source\PSoC4/cyfitter_cfg.c **** 			{0x49u, 0x04u},
 655:.\Generated_Source\PSoC4/cyfitter_cfg.c **** 			{0x4Au, 0x02u},
 656:.\Generated_Source\PSoC4/cyfitter_cfg.c **** 			{0x4Eu, 0x02u},
 657:.\Generated_Source\PSoC4/cyfitter_cfg.c **** 			{0x51u, 0x20u},
 658:.\Generated_Source\PSoC4/cyfitter_cfg.c **** 			{0x52u, 0x40u},
 659:.\Generated_Source\PSoC4/cyfitter_cfg.c **** 			{0x53u, 0x08u},
 660:.\Generated_Source\PSoC4/cyfitter_cfg.c **** 			{0x68u, 0xA8u},
 661:.\Generated_Source\PSoC4/cyfitter_cfg.c **** 			{0x69u, 0x40u},
 662:.\Generated_Source\PSoC4/cyfitter_cfg.c **** 			{0x83u, 0x44u},
 663:.\Generated_Source\PSoC4/cyfitter_cfg.c **** 			{0x84u, 0x11u},
 664:.\Generated_Source\PSoC4/cyfitter_cfg.c **** 			{0x85u, 0x20u},
 665:.\Generated_Source\PSoC4/cyfitter_cfg.c **** 			{0x86u, 0x04u},
 666:.\Generated_Source\PSoC4/cyfitter_cfg.c **** 			{0x87u, 0x20u},
 667:.\Generated_Source\PSoC4/cyfitter_cfg.c **** 			{0x88u, 0x04u},
 668:.\Generated_Source\PSoC4/cyfitter_cfg.c **** 			{0x8Bu, 0x01u},
ARM GAS  C:\Users\Tim\AppData\Local\Temp\ccoyQTkh.s 			page 20


 669:.\Generated_Source\PSoC4/cyfitter_cfg.c **** 			{0x8Eu, 0x20u},
 670:.\Generated_Source\PSoC4/cyfitter_cfg.c **** 			{0x8Fu, 0x01u},
 671:.\Generated_Source\PSoC4/cyfitter_cfg.c **** 			{0x90u, 0x04u},
 672:.\Generated_Source\PSoC4/cyfitter_cfg.c **** 			{0x93u, 0x04u},
 673:.\Generated_Source\PSoC4/cyfitter_cfg.c **** 			{0x95u, 0x30u},
 674:.\Generated_Source\PSoC4/cyfitter_cfg.c **** 			{0x97u, 0x41u},
 675:.\Generated_Source\PSoC4/cyfitter_cfg.c **** 			{0x99u, 0x01u},
 676:.\Generated_Source\PSoC4/cyfitter_cfg.c **** 			{0x9Du, 0x06u},
 677:.\Generated_Source\PSoC4/cyfitter_cfg.c **** 			{0x9Eu, 0x40u},
 678:.\Generated_Source\PSoC4/cyfitter_cfg.c **** 			{0x9Fu, 0x30u},
 679:.\Generated_Source\PSoC4/cyfitter_cfg.c **** 			{0xA0u, 0x05u},
 680:.\Generated_Source\PSoC4/cyfitter_cfg.c **** 			{0xA1u, 0x50u},
 681:.\Generated_Source\PSoC4/cyfitter_cfg.c **** 			{0xA4u, 0x42u},
 682:.\Generated_Source\PSoC4/cyfitter_cfg.c **** 			{0xA5u, 0xA0u},
 683:.\Generated_Source\PSoC4/cyfitter_cfg.c **** 			{0xA6u, 0x0Bu},
 684:.\Generated_Source\PSoC4/cyfitter_cfg.c **** 			{0xA7u, 0x18u},
 685:.\Generated_Source\PSoC4/cyfitter_cfg.c **** 			{0xAAu, 0x41u},
 686:.\Generated_Source\PSoC4/cyfitter_cfg.c **** 			{0xABu, 0x04u},
 687:.\Generated_Source\PSoC4/cyfitter_cfg.c **** 			{0xADu, 0x10u},
 688:.\Generated_Source\PSoC4/cyfitter_cfg.c **** 			{0xAEu, 0x80u},
 689:.\Generated_Source\PSoC4/cyfitter_cfg.c **** 			{0xB3u, 0x10u},
 690:.\Generated_Source\PSoC4/cyfitter_cfg.c **** 			{0xC0u, 0x3Cu},
 691:.\Generated_Source\PSoC4/cyfitter_cfg.c **** 			{0xC2u, 0x90u},
 692:.\Generated_Source\PSoC4/cyfitter_cfg.c **** 			{0xC4u, 0x4Bu},
 693:.\Generated_Source\PSoC4/cyfitter_cfg.c **** 			{0xCAu, 0x0Fu},
 694:.\Generated_Source\PSoC4/cyfitter_cfg.c **** 			{0xCCu, 0x6Fu},
 695:.\Generated_Source\PSoC4/cyfitter_cfg.c **** 			{0xCEu, 0x3Fu},
 696:.\Generated_Source\PSoC4/cyfitter_cfg.c **** 			{0xD0u, 0x88u},
 697:.\Generated_Source\PSoC4/cyfitter_cfg.c **** 			{0xD2u, 0x18u},
 698:.\Generated_Source\PSoC4/cyfitter_cfg.c **** 			{0xE2u, 0xC2u},
 699:.\Generated_Source\PSoC4/cyfitter_cfg.c **** 			{0xE6u, 0x02u},
 700:.\Generated_Source\PSoC4/cyfitter_cfg.c **** 			{0xECu, 0x80u},
 701:.\Generated_Source\PSoC4/cyfitter_cfg.c **** 			{0xEEu, 0x05u},
 702:.\Generated_Source\PSoC4/cyfitter_cfg.c **** 			{0x04u, 0x02u},
 703:.\Generated_Source\PSoC4/cyfitter_cfg.c **** 			{0x05u, 0x40u},
 704:.\Generated_Source\PSoC4/cyfitter_cfg.c **** 			{0x06u, 0x01u},
 705:.\Generated_Source\PSoC4/cyfitter_cfg.c **** 			{0x08u, 0x08u},
 706:.\Generated_Source\PSoC4/cyfitter_cfg.c **** 			{0x09u, 0x40u},
 707:.\Generated_Source\PSoC4/cyfitter_cfg.c **** 			{0x0Au, 0x04u},
 708:.\Generated_Source\PSoC4/cyfitter_cfg.c **** 			{0x0Fu, 0x01u},
 709:.\Generated_Source\PSoC4/cyfitter_cfg.c **** 			{0x10u, 0x80u},
 710:.\Generated_Source\PSoC4/cyfitter_cfg.c **** 			{0x11u, 0x0Cu},
 711:.\Generated_Source\PSoC4/cyfitter_cfg.c **** 			{0x12u, 0x40u},
 712:.\Generated_Source\PSoC4/cyfitter_cfg.c **** 			{0x13u, 0x30u},
 713:.\Generated_Source\PSoC4/cyfitter_cfg.c **** 			{0x15u, 0x0Cu},
 714:.\Generated_Source\PSoC4/cyfitter_cfg.c **** 			{0x17u, 0x30u},
 715:.\Generated_Source\PSoC4/cyfitter_cfg.c **** 			{0x19u, 0x28u},
 716:.\Generated_Source\PSoC4/cyfitter_cfg.c **** 			{0x1Bu, 0x16u},
 717:.\Generated_Source\PSoC4/cyfitter_cfg.c **** 			{0x1Cu, 0x20u},
 718:.\Generated_Source\PSoC4/cyfitter_cfg.c **** 			{0x1Du, 0x14u},
 719:.\Generated_Source\PSoC4/cyfitter_cfg.c **** 			{0x1Eu, 0x10u},
 720:.\Generated_Source\PSoC4/cyfitter_cfg.c **** 			{0x1Fu, 0x28u},
 721:.\Generated_Source\PSoC4/cyfitter_cfg.c **** 			{0x20u, 0x40u},
 722:.\Generated_Source\PSoC4/cyfitter_cfg.c **** 			{0x22u, 0x80u},
 723:.\Generated_Source\PSoC4/cyfitter_cfg.c **** 			{0x24u, 0x10u},
 724:.\Generated_Source\PSoC4/cyfitter_cfg.c **** 			{0x26u, 0x20u},
 725:.\Generated_Source\PSoC4/cyfitter_cfg.c **** 			{0x28u, 0x04u},
ARM GAS  C:\Users\Tim\AppData\Local\Temp\ccoyQTkh.s 			page 21


 726:.\Generated_Source\PSoC4/cyfitter_cfg.c **** 			{0x2Au, 0x08u},
 727:.\Generated_Source\PSoC4/cyfitter_cfg.c **** 			{0x2Cu, 0x01u},
 728:.\Generated_Source\PSoC4/cyfitter_cfg.c **** 			{0x2Eu, 0x02u},
 729:.\Generated_Source\PSoC4/cyfitter_cfg.c **** 			{0x30u, 0xFFu},
 730:.\Generated_Source\PSoC4/cyfitter_cfg.c **** 			{0x31u, 0x02u},
 731:.\Generated_Source\PSoC4/cyfitter_cfg.c **** 			{0x33u, 0x01u},
 732:.\Generated_Source\PSoC4/cyfitter_cfg.c **** 			{0x35u, 0x3Cu},
 733:.\Generated_Source\PSoC4/cyfitter_cfg.c **** 			{0x37u, 0x40u},
 734:.\Generated_Source\PSoC4/cyfitter_cfg.c **** 			{0x38u, 0x02u},
 735:.\Generated_Source\PSoC4/cyfitter_cfg.c **** 			{0x39u, 0x80u},
 736:.\Generated_Source\PSoC4/cyfitter_cfg.c **** 			{0x3Cu, 0x10u},
 737:.\Generated_Source\PSoC4/cyfitter_cfg.c **** 			{0x3Eu, 0x01u},
 738:.\Generated_Source\PSoC4/cyfitter_cfg.c **** 			{0x3Fu, 0x40u},
 739:.\Generated_Source\PSoC4/cyfitter_cfg.c **** 			{0x40u, 0x30u},
 740:.\Generated_Source\PSoC4/cyfitter_cfg.c **** 			{0x41u, 0x02u},
 741:.\Generated_Source\PSoC4/cyfitter_cfg.c **** 			{0x49u, 0xFFu},
 742:.\Generated_Source\PSoC4/cyfitter_cfg.c **** 			{0x4Au, 0xFFu},
 743:.\Generated_Source\PSoC4/cyfitter_cfg.c **** 			{0x4Bu, 0xFFu},
 744:.\Generated_Source\PSoC4/cyfitter_cfg.c **** 			{0x4Du, 0xA0u},
 745:.\Generated_Source\PSoC4/cyfitter_cfg.c **** 			{0x4Fu, 0x01u},
 746:.\Generated_Source\PSoC4/cyfitter_cfg.c **** 			{0x50u, 0x18u},
 747:.\Generated_Source\PSoC4/cyfitter_cfg.c **** 			{0x58u, 0x04u},
 748:.\Generated_Source\PSoC4/cyfitter_cfg.c **** 			{0x59u, 0x04u},
 749:.\Generated_Source\PSoC4/cyfitter_cfg.c **** 			{0x5Au, 0x04u},
 750:.\Generated_Source\PSoC4/cyfitter_cfg.c **** 			{0x5Bu, 0x04u},
 751:.\Generated_Source\PSoC4/cyfitter_cfg.c **** 			{0x5Cu, 0x10u},
 752:.\Generated_Source\PSoC4/cyfitter_cfg.c **** 			{0x5Du, 0x01u},
 753:.\Generated_Source\PSoC4/cyfitter_cfg.c **** 			{0x5Fu, 0x01u},
 754:.\Generated_Source\PSoC4/cyfitter_cfg.c **** 			{0x60u, 0x40u},
 755:.\Generated_Source\PSoC4/cyfitter_cfg.c **** 			{0x62u, 0x80u},
 756:.\Generated_Source\PSoC4/cyfitter_cfg.c **** 			{0x64u, 0x40u},
 757:.\Generated_Source\PSoC4/cyfitter_cfg.c **** 			{0x65u, 0x40u},
 758:.\Generated_Source\PSoC4/cyfitter_cfg.c **** 			{0x66u, 0x80u},
 759:.\Generated_Source\PSoC4/cyfitter_cfg.c **** 			{0x68u, 0x40u},
 760:.\Generated_Source\PSoC4/cyfitter_cfg.c **** 			{0x6Au, 0x80u},
 761:.\Generated_Source\PSoC4/cyfitter_cfg.c **** 			{0x6Cu, 0x40u},
 762:.\Generated_Source\PSoC4/cyfitter_cfg.c **** 			{0x6Du, 0x20u},
 763:.\Generated_Source\PSoC4/cyfitter_cfg.c **** 			{0x6Eu, 0x80u},
 764:.\Generated_Source\PSoC4/cyfitter_cfg.c **** 			{0x83u, 0x02u},
 765:.\Generated_Source\PSoC4/cyfitter_cfg.c **** 			{0x85u, 0x28u},
 766:.\Generated_Source\PSoC4/cyfitter_cfg.c **** 			{0x87u, 0x14u},
 767:.\Generated_Source\PSoC4/cyfitter_cfg.c **** 			{0x89u, 0x02u},
 768:.\Generated_Source\PSoC4/cyfitter_cfg.c **** 			{0x8Du, 0x0Cu},
 769:.\Generated_Source\PSoC4/cyfitter_cfg.c **** 			{0x8Fu, 0x30u},
 770:.\Generated_Source\PSoC4/cyfitter_cfg.c **** 			{0x90u, 0x0Fu},
 771:.\Generated_Source\PSoC4/cyfitter_cfg.c **** 			{0x92u, 0xF0u},
 772:.\Generated_Source\PSoC4/cyfitter_cfg.c **** 			{0x94u, 0x96u},
 773:.\Generated_Source\PSoC4/cyfitter_cfg.c **** 			{0x95u, 0x14u},
 774:.\Generated_Source\PSoC4/cyfitter_cfg.c **** 			{0x96u, 0x69u},
 775:.\Generated_Source\PSoC4/cyfitter_cfg.c **** 			{0x97u, 0x28u},
 776:.\Generated_Source\PSoC4/cyfitter_cfg.c **** 			{0x98u, 0x55u},
 777:.\Generated_Source\PSoC4/cyfitter_cfg.c **** 			{0x99u, 0x01u},
 778:.\Generated_Source\PSoC4/cyfitter_cfg.c **** 			{0x9Au, 0xAAu},
 779:.\Generated_Source\PSoC4/cyfitter_cfg.c **** 			{0xA7u, 0x41u},
 780:.\Generated_Source\PSoC4/cyfitter_cfg.c **** 			{0xA9u, 0x0Cu},
 781:.\Generated_Source\PSoC4/cyfitter_cfg.c **** 			{0xABu, 0x30u},
 782:.\Generated_Source\PSoC4/cyfitter_cfg.c **** 			{0xACu, 0x33u},
ARM GAS  C:\Users\Tim\AppData\Local\Temp\ccoyQTkh.s 			page 22


 783:.\Generated_Source\PSoC4/cyfitter_cfg.c **** 			{0xAEu, 0xCCu},
 784:.\Generated_Source\PSoC4/cyfitter_cfg.c **** 			{0xB1u, 0x3Cu},
 785:.\Generated_Source\PSoC4/cyfitter_cfg.c **** 			{0xB3u, 0x01u},
 786:.\Generated_Source\PSoC4/cyfitter_cfg.c **** 			{0xB4u, 0xFFu},
 787:.\Generated_Source\PSoC4/cyfitter_cfg.c **** 			{0xB5u, 0x40u},
 788:.\Generated_Source\PSoC4/cyfitter_cfg.c **** 			{0xB7u, 0x02u},
 789:.\Generated_Source\PSoC4/cyfitter_cfg.c **** 			{0xBCu, 0x01u},
 790:.\Generated_Source\PSoC4/cyfitter_cfg.c **** 			{0xBFu, 0x44u},
 791:.\Generated_Source\PSoC4/cyfitter_cfg.c **** 			{0xC0u, 0x20u},
 792:.\Generated_Source\PSoC4/cyfitter_cfg.c **** 			{0xC1u, 0x03u},
 793:.\Generated_Source\PSoC4/cyfitter_cfg.c **** 			{0xC9u, 0xFFu},
 794:.\Generated_Source\PSoC4/cyfitter_cfg.c **** 			{0xCAu, 0xFFu},
 795:.\Generated_Source\PSoC4/cyfitter_cfg.c **** 			{0xCBu, 0xFFu},
 796:.\Generated_Source\PSoC4/cyfitter_cfg.c **** 			{0xCDu, 0xAFu},
 797:.\Generated_Source\PSoC4/cyfitter_cfg.c **** 			{0xCEu, 0x07u},
 798:.\Generated_Source\PSoC4/cyfitter_cfg.c **** 			{0xCFu, 0x01u},
 799:.\Generated_Source\PSoC4/cyfitter_cfg.c **** 			{0xD0u, 0x18u},
 800:.\Generated_Source\PSoC4/cyfitter_cfg.c **** 			{0xD8u, 0x04u},
 801:.\Generated_Source\PSoC4/cyfitter_cfg.c **** 			{0xD9u, 0x04u},
 802:.\Generated_Source\PSoC4/cyfitter_cfg.c **** 			{0xDAu, 0x04u},
 803:.\Generated_Source\PSoC4/cyfitter_cfg.c **** 			{0xDCu, 0x11u},
 804:.\Generated_Source\PSoC4/cyfitter_cfg.c **** 			{0xDDu, 0x01u},
 805:.\Generated_Source\PSoC4/cyfitter_cfg.c **** 			{0xDFu, 0x01u},
 806:.\Generated_Source\PSoC4/cyfitter_cfg.c **** 			{0xE0u, 0x40u},
 807:.\Generated_Source\PSoC4/cyfitter_cfg.c **** 			{0xE2u, 0x80u},
 808:.\Generated_Source\PSoC4/cyfitter_cfg.c **** 			{0xE4u, 0x40u},
 809:.\Generated_Source\PSoC4/cyfitter_cfg.c **** 			{0xE5u, 0x40u},
 810:.\Generated_Source\PSoC4/cyfitter_cfg.c **** 			{0xE6u, 0x80u},
 811:.\Generated_Source\PSoC4/cyfitter_cfg.c **** 			{0xE8u, 0x40u},
 812:.\Generated_Source\PSoC4/cyfitter_cfg.c **** 			{0xEAu, 0x80u},
 813:.\Generated_Source\PSoC4/cyfitter_cfg.c **** 			{0xECu, 0x40u},
 814:.\Generated_Source\PSoC4/cyfitter_cfg.c **** 			{0xEDu, 0x20u},
 815:.\Generated_Source\PSoC4/cyfitter_cfg.c **** 			{0xEEu, 0x80u},
 816:.\Generated_Source\PSoC4/cyfitter_cfg.c **** 			{0x00u, 0x28u},
 817:.\Generated_Source\PSoC4/cyfitter_cfg.c **** 			{0x01u, 0x10u},
 818:.\Generated_Source\PSoC4/cyfitter_cfg.c **** 			{0x03u, 0x10u},
 819:.\Generated_Source\PSoC4/cyfitter_cfg.c **** 			{0x0Au, 0x82u},
 820:.\Generated_Source\PSoC4/cyfitter_cfg.c **** 			{0x0Bu, 0x41u},
 821:.\Generated_Source\PSoC4/cyfitter_cfg.c **** 			{0x0Cu, 0x04u},
 822:.\Generated_Source\PSoC4/cyfitter_cfg.c **** 			{0x0Du, 0x22u},
 823:.\Generated_Source\PSoC4/cyfitter_cfg.c **** 			{0x10u, 0xA8u},
 824:.\Generated_Source\PSoC4/cyfitter_cfg.c **** 			{0x11u, 0x40u},
 825:.\Generated_Source\PSoC4/cyfitter_cfg.c **** 			{0x17u, 0x40u},
 826:.\Generated_Source\PSoC4/cyfitter_cfg.c **** 			{0x18u, 0x08u},
 827:.\Generated_Source\PSoC4/cyfitter_cfg.c **** 			{0x19u, 0x02u},
 828:.\Generated_Source\PSoC4/cyfitter_cfg.c **** 			{0x1Du, 0x01u},
 829:.\Generated_Source\PSoC4/cyfitter_cfg.c **** 			{0x1Fu, 0x20u},
 830:.\Generated_Source\PSoC4/cyfitter_cfg.c **** 			{0x20u, 0x04u},
 831:.\Generated_Source\PSoC4/cyfitter_cfg.c **** 			{0x21u, 0x42u},
 832:.\Generated_Source\PSoC4/cyfitter_cfg.c **** 			{0x22u, 0x08u},
 833:.\Generated_Source\PSoC4/cyfitter_cfg.c **** 			{0x23u, 0x08u},
 834:.\Generated_Source\PSoC4/cyfitter_cfg.c **** 			{0x24u, 0x10u},
 835:.\Generated_Source\PSoC4/cyfitter_cfg.c **** 			{0x25u, 0x80u},
 836:.\Generated_Source\PSoC4/cyfitter_cfg.c **** 			{0x26u, 0x22u},
 837:.\Generated_Source\PSoC4/cyfitter_cfg.c **** 			{0x27u, 0x21u},
 838:.\Generated_Source\PSoC4/cyfitter_cfg.c **** 			{0x2Eu, 0x10u},
 839:.\Generated_Source\PSoC4/cyfitter_cfg.c **** 			{0x2Fu, 0x20u},
ARM GAS  C:\Users\Tim\AppData\Local\Temp\ccoyQTkh.s 			page 23


 840:.\Generated_Source\PSoC4/cyfitter_cfg.c **** 			{0x30u, 0x04u},
 841:.\Generated_Source\PSoC4/cyfitter_cfg.c **** 			{0x31u, 0x22u},
 842:.\Generated_Source\PSoC4/cyfitter_cfg.c **** 			{0x33u, 0x40u},
 843:.\Generated_Source\PSoC4/cyfitter_cfg.c **** 			{0x36u, 0x24u},
 844:.\Generated_Source\PSoC4/cyfitter_cfg.c **** 			{0x3Au, 0x40u},
 845:.\Generated_Source\PSoC4/cyfitter_cfg.c **** 			{0x3Bu, 0x14u},
 846:.\Generated_Source\PSoC4/cyfitter_cfg.c **** 			{0x3Du, 0xA2u},
 847:.\Generated_Source\PSoC4/cyfitter_cfg.c **** 			{0x3Eu, 0x04u},
 848:.\Generated_Source\PSoC4/cyfitter_cfg.c **** 			{0x40u, 0x14u},
 849:.\Generated_Source\PSoC4/cyfitter_cfg.c **** 			{0x47u, 0x28u},
 850:.\Generated_Source\PSoC4/cyfitter_cfg.c **** 			{0x68u, 0x02u},
 851:.\Generated_Source\PSoC4/cyfitter_cfg.c **** 			{0x69u, 0x29u},
 852:.\Generated_Source\PSoC4/cyfitter_cfg.c **** 			{0x78u, 0x01u},
 853:.\Generated_Source\PSoC4/cyfitter_cfg.c **** 			{0x7Du, 0x08u},
 854:.\Generated_Source\PSoC4/cyfitter_cfg.c **** 			{0x81u, 0x60u},
 855:.\Generated_Source\PSoC4/cyfitter_cfg.c **** 			{0x8Au, 0x01u},
 856:.\Generated_Source\PSoC4/cyfitter_cfg.c **** 			{0x91u, 0x40u},
 857:.\Generated_Source\PSoC4/cyfitter_cfg.c **** 			{0x92u, 0x14u},
 858:.\Generated_Source\PSoC4/cyfitter_cfg.c **** 			{0x93u, 0x14u},
 859:.\Generated_Source\PSoC4/cyfitter_cfg.c **** 			{0x95u, 0x39u},
 860:.\Generated_Source\PSoC4/cyfitter_cfg.c **** 			{0x97u, 0x41u},
 861:.\Generated_Source\PSoC4/cyfitter_cfg.c **** 			{0x9Du, 0x02u},
 862:.\Generated_Source\PSoC4/cyfitter_cfg.c **** 			{0x9Fu, 0x11u},
 863:.\Generated_Source\PSoC4/cyfitter_cfg.c **** 			{0xA0u, 0xA8u},
 864:.\Generated_Source\PSoC4/cyfitter_cfg.c **** 			{0xA1u, 0x51u},
 865:.\Generated_Source\PSoC4/cyfitter_cfg.c **** 			{0xA4u, 0x02u},
 866:.\Generated_Source\PSoC4/cyfitter_cfg.c **** 			{0xA5u, 0x80u},
 867:.\Generated_Source\PSoC4/cyfitter_cfg.c **** 			{0xA6u, 0x86u},
 868:.\Generated_Source\PSoC4/cyfitter_cfg.c **** 			{0xA9u, 0x11u},
 869:.\Generated_Source\PSoC4/cyfitter_cfg.c **** 			{0xAAu, 0x10u},
 870:.\Generated_Source\PSoC4/cyfitter_cfg.c **** 			{0xACu, 0x01u},
 871:.\Generated_Source\PSoC4/cyfitter_cfg.c **** 			{0xADu, 0x01u},
 872:.\Generated_Source\PSoC4/cyfitter_cfg.c **** 			{0xAEu, 0x08u},
 873:.\Generated_Source\PSoC4/cyfitter_cfg.c **** 			{0xB0u, 0x04u},
 874:.\Generated_Source\PSoC4/cyfitter_cfg.c **** 			{0xB3u, 0x80u},
 875:.\Generated_Source\PSoC4/cyfitter_cfg.c **** 			{0xB4u, 0x44u},
 876:.\Generated_Source\PSoC4/cyfitter_cfg.c **** 			{0xB6u, 0x01u},
 877:.\Generated_Source\PSoC4/cyfitter_cfg.c **** 			{0xC0u, 0x06u},
 878:.\Generated_Source\PSoC4/cyfitter_cfg.c **** 			{0xC2u, 0x79u},
 879:.\Generated_Source\PSoC4/cyfitter_cfg.c **** 			{0xC4u, 0x8Fu},
 880:.\Generated_Source\PSoC4/cyfitter_cfg.c **** 			{0xCAu, 0x60u},
 881:.\Generated_Source\PSoC4/cyfitter_cfg.c **** 			{0xCCu, 0x6Fu},
 882:.\Generated_Source\PSoC4/cyfitter_cfg.c **** 			{0xCEu, 0xFEu},
 883:.\Generated_Source\PSoC4/cyfitter_cfg.c **** 			{0xD0u, 0x66u},
 884:.\Generated_Source\PSoC4/cyfitter_cfg.c **** 			{0xDEu, 0x41u},
 885:.\Generated_Source\PSoC4/cyfitter_cfg.c **** 			{0xE0u, 0x01u},
 886:.\Generated_Source\PSoC4/cyfitter_cfg.c **** 			{0xE2u, 0x04u},
 887:.\Generated_Source\PSoC4/cyfitter_cfg.c **** 			{0xE6u, 0x80u},
 888:.\Generated_Source\PSoC4/cyfitter_cfg.c **** 			{0xEAu, 0xB2u},
 889:.\Generated_Source\PSoC4/cyfitter_cfg.c **** 			{0x02u, 0x0Fu},
 890:.\Generated_Source\PSoC4/cyfitter_cfg.c **** 			{0x0Bu, 0x02u},
 891:.\Generated_Source\PSoC4/cyfitter_cfg.c **** 			{0x0Fu, 0x01u},
 892:.\Generated_Source\PSoC4/cyfitter_cfg.c **** 			{0x10u, 0x0Fu},
 893:.\Generated_Source\PSoC4/cyfitter_cfg.c **** 			{0x14u, 0x09u},
 894:.\Generated_Source\PSoC4/cyfitter_cfg.c **** 			{0x16u, 0x06u},
 895:.\Generated_Source\PSoC4/cyfitter_cfg.c **** 			{0x17u, 0x04u},
 896:.\Generated_Source\PSoC4/cyfitter_cfg.c **** 			{0x1Cu, 0x03u},
ARM GAS  C:\Users\Tim\AppData\Local\Temp\ccoyQTkh.s 			page 24


 897:.\Generated_Source\PSoC4/cyfitter_cfg.c **** 			{0x1Eu, 0x0Cu},
 898:.\Generated_Source\PSoC4/cyfitter_cfg.c **** 			{0x28u, 0x02u},
 899:.\Generated_Source\PSoC4/cyfitter_cfg.c **** 			{0x2Au, 0x0Du},
 900:.\Generated_Source\PSoC4/cyfitter_cfg.c **** 			{0x30u, 0x04u},
 901:.\Generated_Source\PSoC4/cyfitter_cfg.c **** 			{0x31u, 0x04u},
 902:.\Generated_Source\PSoC4/cyfitter_cfg.c **** 			{0x32u, 0x01u},
 903:.\Generated_Source\PSoC4/cyfitter_cfg.c **** 			{0x33u, 0x02u},
 904:.\Generated_Source\PSoC4/cyfitter_cfg.c **** 			{0x34u, 0x02u},
 905:.\Generated_Source\PSoC4/cyfitter_cfg.c **** 			{0x35u, 0x01u},
 906:.\Generated_Source\PSoC4/cyfitter_cfg.c **** 			{0x36u, 0x08u},
 907:.\Generated_Source\PSoC4/cyfitter_cfg.c **** 			{0x40u, 0x20u},
 908:.\Generated_Source\PSoC4/cyfitter_cfg.c **** 			{0x41u, 0x03u},
 909:.\Generated_Source\PSoC4/cyfitter_cfg.c **** 			{0x49u, 0xFFu},
 910:.\Generated_Source\PSoC4/cyfitter_cfg.c **** 			{0x4Au, 0xFFu},
 911:.\Generated_Source\PSoC4/cyfitter_cfg.c **** 			{0x4Bu, 0xFFu},
 912:.\Generated_Source\PSoC4/cyfitter_cfg.c **** 			{0x4Du, 0xAFu},
 913:.\Generated_Source\PSoC4/cyfitter_cfg.c **** 			{0x4Eu, 0x07u},
 914:.\Generated_Source\PSoC4/cyfitter_cfg.c **** 			{0x4Fu, 0x01u},
 915:.\Generated_Source\PSoC4/cyfitter_cfg.c **** 			{0x50u, 0x18u},
 916:.\Generated_Source\PSoC4/cyfitter_cfg.c **** 			{0x58u, 0x04u},
 917:.\Generated_Source\PSoC4/cyfitter_cfg.c **** 			{0x59u, 0x04u},
 918:.\Generated_Source\PSoC4/cyfitter_cfg.c **** 			{0x5Au, 0x04u},
 919:.\Generated_Source\PSoC4/cyfitter_cfg.c **** 			{0x5Cu, 0x13u},
 920:.\Generated_Source\PSoC4/cyfitter_cfg.c **** 			{0x5Du, 0x01u},
 921:.\Generated_Source\PSoC4/cyfitter_cfg.c **** 			{0x5Fu, 0x01u},
 922:.\Generated_Source\PSoC4/cyfitter_cfg.c **** 			{0x60u, 0x40u},
 923:.\Generated_Source\PSoC4/cyfitter_cfg.c **** 			{0x62u, 0x80u},
 924:.\Generated_Source\PSoC4/cyfitter_cfg.c **** 			{0x64u, 0x40u},
 925:.\Generated_Source\PSoC4/cyfitter_cfg.c **** 			{0x65u, 0x40u},
 926:.\Generated_Source\PSoC4/cyfitter_cfg.c **** 			{0x66u, 0x80u},
 927:.\Generated_Source\PSoC4/cyfitter_cfg.c **** 			{0x68u, 0x40u},
 928:.\Generated_Source\PSoC4/cyfitter_cfg.c **** 			{0x6Au, 0x80u},
 929:.\Generated_Source\PSoC4/cyfitter_cfg.c **** 			{0x6Cu, 0x40u},
 930:.\Generated_Source\PSoC4/cyfitter_cfg.c **** 			{0x6Du, 0x20u},
 931:.\Generated_Source\PSoC4/cyfitter_cfg.c **** 			{0x6Eu, 0x80u},
 932:.\Generated_Source\PSoC4/cyfitter_cfg.c **** 			{0x82u, 0x08u},
 933:.\Generated_Source\PSoC4/cyfitter_cfg.c **** 			{0x88u, 0x01u},
 934:.\Generated_Source\PSoC4/cyfitter_cfg.c **** 			{0x8Eu, 0x04u},
 935:.\Generated_Source\PSoC4/cyfitter_cfg.c **** 			{0x8Fu, 0x01u},
 936:.\Generated_Source\PSoC4/cyfitter_cfg.c **** 			{0x97u, 0x02u},
 937:.\Generated_Source\PSoC4/cyfitter_cfg.c **** 			{0x98u, 0x04u},
 938:.\Generated_Source\PSoC4/cyfitter_cfg.c **** 			{0x9Bu, 0x04u},
 939:.\Generated_Source\PSoC4/cyfitter_cfg.c **** 			{0x9Fu, 0x08u},
 940:.\Generated_Source\PSoC4/cyfitter_cfg.c **** 			{0xA6u, 0x03u},
 941:.\Generated_Source\PSoC4/cyfitter_cfg.c **** 			{0xA8u, 0x08u},
 942:.\Generated_Source\PSoC4/cyfitter_cfg.c **** 			{0xB0u, 0x08u},
 943:.\Generated_Source\PSoC4/cyfitter_cfg.c **** 			{0xB1u, 0x04u},
 944:.\Generated_Source\PSoC4/cyfitter_cfg.c **** 			{0xB2u, 0x02u},
 945:.\Generated_Source\PSoC4/cyfitter_cfg.c **** 			{0xB3u, 0x02u},
 946:.\Generated_Source\PSoC4/cyfitter_cfg.c **** 			{0xB4u, 0x04u},
 947:.\Generated_Source\PSoC4/cyfitter_cfg.c **** 			{0xB5u, 0x01u},
 948:.\Generated_Source\PSoC4/cyfitter_cfg.c **** 			{0xB6u, 0x01u},
 949:.\Generated_Source\PSoC4/cyfitter_cfg.c **** 			{0xB7u, 0x08u},
 950:.\Generated_Source\PSoC4/cyfitter_cfg.c **** 			{0xBEu, 0x51u},
 951:.\Generated_Source\PSoC4/cyfitter_cfg.c **** 			{0xC0u, 0x20u},
 952:.\Generated_Source\PSoC4/cyfitter_cfg.c **** 			{0xC1u, 0x03u},
 953:.\Generated_Source\PSoC4/cyfitter_cfg.c **** 			{0xC5u, 0x35u},
ARM GAS  C:\Users\Tim\AppData\Local\Temp\ccoyQTkh.s 			page 25


 954:.\Generated_Source\PSoC4/cyfitter_cfg.c **** 			{0xC6u, 0xC2u},
 955:.\Generated_Source\PSoC4/cyfitter_cfg.c **** 			{0xC7u, 0x0Eu},
 956:.\Generated_Source\PSoC4/cyfitter_cfg.c **** 			{0xC8u, 0x1Fu},
 957:.\Generated_Source\PSoC4/cyfitter_cfg.c **** 			{0xC9u, 0xFFu},
 958:.\Generated_Source\PSoC4/cyfitter_cfg.c **** 			{0xCAu, 0xFFu},
 959:.\Generated_Source\PSoC4/cyfitter_cfg.c **** 			{0xCBu, 0xFFu},
 960:.\Generated_Source\PSoC4/cyfitter_cfg.c **** 			{0xCDu, 0xAFu},
 961:.\Generated_Source\PSoC4/cyfitter_cfg.c **** 			{0xCEu, 0x07u},
 962:.\Generated_Source\PSoC4/cyfitter_cfg.c **** 			{0xCFu, 0x01u},
 963:.\Generated_Source\PSoC4/cyfitter_cfg.c **** 			{0xD0u, 0x18u},
 964:.\Generated_Source\PSoC4/cyfitter_cfg.c **** 			{0xD4u, 0x0Fu},
 965:.\Generated_Source\PSoC4/cyfitter_cfg.c **** 			{0xD6u, 0x04u},
 966:.\Generated_Source\PSoC4/cyfitter_cfg.c **** 			{0xD8u, 0x04u},
 967:.\Generated_Source\PSoC4/cyfitter_cfg.c **** 			{0xD9u, 0x04u},
 968:.\Generated_Source\PSoC4/cyfitter_cfg.c **** 			{0xDAu, 0x04u},
 969:.\Generated_Source\PSoC4/cyfitter_cfg.c **** 			{0xDBu, 0x04u},
 970:.\Generated_Source\PSoC4/cyfitter_cfg.c **** 			{0xDCu, 0x31u},
 971:.\Generated_Source\PSoC4/cyfitter_cfg.c **** 			{0xDDu, 0x11u},
 972:.\Generated_Source\PSoC4/cyfitter_cfg.c **** 			{0xDFu, 0x01u},
 973:.\Generated_Source\PSoC4/cyfitter_cfg.c **** 			{0xE0u, 0x40u},
 974:.\Generated_Source\PSoC4/cyfitter_cfg.c **** 			{0xE2u, 0x80u},
 975:.\Generated_Source\PSoC4/cyfitter_cfg.c **** 			{0xE4u, 0x40u},
 976:.\Generated_Source\PSoC4/cyfitter_cfg.c **** 			{0xE5u, 0x40u},
 977:.\Generated_Source\PSoC4/cyfitter_cfg.c **** 			{0xE6u, 0x80u},
 978:.\Generated_Source\PSoC4/cyfitter_cfg.c **** 			{0xE8u, 0x40u},
 979:.\Generated_Source\PSoC4/cyfitter_cfg.c **** 			{0xEAu, 0x80u},
 980:.\Generated_Source\PSoC4/cyfitter_cfg.c **** 			{0xECu, 0x40u},
 981:.\Generated_Source\PSoC4/cyfitter_cfg.c **** 			{0xEDu, 0x20u},
 982:.\Generated_Source\PSoC4/cyfitter_cfg.c **** 			{0xEEu, 0x80u},
 983:.\Generated_Source\PSoC4/cyfitter_cfg.c **** 			{0x00u, 0x90u},
 984:.\Generated_Source\PSoC4/cyfitter_cfg.c **** 			{0x02u, 0x40u},
 985:.\Generated_Source\PSoC4/cyfitter_cfg.c **** 			{0x05u, 0x02u},
 986:.\Generated_Source\PSoC4/cyfitter_cfg.c **** 			{0x09u, 0x10u},
 987:.\Generated_Source\PSoC4/cyfitter_cfg.c **** 			{0x0Du, 0x80u},
 988:.\Generated_Source\PSoC4/cyfitter_cfg.c **** 			{0x0Fu, 0x50u},
 989:.\Generated_Source\PSoC4/cyfitter_cfg.c **** 			{0x12u, 0x28u},
 990:.\Generated_Source\PSoC4/cyfitter_cfg.c **** 			{0x15u, 0x20u},
 991:.\Generated_Source\PSoC4/cyfitter_cfg.c **** 			{0x18u, 0x10u},
 992:.\Generated_Source\PSoC4/cyfitter_cfg.c **** 			{0x19u, 0x41u},
 993:.\Generated_Source\PSoC4/cyfitter_cfg.c **** 			{0x1Au, 0x04u},
 994:.\Generated_Source\PSoC4/cyfitter_cfg.c **** 			{0x1Eu, 0x41u},
 995:.\Generated_Source\PSoC4/cyfitter_cfg.c **** 			{0x1Fu, 0x28u},
 996:.\Generated_Source\PSoC4/cyfitter_cfg.c **** 			{0x20u, 0x28u},
 997:.\Generated_Source\PSoC4/cyfitter_cfg.c **** 			{0x21u, 0x90u},
 998:.\Generated_Source\PSoC4/cyfitter_cfg.c **** 			{0x22u, 0x41u},
 999:.\Generated_Source\PSoC4/cyfitter_cfg.c **** 			{0x23u, 0x50u},
1000:.\Generated_Source\PSoC4/cyfitter_cfg.c **** 			{0x25u, 0x10u},
1001:.\Generated_Source\PSoC4/cyfitter_cfg.c **** 			{0x26u, 0x04u},
1002:.\Generated_Source\PSoC4/cyfitter_cfg.c **** 			{0x27u, 0x40u},
1003:.\Generated_Source\PSoC4/cyfitter_cfg.c **** 			{0x30u, 0xA8u},
1004:.\Generated_Source\PSoC4/cyfitter_cfg.c **** 			{0x34u, 0x04u},
1005:.\Generated_Source\PSoC4/cyfitter_cfg.c **** 			{0x39u, 0x40u},
1006:.\Generated_Source\PSoC4/cyfitter_cfg.c **** 			{0x3Cu, 0x80u},
1007:.\Generated_Source\PSoC4/cyfitter_cfg.c **** 			{0x3Eu, 0x10u},
1008:.\Generated_Source\PSoC4/cyfitter_cfg.c **** 			{0x40u, 0x28u},
1009:.\Generated_Source\PSoC4/cyfitter_cfg.c **** 			{0x44u, 0x28u},
1010:.\Generated_Source\PSoC4/cyfitter_cfg.c **** 			{0x47u, 0x28u},
ARM GAS  C:\Users\Tim\AppData\Local\Temp\ccoyQTkh.s 			page 26


1011:.\Generated_Source\PSoC4/cyfitter_cfg.c **** 			{0x48u, 0x40u},
1012:.\Generated_Source\PSoC4/cyfitter_cfg.c **** 			{0x4Au, 0x20u},
1013:.\Generated_Source\PSoC4/cyfitter_cfg.c **** 			{0x51u, 0x08u},
1014:.\Generated_Source\PSoC4/cyfitter_cfg.c **** 			{0x52u, 0xD0u},
1015:.\Generated_Source\PSoC4/cyfitter_cfg.c **** 			{0x59u, 0x51u},
1016:.\Generated_Source\PSoC4/cyfitter_cfg.c **** 			{0x5Au, 0x04u},
1017:.\Generated_Source\PSoC4/cyfitter_cfg.c **** 			{0x61u, 0x08u},
1018:.\Generated_Source\PSoC4/cyfitter_cfg.c **** 			{0x62u, 0x10u},
1019:.\Generated_Source\PSoC4/cyfitter_cfg.c **** 			{0x63u, 0x80u},
1020:.\Generated_Source\PSoC4/cyfitter_cfg.c **** 			{0x83u, 0x40u},
1021:.\Generated_Source\PSoC4/cyfitter_cfg.c **** 			{0x88u, 0x04u},
1022:.\Generated_Source\PSoC4/cyfitter_cfg.c **** 			{0x8Bu, 0x28u},
1023:.\Generated_Source\PSoC4/cyfitter_cfg.c **** 			{0x8Du, 0x10u},
1024:.\Generated_Source\PSoC4/cyfitter_cfg.c **** 			{0x8Eu, 0xC0u},
1025:.\Generated_Source\PSoC4/cyfitter_cfg.c **** 			{0x91u, 0x40u},
1026:.\Generated_Source\PSoC4/cyfitter_cfg.c **** 			{0x92u, 0x10u},
1027:.\Generated_Source\PSoC4/cyfitter_cfg.c **** 			{0x96u, 0x83u},
1028:.\Generated_Source\PSoC4/cyfitter_cfg.c **** 			{0x99u, 0x02u},
1029:.\Generated_Source\PSoC4/cyfitter_cfg.c **** 			{0x9Bu, 0x28u},
1030:.\Generated_Source\PSoC4/cyfitter_cfg.c **** 			{0x9Cu, 0x04u},
1031:.\Generated_Source\PSoC4/cyfitter_cfg.c **** 			{0x9Eu, 0x40u},
1032:.\Generated_Source\PSoC4/cyfitter_cfg.c **** 			{0x9Fu, 0x40u},
1033:.\Generated_Source\PSoC4/cyfitter_cfg.c **** 			{0xA0u, 0xA8u},
1034:.\Generated_Source\PSoC4/cyfitter_cfg.c **** 			{0xA2u, 0x08u},
1035:.\Generated_Source\PSoC4/cyfitter_cfg.c **** 			{0xA4u, 0x14u},
1036:.\Generated_Source\PSoC4/cyfitter_cfg.c **** 			{0xA6u, 0x04u},
1037:.\Generated_Source\PSoC4/cyfitter_cfg.c **** 			{0xA8u, 0x04u},
1038:.\Generated_Source\PSoC4/cyfitter_cfg.c **** 			{0xA9u, 0x04u},
1039:.\Generated_Source\PSoC4/cyfitter_cfg.c **** 			{0xB0u, 0x01u},
1040:.\Generated_Source\PSoC4/cyfitter_cfg.c **** 			{0xB2u, 0x80u},
1041:.\Generated_Source\PSoC4/cyfitter_cfg.c **** 			{0xB5u, 0x01u},
1042:.\Generated_Source\PSoC4/cyfitter_cfg.c **** 			{0xC0u, 0x1Bu},
1043:.\Generated_Source\PSoC4/cyfitter_cfg.c **** 			{0xC2u, 0xB2u},
1044:.\Generated_Source\PSoC4/cyfitter_cfg.c **** 			{0xC4u, 0x46u},
1045:.\Generated_Source\PSoC4/cyfitter_cfg.c **** 			{0xCCu, 0x4Eu},
1046:.\Generated_Source\PSoC4/cyfitter_cfg.c **** 			{0xCEu, 0x38u},
1047:.\Generated_Source\PSoC4/cyfitter_cfg.c **** 			{0xD0u, 0x66u},
1048:.\Generated_Source\PSoC4/cyfitter_cfg.c **** 			{0xD6u, 0x0Fu},
1049:.\Generated_Source\PSoC4/cyfitter_cfg.c **** 			{0xD8u, 0x07u},
1050:.\Generated_Source\PSoC4/cyfitter_cfg.c **** 			{0xE2u, 0xA0u},
1051:.\Generated_Source\PSoC4/cyfitter_cfg.c **** 			{0xE6u, 0x40u},
1052:.\Generated_Source\PSoC4/cyfitter_cfg.c **** 			{0xE8u, 0x02u},
1053:.\Generated_Source\PSoC4/cyfitter_cfg.c **** 			{0xECu, 0x01u},
1054:.\Generated_Source\PSoC4/cyfitter_cfg.c **** 			{0xEEu, 0x40u},
1055:.\Generated_Source\PSoC4/cyfitter_cfg.c **** 			{0x00u, 0x04u},
1056:.\Generated_Source\PSoC4/cyfitter_cfg.c **** 			{0x01u, 0x40u},
1057:.\Generated_Source\PSoC4/cyfitter_cfg.c **** 			{0x05u, 0x80u},
1058:.\Generated_Source\PSoC4/cyfitter_cfg.c **** 			{0x0Bu, 0x80u},
1059:.\Generated_Source\PSoC4/cyfitter_cfg.c **** 			{0x6Bu, 0x10u},
1060:.\Generated_Source\PSoC4/cyfitter_cfg.c **** 			{0x6Fu, 0x02u},
1061:.\Generated_Source\PSoC4/cyfitter_cfg.c **** 			{0x81u, 0xC0u},
1062:.\Generated_Source\PSoC4/cyfitter_cfg.c **** 			{0x89u, 0x10u},
1063:.\Generated_Source\PSoC4/cyfitter_cfg.c **** 			{0x8Fu, 0x02u},
1064:.\Generated_Source\PSoC4/cyfitter_cfg.c **** 			{0xC0u, 0xD0u},
1065:.\Generated_Source\PSoC4/cyfitter_cfg.c **** 			{0xC2u, 0x10u},
1066:.\Generated_Source\PSoC4/cyfitter_cfg.c **** 			{0xDAu, 0xC0u},
1067:.\Generated_Source\PSoC4/cyfitter_cfg.c **** 			{0xE0u, 0x20u},
ARM GAS  C:\Users\Tim\AppData\Local\Temp\ccoyQTkh.s 			page 27


1068:.\Generated_Source\PSoC4/cyfitter_cfg.c **** 			{0xE4u, 0x20u},
1069:.\Generated_Source\PSoC4/cyfitter_cfg.c **** 			{0x52u, 0x80u},
1070:.\Generated_Source\PSoC4/cyfitter_cfg.c **** 			{0x56u, 0x40u},
1071:.\Generated_Source\PSoC4/cyfitter_cfg.c **** 			{0x58u, 0x44u},
1072:.\Generated_Source\PSoC4/cyfitter_cfg.c **** 			{0x5Du, 0x10u},
1073:.\Generated_Source\PSoC4/cyfitter_cfg.c **** 			{0x60u, 0x08u},
1074:.\Generated_Source\PSoC4/cyfitter_cfg.c **** 			{0x65u, 0x84u},
1075:.\Generated_Source\PSoC4/cyfitter_cfg.c **** 			{0x81u, 0x20u},
1076:.\Generated_Source\PSoC4/cyfitter_cfg.c **** 			{0x82u, 0x80u},
1077:.\Generated_Source\PSoC4/cyfitter_cfg.c **** 			{0x84u, 0x08u},
1078:.\Generated_Source\PSoC4/cyfitter_cfg.c **** 			{0x86u, 0x40u},
1079:.\Generated_Source\PSoC4/cyfitter_cfg.c **** 			{0x8Bu, 0x04u},
1080:.\Generated_Source\PSoC4/cyfitter_cfg.c **** 			{0x8Cu, 0x20u},
1081:.\Generated_Source\PSoC4/cyfitter_cfg.c **** 			{0x91u, 0x10u},
1082:.\Generated_Source\PSoC4/cyfitter_cfg.c **** 			{0x9Fu, 0x10u},
1083:.\Generated_Source\PSoC4/cyfitter_cfg.c **** 			{0xA8u, 0x04u},
1084:.\Generated_Source\PSoC4/cyfitter_cfg.c **** 			{0xB3u, 0x40u},
1085:.\Generated_Source\PSoC4/cyfitter_cfg.c **** 			{0xD4u, 0xE0u},
1086:.\Generated_Source\PSoC4/cyfitter_cfg.c **** 			{0xD6u, 0xE0u},
1087:.\Generated_Source\PSoC4/cyfitter_cfg.c **** 			{0xD8u, 0xC0u},
1088:.\Generated_Source\PSoC4/cyfitter_cfg.c **** 			{0xE2u, 0x30u},
1089:.\Generated_Source\PSoC4/cyfitter_cfg.c **** 			{0xE6u, 0x30u},
1090:.\Generated_Source\PSoC4/cyfitter_cfg.c **** 			{0xE8u, 0x20u},
1091:.\Generated_Source\PSoC4/cyfitter_cfg.c **** 			{0x11u, 0x80u},
1092:.\Generated_Source\PSoC4/cyfitter_cfg.c **** 			{0x16u, 0x80u},
1093:.\Generated_Source\PSoC4/cyfitter_cfg.c **** 			{0x53u, 0x80u},
1094:.\Generated_Source\PSoC4/cyfitter_cfg.c **** 			{0x54u, 0x02u},
1095:.\Generated_Source\PSoC4/cyfitter_cfg.c **** 			{0x55u, 0x20u},
1096:.\Generated_Source\PSoC4/cyfitter_cfg.c **** 			{0x58u, 0x20u},
1097:.\Generated_Source\PSoC4/cyfitter_cfg.c **** 			{0x5Bu, 0x02u},
1098:.\Generated_Source\PSoC4/cyfitter_cfg.c **** 			{0x5Du, 0x08u},
1099:.\Generated_Source\PSoC4/cyfitter_cfg.c **** 			{0x62u, 0x20u},
1100:.\Generated_Source\PSoC4/cyfitter_cfg.c **** 			{0x67u, 0x08u},
1101:.\Generated_Source\PSoC4/cyfitter_cfg.c **** 			{0x88u, 0x04u},
1102:.\Generated_Source\PSoC4/cyfitter_cfg.c **** 			{0x93u, 0x08u},
1103:.\Generated_Source\PSoC4/cyfitter_cfg.c **** 			{0x98u, 0x20u},
1104:.\Generated_Source\PSoC4/cyfitter_cfg.c **** 			{0x99u, 0x08u},
1105:.\Generated_Source\PSoC4/cyfitter_cfg.c **** 			{0x9Cu, 0x04u},
1106:.\Generated_Source\PSoC4/cyfitter_cfg.c **** 			{0x9Du, 0x80u},
1107:.\Generated_Source\PSoC4/cyfitter_cfg.c **** 			{0x9Eu, 0x04u},
1108:.\Generated_Source\PSoC4/cyfitter_cfg.c **** 			{0x9Fu, 0x10u},
1109:.\Generated_Source\PSoC4/cyfitter_cfg.c **** 			{0xA0u, 0x02u},
1110:.\Generated_Source\PSoC4/cyfitter_cfg.c **** 			{0xA1u, 0x20u},
1111:.\Generated_Source\PSoC4/cyfitter_cfg.c **** 			{0xA2u, 0x20u},
1112:.\Generated_Source\PSoC4/cyfitter_cfg.c **** 			{0xA8u, 0x02u},
1113:.\Generated_Source\PSoC4/cyfitter_cfg.c **** 			{0xA9u, 0x08u},
1114:.\Generated_Source\PSoC4/cyfitter_cfg.c **** 			{0xAAu, 0x04u},
1115:.\Generated_Source\PSoC4/cyfitter_cfg.c **** 			{0xB0u, 0x40u},
1116:.\Generated_Source\PSoC4/cyfitter_cfg.c **** 			{0xB2u, 0x20u},
1117:.\Generated_Source\PSoC4/cyfitter_cfg.c **** 			{0xB5u, 0x04u},
1118:.\Generated_Source\PSoC4/cyfitter_cfg.c **** 			{0xC4u, 0x60u},
1119:.\Generated_Source\PSoC4/cyfitter_cfg.c **** 			{0xD4u, 0xE0u},
1120:.\Generated_Source\PSoC4/cyfitter_cfg.c **** 			{0xD6u, 0xE0u},
1121:.\Generated_Source\PSoC4/cyfitter_cfg.c **** 			{0xD8u, 0xC0u},
1122:.\Generated_Source\PSoC4/cyfitter_cfg.c **** 			{0xE8u, 0x80u},
1123:.\Generated_Source\PSoC4/cyfitter_cfg.c **** 			{0xEAu, 0x20u},
1124:.\Generated_Source\PSoC4/cyfitter_cfg.c **** 			{0xEEu, 0x20u},
ARM GAS  C:\Users\Tim\AppData\Local\Temp\ccoyQTkh.s 			page 28


1125:.\Generated_Source\PSoC4/cyfitter_cfg.c **** 			{0x02u, 0x08u},
1126:.\Generated_Source\PSoC4/cyfitter_cfg.c **** 			{0x06u, 0x04u},
1127:.\Generated_Source\PSoC4/cyfitter_cfg.c **** 			{0x37u, 0x08u},
1128:.\Generated_Source\PSoC4/cyfitter_cfg.c **** 			{0x56u, 0x80u},
1129:.\Generated_Source\PSoC4/cyfitter_cfg.c **** 			{0x83u, 0x10u},
1130:.\Generated_Source\PSoC4/cyfitter_cfg.c **** 			{0x8Bu, 0x82u},
1131:.\Generated_Source\PSoC4/cyfitter_cfg.c **** 			{0x8Du, 0x80u},
1132:.\Generated_Source\PSoC4/cyfitter_cfg.c **** 			{0x9Au, 0x80u},
1133:.\Generated_Source\PSoC4/cyfitter_cfg.c **** 			{0x9Bu, 0x08u},
1134:.\Generated_Source\PSoC4/cyfitter_cfg.c **** 			{0x9Du, 0x80u},
1135:.\Generated_Source\PSoC4/cyfitter_cfg.c **** 			{0x9Eu, 0x04u},
1136:.\Generated_Source\PSoC4/cyfitter_cfg.c **** 			{0x9Fu, 0x12u},
1137:.\Generated_Source\PSoC4/cyfitter_cfg.c **** 			{0xA6u, 0x08u},
1138:.\Generated_Source\PSoC4/cyfitter_cfg.c **** 			{0xA7u, 0x80u},
1139:.\Generated_Source\PSoC4/cyfitter_cfg.c **** 			{0xAAu, 0x08u},
1140:.\Generated_Source\PSoC4/cyfitter_cfg.c **** 			{0xADu, 0x40u},
1141:.\Generated_Source\PSoC4/cyfitter_cfg.c **** 			{0xB7u, 0x08u},
1142:.\Generated_Source\PSoC4/cyfitter_cfg.c **** 			{0xC0u, 0xC0u},
1143:.\Generated_Source\PSoC4/cyfitter_cfg.c **** 			{0xCCu, 0x80u},
1144:.\Generated_Source\PSoC4/cyfitter_cfg.c **** 			{0xD4u, 0x40u},
1145:.\Generated_Source\PSoC4/cyfitter_cfg.c **** 			{0xE2u, 0x20u},
1146:.\Generated_Source\PSoC4/cyfitter_cfg.c **** 			{0xE8u, 0x60u},
1147:.\Generated_Source\PSoC4/cyfitter_cfg.c **** 			{0x00u, 0x01u},
1148:.\Generated_Source\PSoC4/cyfitter_cfg.c **** 			{0x04u, 0x10u},
1149:.\Generated_Source\PSoC4/cyfitter_cfg.c **** 			{0x08u, 0x08u},
1150:.\Generated_Source\PSoC4/cyfitter_cfg.c **** 			{0x0Bu, 0x04u},
1151:.\Generated_Source\PSoC4/cyfitter_cfg.c **** 			{0x0Du, 0x80u},
1152:.\Generated_Source\PSoC4/cyfitter_cfg.c **** 			{0x8Cu, 0x19u},
1153:.\Generated_Source\PSoC4/cyfitter_cfg.c **** 			{0xC0u, 0x09u},
1154:.\Generated_Source\PSoC4/cyfitter_cfg.c **** 			{0xC2u, 0x0Bu},
1155:.\Generated_Source\PSoC4/cyfitter_cfg.c **** 			{0xE2u, 0x0Au},
1156:.\Generated_Source\PSoC4/cyfitter_cfg.c **** 			{0xE6u, 0x08u},
1157:.\Generated_Source\PSoC4/cyfitter_cfg.c **** 			{0x03u, 0x01u},
1158:.\Generated_Source\PSoC4/cyfitter_cfg.c **** 			{0x05u, 0x80u},
1159:.\Generated_Source\PSoC4/cyfitter_cfg.c **** 			{0x08u, 0x80u},
1160:.\Generated_Source\PSoC4/cyfitter_cfg.c **** 			{0x0Bu, 0x40u},
1161:.\Generated_Source\PSoC4/cyfitter_cfg.c **** 			{0x0Cu, 0x20u},
1162:.\Generated_Source\PSoC4/cyfitter_cfg.c **** 			{0x0Eu, 0x40u},
1163:.\Generated_Source\PSoC4/cyfitter_cfg.c **** 			{0x87u, 0x44u},
1164:.\Generated_Source\PSoC4/cyfitter_cfg.c **** 			{0x89u, 0x80u},
1165:.\Generated_Source\PSoC4/cyfitter_cfg.c **** 			{0x8Cu, 0x80u},
1166:.\Generated_Source\PSoC4/cyfitter_cfg.c **** 			{0x93u, 0x04u},
1167:.\Generated_Source\PSoC4/cyfitter_cfg.c **** 			{0x9Du, 0x02u},
1168:.\Generated_Source\PSoC4/cyfitter_cfg.c **** 			{0xA9u, 0x82u},
1169:.\Generated_Source\PSoC4/cyfitter_cfg.c **** 			{0xC0u, 0x03u},
1170:.\Generated_Source\PSoC4/cyfitter_cfg.c **** 			{0xC2u, 0x0Fu},
1171:.\Generated_Source\PSoC4/cyfitter_cfg.c **** 			{0xE2u, 0x08u},
1172:.\Generated_Source\PSoC4/cyfitter_cfg.c **** 			{0xE6u, 0x01u},
1173:.\Generated_Source\PSoC4/cyfitter_cfg.c **** 			{0x00u, 0x80u},
1174:.\Generated_Source\PSoC4/cyfitter_cfg.c **** 			{0x03u, 0x80u},
1175:.\Generated_Source\PSoC4/cyfitter_cfg.c **** 			{0x05u, 0x02u},
1176:.\Generated_Source\PSoC4/cyfitter_cfg.c **** 			{0x0Cu, 0x02u},
1177:.\Generated_Source\PSoC4/cyfitter_cfg.c **** 			{0x36u, 0x01u},
1178:.\Generated_Source\PSoC4/cyfitter_cfg.c **** 			{0x4Bu, 0x01u},
1179:.\Generated_Source\PSoC4/cyfitter_cfg.c **** 			{0x52u, 0x02u},
1180:.\Generated_Source\PSoC4/cyfitter_cfg.c **** 			{0x80u, 0x02u},
1181:.\Generated_Source\PSoC4/cyfitter_cfg.c **** 			{0x83u, 0x01u},
ARM GAS  C:\Users\Tim\AppData\Local\Temp\ccoyQTkh.s 			page 29


1182:.\Generated_Source\PSoC4/cyfitter_cfg.c **** 			{0x9Du, 0x02u},
1183:.\Generated_Source\PSoC4/cyfitter_cfg.c **** 			{0xAFu, 0x01u},
1184:.\Generated_Source\PSoC4/cyfitter_cfg.c **** 			{0xB4u, 0x20u},
1185:.\Generated_Source\PSoC4/cyfitter_cfg.c **** 			{0xB6u, 0x40u},
1186:.\Generated_Source\PSoC4/cyfitter_cfg.c **** 			{0xC0u, 0x0Eu},
1187:.\Generated_Source\PSoC4/cyfitter_cfg.c **** 			{0xC2u, 0x04u},
1188:.\Generated_Source\PSoC4/cyfitter_cfg.c **** 			{0xCCu, 0x01u},
1189:.\Generated_Source\PSoC4/cyfitter_cfg.c **** 			{0xD2u, 0x02u},
1190:.\Generated_Source\PSoC4/cyfitter_cfg.c **** 			{0xD4u, 0x01u},
1191:.\Generated_Source\PSoC4/cyfitter_cfg.c **** 			{0xEEu, 0x0Au},
1192:.\Generated_Source\PSoC4/cyfitter_cfg.c **** 			{0x06u, 0x20u},
1193:.\Generated_Source\PSoC4/cyfitter_cfg.c **** 			{0x8Au, 0x20u},
1194:.\Generated_Source\PSoC4/cyfitter_cfg.c **** 			{0xAAu, 0x01u},
1195:.\Generated_Source\PSoC4/cyfitter_cfg.c **** 			{0xAEu, 0x02u},
1196:.\Generated_Source\PSoC4/cyfitter_cfg.c **** 			{0xB0u, 0x40u},
1197:.\Generated_Source\PSoC4/cyfitter_cfg.c **** 			{0xB3u, 0x80u},
1198:.\Generated_Source\PSoC4/cyfitter_cfg.c **** 			{0xC0u, 0x04u},
1199:.\Generated_Source\PSoC4/cyfitter_cfg.c **** 			{0xE6u, 0x01u},
1200:.\Generated_Source\PSoC4/cyfitter_cfg.c **** 			{0xEAu, 0x01u},
1201:.\Generated_Source\PSoC4/cyfitter_cfg.c **** 			{0xEEu, 0x04u},
1202:.\Generated_Source\PSoC4/cyfitter_cfg.c **** 			{0x10u, 0x0Au},
1203:.\Generated_Source\PSoC4/cyfitter_cfg.c **** 			{0x12u, 0x0Au},
1204:.\Generated_Source\PSoC4/cyfitter_cfg.c **** 			{0x13u, 0x01u},
1205:.\Generated_Source\PSoC4/cyfitter_cfg.c **** 		};
1206:.\Generated_Source\PSoC4/cyfitter_cfg.c **** 
1207:.\Generated_Source\PSoC4/cyfitter_cfg.c **** 
1208:.\Generated_Source\PSoC4/cyfitter_cfg.c **** 
1209:.\Generated_Source\PSoC4/cyfitter_cfg.c **** 		CYPACKED typedef struct {
1210:.\Generated_Source\PSoC4/cyfitter_cfg.c **** 			void CYFAR *address;
1211:.\Generated_Source\PSoC4/cyfitter_cfg.c **** 			uint16 size;
1212:.\Generated_Source\PSoC4/cyfitter_cfg.c **** 		} CYPACKED_ATTR cfg_memset_t;
1213:.\Generated_Source\PSoC4/cyfitter_cfg.c **** 
1214:.\Generated_Source\PSoC4/cyfitter_cfg.c **** 		static const cfg_memset_t CYCODE cfg_memset_list [] = {
1215:.\Generated_Source\PSoC4/cyfitter_cfg.c **** 			/* address, size */
1216:.\Generated_Source\PSoC4/cyfitter_cfg.c **** 			{(void CYFAR *)(CYDEV_UDB_P0_U0_BASE), 2048u},
1217:.\Generated_Source\PSoC4/cyfitter_cfg.c **** 			{(void CYFAR *)(CYDEV_UDB_DSI0_BASE), 2048u},
1218:.\Generated_Source\PSoC4/cyfitter_cfg.c **** 		};
1219:.\Generated_Source\PSoC4/cyfitter_cfg.c **** 
1220:.\Generated_Source\PSoC4/cyfitter_cfg.c **** 		uint8 CYDATA i;
1221:.\Generated_Source\PSoC4/cyfitter_cfg.c **** 
1222:.\Generated_Source\PSoC4/cyfitter_cfg.c **** 		/* Zero out critical memory blocks before beginning configuration */
1223:.\Generated_Source\PSoC4/cyfitter_cfg.c **** 		for (i = 0u; i < (sizeof(cfg_memset_list)/sizeof(cfg_memset_list[0])); i++)
 401              		.loc 1 1223 0
 402 011a 0024     		mov	r4, #0
 403 011c 10E0     		b	.L19
 404              	.LVL25:
 405              	.L20:
 406              	.LBB4:
1224:.\Generated_Source\PSoC4/cyfitter_cfg.c **** 		{
1225:.\Generated_Source\PSoC4/cyfitter_cfg.c **** 			const cfg_memset_t CYCODE * CYDATA ms = &cfg_memset_list[i];
1226:.\Generated_Source\PSoC4/cyfitter_cfg.c **** 			CYMEMZERO(ms->address, (size_t)(uint32)(ms->size));
 407              		.loc 1 1226 0 discriminator 3
 408 011e 5048     		ldr	r0, .L21+4
 409 0120 6300     		lsl	r3, r4, #1
 410 0122 1A19     		add	r2, r3, r4
 411 0124 5200     		lsl	r2, r2, #1
 412 0126 8218     		add	r2, r0, r2
ARM GAS  C:\Users\Tim\AppData\Local\Temp\ccoyQTkh.s 			page 30


 413 0128 9188     		ldrh	r1, [r2, #4]
 414 012a 1B19     		add	r3, r3, r4
 415 012c 5B00     		lsl	r3, r3, #1
 416 012e 1A5A     		ldrh	r2, [r3, r0]
 417 0130 C318     		add	r3, r0, r3
 418 0132 5888     		ldrh	r0, [r3, #2]
 419 0134 0004     		lsl	r0, r0, #16
 420 0136 1043     		orr	r0, r2
 421 0138 FFF7FEFF 		bl	CYMEMZERO
 422              	.LVL26:
 423              	.LBE4:
1223:.\Generated_Source\PSoC4/cyfitter_cfg.c **** 		{
 424              		.loc 1 1223 0 discriminator 3
 425 013c 0134     		add	r4, r4, #1
 426              	.LVL27:
 427 013e E4B2     		uxtb	r4, r4
 428              	.LVL28:
 429              	.L19:
1223:.\Generated_Source\PSoC4/cyfitter_cfg.c **** 		{
 430              		.loc 1 1223 0 is_stmt 0 discriminator 1
 431 0140 012C     		cmp	r4, #1
 432 0142 ECD9     		bls	.L20
1227:.\Generated_Source\PSoC4/cyfitter_cfg.c **** 		}
1228:.\Generated_Source\PSoC4/cyfitter_cfg.c **** 
1229:.\Generated_Source\PSoC4/cyfitter_cfg.c **** 		cfg_write_bytes32(cy_cfg_addr_table, cy_cfg_data_table);
 433              		.loc 1 1229 0 is_stmt 1
 434 0144 4649     		ldr	r1, .L21+4
 435 0146 081C     		mov	r0, r1
 436 0148 0C30     		add	r0, r0, #12
 437 014a 5431     		add	r1, r1, #84
 438 014c FFF7FEFF 		bl	cfg_write_bytes32
 439              	.LVL29:
1230:.\Generated_Source\PSoC4/cyfitter_cfg.c **** 
1231:.\Generated_Source\PSoC4/cyfitter_cfg.c **** 		/* Perform normal device configuration. Order is not critical for these items. */
1232:.\Generated_Source\PSoC4/cyfitter_cfg.c **** 		CY_SET_XTND_REG16((void CYFAR *)(CYREG_UDB_BCTL0_DRV), 0x0A00u);
 440              		.loc 1 1232 0
 441 0150 A022     		mov	r2, #160
 442 0152 1201     		lsl	r2, r2, #4
 443 0154 434B     		ldr	r3, .L21+8
 444 0156 1A80     		strh	r2, [r3]
1233:.\Generated_Source\PSoC4/cyfitter_cfg.c **** 		CY_SET_XTND_REG8((void CYFAR *)(CYREG_UDB_BCTL0_DRV + 0x2u), 0x01u);
 445              		.loc 1 1233 0
 446 0158 0122     		mov	r2, #1
 447 015a 434B     		ldr	r3, .L21+12
 448 015c 1A70     		strb	r2, [r3]
1234:.\Generated_Source\PSoC4/cyfitter_cfg.c **** 
1235:.\Generated_Source\PSoC4/cyfitter_cfg.c **** 		/* HSIOM Starting address: CYDEV_HSIOM_BASE */
1236:.\Generated_Source\PSoC4/cyfitter_cfg.c **** 		CY_SET_XTND_REG32((void CYFAR *)(CYREG_HSIOM_PORT_SEL1), 0x66666666u);
 449              		.loc 1 1236 0
 450 015e 434A     		ldr	r2, .L21+16
 451 0160 434B     		ldr	r3, .L21+20
 452 0162 1A60     		str	r2, [r3]
1237:.\Generated_Source\PSoC4/cyfitter_cfg.c **** 		CY_SET_XTND_REG32((void CYFAR *)(CYREG_HSIOM_PORT_SEL3), 0x0000EE00u);
 453              		.loc 1 1237 0
 454 0164 EE22     		mov	r2, #238
 455 0166 1202     		lsl	r2, r2, #8
 456 0168 424B     		ldr	r3, .L21+24
ARM GAS  C:\Users\Tim\AppData\Local\Temp\ccoyQTkh.s 			page 31


 457 016a 1A60     		str	r2, [r3]
1238:.\Generated_Source\PSoC4/cyfitter_cfg.c **** 		CY_SET_XTND_REG32((void CYFAR *)(CYREG_HSIOM_PORT_SEL4), 0x000000EEu);
 458              		.loc 1 1238 0
 459 016c EE22     		mov	r2, #238
 460 016e 424B     		ldr	r3, .L21+28
 461 0170 1A60     		str	r2, [r3]
1239:.\Generated_Source\PSoC4/cyfitter_cfg.c **** 		CY_SET_XTND_REG32((void CYFAR *)(CYREG_HSIOM_PORT_SEL10), 0x00000200u);
 462              		.loc 1 1239 0
 463 0172 8023     		mov	r3, #128
 464 0174 9B00     		lsl	r3, r3, #2
 465 0176 414A     		ldr	r2, .L21+32
 466 0178 1360     		str	r3, [r2]
1240:.\Generated_Source\PSoC4/cyfitter_cfg.c **** 		CY_SET_XTND_REG32((void CYFAR *)(CYREG_HSIOM_PORT_SEL11), 0x00000200u);
 467              		.loc 1 1240 0
 468 017a 414A     		ldr	r2, .L21+36
 469 017c 1360     		str	r3, [r2]
1241:.\Generated_Source\PSoC4/cyfitter_cfg.c **** 
1242:.\Generated_Source\PSoC4/cyfitter_cfg.c **** 		/* UDB_PA_0 Starting address: CYDEV_UDB_PA0_BASE */
1243:.\Generated_Source\PSoC4/cyfitter_cfg.c **** 		CY_SET_XTND_REG32((void CYFAR *)(CYDEV_UDB_PA0_BASE), 0x00990000u);
 470              		.loc 1 1243 0
 471 017e 9923     		mov	r3, #153
 472 0180 1B04     		lsl	r3, r3, #16
 473 0182 404A     		ldr	r2, .L21+40
 474 0184 1360     		str	r3, [r2]
1244:.\Generated_Source\PSoC4/cyfitter_cfg.c **** 
1245:.\Generated_Source\PSoC4/cyfitter_cfg.c **** 		/* UDB_PA_1 Starting address: CYDEV_UDB_PA1_BASE */
1246:.\Generated_Source\PSoC4/cyfitter_cfg.c **** 		CY_SET_XTND_REG32((void CYFAR *)(CYDEV_UDB_PA1_BASE), 0x00990000u);
 475              		.loc 1 1246 0
 476 0186 404A     		ldr	r2, .L21+44
 477 0188 1360     		str	r3, [r2]
1247:.\Generated_Source\PSoC4/cyfitter_cfg.c **** 		CY_SET_XTND_REG32((void CYFAR *)(CYREG_UDB_PA1_CFG8), 0xB1630000u);
 478              		.loc 1 1247 0
 479 018a 4049     		ldr	r1, .L21+48
 480 018c 404A     		ldr	r2, .L21+52
 481 018e 1160     		str	r1, [r2]
1248:.\Generated_Source\PSoC4/cyfitter_cfg.c **** 
1249:.\Generated_Source\PSoC4/cyfitter_cfg.c **** 		/* UDB_PA_2 Starting address: CYDEV_UDB_PA2_BASE */
1250:.\Generated_Source\PSoC4/cyfitter_cfg.c **** 		CY_SET_XTND_REG32((void CYFAR *)(CYDEV_UDB_PA2_BASE), 0x00990000u);
 482              		.loc 1 1250 0
 483 0190 404A     		ldr	r2, .L21+56
 484 0192 1360     		str	r3, [r2]
1251:.\Generated_Source\PSoC4/cyfitter_cfg.c **** 		CY_SET_XTND_REG32((void CYFAR *)(CYREG_UDB_PA2_CFG8), 0x4B870000u);
 485              		.loc 1 1251 0
 486 0194 4049     		ldr	r1, .L21+60
 487 0196 414A     		ldr	r2, .L21+64
 488 0198 1160     		str	r1, [r2]
1252:.\Generated_Source\PSoC4/cyfitter_cfg.c **** 
1253:.\Generated_Source\PSoC4/cyfitter_cfg.c **** 		/* UDB_PA_3 Starting address: CYDEV_UDB_PA3_BASE */
1254:.\Generated_Source\PSoC4/cyfitter_cfg.c **** 		CY_SET_XTND_REG32((void CYFAR *)(CYDEV_UDB_PA3_BASE), 0x00990004u);
 489              		.loc 1 1254 0
 490 019a 4148     		ldr	r0, .L21+68
 491 019c 414A     		ldr	r2, .L21+72
 492 019e 1060     		str	r0, [r2]
1255:.\Generated_Source\PSoC4/cyfitter_cfg.c **** 		CY_SET_XTND_REG32((void CYFAR *)(CYREG_UDB_PA3_CFG4), 0x00200000u);
 493              		.loc 1 1255 0
 494 01a0 8022     		mov	r2, #128
 495 01a2 9203     		lsl	r2, r2, #14
ARM GAS  C:\Users\Tim\AppData\Local\Temp\ccoyQTkh.s 			page 32


 496 01a4 4049     		ldr	r1, .L21+76
 497 01a6 0A60     		str	r2, [r1]
1256:.\Generated_Source\PSoC4/cyfitter_cfg.c **** 		CY_SET_XTND_REG32((void CYFAR *)(CYREG_UDB_PA3_CFG8), 0x00100000u);
 498              		.loc 1 1256 0
 499 01a8 8024     		mov	r4, #128
 500              	.LVL30:
 501 01aa 6403     		lsl	r4, r4, #13
 502 01ac 3F49     		ldr	r1, .L21+80
 503 01ae 0C60     		str	r4, [r1]
1257:.\Generated_Source\PSoC4/cyfitter_cfg.c **** 		CY_SET_XTND_REG32((void CYFAR *)(CYREG_UDB_PA3_CFG12), 0x00000030u);
 504              		.loc 1 1257 0
 505 01b0 3021     		mov	r1, #48
 506 01b2 3F4C     		ldr	r4, .L21+84
 507 01b4 2160     		str	r1, [r4]
1258:.\Generated_Source\PSoC4/cyfitter_cfg.c **** 
1259:.\Generated_Source\PSoC4/cyfitter_cfg.c **** 		/* UDB_PA_4 Starting address: CYDEV_UDB_PA4_BASE */
1260:.\Generated_Source\PSoC4/cyfitter_cfg.c **** 		CY_SET_XTND_REG32((void CYFAR *)(CYDEV_UDB_PA4_BASE), 0x00990000u);
 508              		.loc 1 1260 0
 509 01b6 3F4C     		ldr	r4, .L21+88
 510 01b8 2360     		str	r3, [r4]
1261:.\Generated_Source\PSoC4/cyfitter_cfg.c **** 
1262:.\Generated_Source\PSoC4/cyfitter_cfg.c **** 		/* UDB_PA_5 Starting address: CYDEV_UDB_PA5_BASE */
1263:.\Generated_Source\PSoC4/cyfitter_cfg.c **** 		CY_SET_XTND_REG32((void CYFAR *)(CYDEV_UDB_PA5_BASE), 0x00990000u);
 511              		.loc 1 1263 0
 512 01ba 3F4C     		ldr	r4, .L21+92
 513 01bc 2360     		str	r3, [r4]
1264:.\Generated_Source\PSoC4/cyfitter_cfg.c **** 
1265:.\Generated_Source\PSoC4/cyfitter_cfg.c **** 		/* UDB_PA_6 Starting address: CYDEV_UDB_PA6_BASE */
1266:.\Generated_Source\PSoC4/cyfitter_cfg.c **** 		CY_SET_XTND_REG32((void CYFAR *)(CYDEV_UDB_PA6_BASE), 0x00990004u);
 514              		.loc 1 1266 0
 515 01be 3F4C     		ldr	r4, .L21+96
 516 01c0 2060     		str	r0, [r4]
1267:.\Generated_Source\PSoC4/cyfitter_cfg.c **** 		CY_SET_XTND_REG32((void CYFAR *)(CYREG_UDB_PA6_CFG4), 0x00200000u);
 517              		.loc 1 1267 0
 518 01c2 3F48     		ldr	r0, .L21+100
 519 01c4 0260     		str	r2, [r0]
1268:.\Generated_Source\PSoC4/cyfitter_cfg.c **** 		CY_SET_XTND_REG32((void CYFAR *)(CYREG_UDB_PA6_CFG8), 0x00200000u);
 520              		.loc 1 1268 0
 521 01c6 3F48     		ldr	r0, .L21+104
 522 01c8 0260     		str	r2, [r0]
1269:.\Generated_Source\PSoC4/cyfitter_cfg.c **** 		CY_SET_XTND_REG32((void CYFAR *)(CYREG_UDB_PA6_CFG12), 0x00000030u);
 523              		.loc 1 1269 0
 524 01ca 3F4A     		ldr	r2, .L21+108
 525 01cc 1160     		str	r1, [r2]
1270:.\Generated_Source\PSoC4/cyfitter_cfg.c **** 
1271:.\Generated_Source\PSoC4/cyfitter_cfg.c **** 		/* UDB_PA_7 Starting address: CYDEV_UDB_PA7_BASE */
1272:.\Generated_Source\PSoC4/cyfitter_cfg.c **** 		CY_SET_XTND_REG32((void CYFAR *)(CYDEV_UDB_PA7_BASE), 0x00990000u);
 526              		.loc 1 1272 0
 527 01ce 3F4A     		ldr	r2, .L21+112
 528 01d0 1360     		str	r3, [r2]
1273:.\Generated_Source\PSoC4/cyfitter_cfg.c **** 
1274:.\Generated_Source\PSoC4/cyfitter_cfg.c **** 		/* TCPWM_CNT0 Starting address: CYDEV_TCPWM_CNT0_TR_CTRL0 */
1275:.\Generated_Source\PSoC4/cyfitter_cfg.c **** 		CY_SET_XTND_REG32((void CYFAR *)(CYREG_TCPWM_CNT0_TR_CTRL0), 0x00088818u);
 529              		.loc 1 1275 0
 530 01d2 3F4A     		ldr	r2, .L21+116
 531 01d4 3F4B     		ldr	r3, .L21+120
 532 01d6 1A60     		str	r2, [r3]
ARM GAS  C:\Users\Tim\AppData\Local\Temp\ccoyQTkh.s 			page 33


1276:.\Generated_Source\PSoC4/cyfitter_cfg.c **** 
1277:.\Generated_Source\PSoC4/cyfitter_cfg.c **** 		/* INT_SELECT Starting address: CYDEV_CPUSS_INT_SEL */
1278:.\Generated_Source\PSoC4/cyfitter_cfg.c **** 		CY_SET_XTND_REG32((void CYFAR *)(CYREG_CPUSS_INT_SEL), 0x00000003u);
 533              		.loc 1 1278 0
 534 01d8 0322     		mov	r2, #3
 535 01da 3F4B     		ldr	r3, .L21+124
 536 01dc 1A60     		str	r2, [r3]
1279:.\Generated_Source\PSoC4/cyfitter_cfg.c **** 
1280:.\Generated_Source\PSoC4/cyfitter_cfg.c **** 		/* INT_CONFIG Starting address: CYDEV_UDB_INT_CFG */
1281:.\Generated_Source\PSoC4/cyfitter_cfg.c **** 		CY_SET_XTND_REG32((void CYFAR *)(CYREG_UDB_INT_CFG), 0x00000003u);
 537              		.loc 1 1281 0
 538 01de 3F4B     		ldr	r3, .L21+128
 539 01e0 1A60     		str	r2, [r3]
1282:.\Generated_Source\PSoC4/cyfitter_cfg.c **** 
1283:.\Generated_Source\PSoC4/cyfitter_cfg.c **** 		/* Enable digital routing */
1284:.\Generated_Source\PSoC4/cyfitter_cfg.c **** 		CY_SET_XTND_REG8((void *)CYREG_UDB_UDB_BANK_CTL, CY_GET_XTND_REG8((void *)CYREG_UDB_UDB_BANK_CTL)
 540              		.loc 1 1284 0
 541 01e2 3F4B     		ldr	r3, .L21+132
 542 01e4 1878     		ldrb	r0, [r3]
 543 01e6 2E39     		sub	r1, r1, #46
 544 01e8 0143     		orr	r1, r0
 545 01ea 1970     		strb	r1, [r3]
1285:.\Generated_Source\PSoC4/cyfitter_cfg.c **** 
1286:.\Generated_Source\PSoC4/cyfitter_cfg.c **** 		/* Enable UDB array */
1287:.\Generated_Source\PSoC4/cyfitter_cfg.c **** 		CY_SET_XTND_REG8((void *)CYREG_UDB_UDB_BANK_CTL, (uint8)(CY_GET_XTND_REG8((void *)CYREG_UDB_UDB_B
 546              		.loc 1 1287 0
 547 01ec 1878     		ldrb	r0, [r3]
 548 01ee 0621     		mov	r1, #6
 549 01f0 0143     		orr	r1, r0
 550 01f2 1970     		strb	r1, [r3]
 551              	.LBE3:
1288:.\Generated_Source\PSoC4/cyfitter_cfg.c **** 	}
1289:.\Generated_Source\PSoC4/cyfitter_cfg.c **** 
1290:.\Generated_Source\PSoC4/cyfitter_cfg.c **** 
1291:.\Generated_Source\PSoC4/cyfitter_cfg.c **** 	/* Perform second pass device configuration. These items must be configured in specific order afte
1292:.\Generated_Source\PSoC4/cyfitter_cfg.c **** 	CY_SET_XTND_REG8((void CYFAR *)(CYREG_UDB_P2_U0_CFG24), 0xC4u);
 552              		.loc 1 1292 0
 553 01f4 C421     		mov	r1, #196
 554 01f6 3B4B     		ldr	r3, .L21+136
 555 01f8 1970     		strb	r1, [r3]
1293:.\Generated_Source\PSoC4/cyfitter_cfg.c **** 	CY_SET_XTND_REG8((void CYFAR *)(CYREG_UDB_P2_U1_CFG24), 0x84u);
 556              		.loc 1 1293 0
 557 01fa 4039     		sub	r1, r1, #64
 558 01fc 3A4B     		ldr	r3, .L21+140
 559 01fe 1970     		strb	r1, [r3]
1294:.\Generated_Source\PSoC4/cyfitter_cfg.c **** 	/* IOPINS0_0 Starting address: CYDEV_GPIO_PRT0_BASE */
1295:.\Generated_Source\PSoC4/cyfitter_cfg.c **** 	CY_SET_XTND_REG32((void CYFAR *)(CYREG_GPIO_PRT0_PC), 0x00C76C36u);
 560              		.loc 1 1295 0
 561 0200 3A49     		ldr	r1, .L21+144
 562 0202 3B4B     		ldr	r3, .L21+148
 563 0204 1960     		str	r1, [r3]
1296:.\Generated_Source\PSoC4/cyfitter_cfg.c **** 
1297:.\Generated_Source\PSoC4/cyfitter_cfg.c **** 	/* IOPINS0_10 Starting address: CYDEV_GPIO_PRT10_BASE */
1298:.\Generated_Source\PSoC4/cyfitter_cfg.c **** 	CY_SET_XTND_REG32((void CYFAR *)(CYREG_GPIO_PRT10_PC), 0x00000280u);
 564              		.loc 1 1298 0
 565 0206 A021     		mov	r1, #160
 566 0208 8900     		lsl	r1, r1, #2
ARM GAS  C:\Users\Tim\AppData\Local\Temp\ccoyQTkh.s 			page 34


 567 020a 3A4B     		ldr	r3, .L21+152
 568 020c 1960     		str	r1, [r3]
1299:.\Generated_Source\PSoC4/cyfitter_cfg.c **** 
1300:.\Generated_Source\PSoC4/cyfitter_cfg.c **** 	/* IOPINS0_11 Starting address: CYDEV_GPIO_PRT11_BASE */
1301:.\Generated_Source\PSoC4/cyfitter_cfg.c **** 	CY_SET_XTND_REG32((void CYFAR *)(CYREG_GPIO_PRT11_PC), 0x000080B6u);
 569              		.loc 1 1301 0
 570 020e 3A49     		ldr	r1, .L21+156
 571 0210 3A4B     		ldr	r3, .L21+160
 572 0212 1960     		str	r1, [r3]
1302:.\Generated_Source\PSoC4/cyfitter_cfg.c **** 
1303:.\Generated_Source\PSoC4/cyfitter_cfg.c **** 	/* IOPINS0_1 Starting address: CYDEV_GPIO_PRT1_BASE */
1304:.\Generated_Source\PSoC4/cyfitter_cfg.c **** 	CY_SET_XTND_REG32((void CYFAR *)(CYDEV_GPIO_PRT1_BASE), 0x000000FFu);
 573              		.loc 1 1304 0
 574 0214 FF23     		mov	r3, #255
 575 0216 3A49     		ldr	r1, .L21+164
 576 0218 0B60     		str	r3, [r1]
1305:.\Generated_Source\PSoC4/cyfitter_cfg.c **** 	CY_SET_XTND_REG32((void CYFAR *)(CYREG_GPIO_PRT1_PC2), 0x000000FFu);
 577              		.loc 1 1305 0
 578 021a 3A49     		ldr	r1, .L21+168
 579 021c 0B60     		str	r3, [r1]
1306:.\Generated_Source\PSoC4/cyfitter_cfg.c **** 
1307:.\Generated_Source\PSoC4/cyfitter_cfg.c **** 	/* IOPINS0_2 Starting address: CYDEV_GPIO_PRT2_BASE */
1308:.\Generated_Source\PSoC4/cyfitter_cfg.c **** 	CY_SET_XTND_REG32((void CYFAR *)(CYDEV_GPIO_PRT2_BASE), 0x000000FFu);
 580              		.loc 1 1308 0
 581 021e 3A49     		ldr	r1, .L21+172
 582 0220 0B60     		str	r3, [r1]
1309:.\Generated_Source\PSoC4/cyfitter_cfg.c **** 	CY_SET_XTND_REG32((void CYFAR *)(CYREG_GPIO_PRT2_PC2), 0x000000FFu);
 583              		.loc 1 1309 0
 584 0222 3A49     		ldr	r1, .L21+176
 585 0224 0B60     		str	r3, [r1]
1310:.\Generated_Source\PSoC4/cyfitter_cfg.c **** 
1311:.\Generated_Source\PSoC4/cyfitter_cfg.c **** 	/* IOPINS0_3 Starting address: CYDEV_GPIO_PRT3_BASE */
1312:.\Generated_Source\PSoC4/cyfitter_cfg.c **** 	CY_SET_XTND_REG32((void CYFAR *)(CYREG_GPIO_PRT3_PC), 0x00006D88u);
 586              		.loc 1 1312 0
 587 0226 3A49     		ldr	r1, .L21+180
 588 0228 3A4B     		ldr	r3, .L21+184
 589 022a 1960     		str	r1, [r3]
1313:.\Generated_Source\PSoC4/cyfitter_cfg.c **** 
1314:.\Generated_Source\PSoC4/cyfitter_cfg.c **** 	/* IOPINS0_4 Starting address: CYDEV_GPIO_PRT4_BASE */
1315:.\Generated_Source\PSoC4/cyfitter_cfg.c **** 	CY_SET_XTND_REG32((void CYFAR *)(CYDEV_GPIO_PRT4_BASE), 0x00000003u);
 590              		.loc 1 1315 0
 591 022c 3A4B     		ldr	r3, .L21+188
 592 022e 1A60     		str	r2, [r3]
1316:.\Generated_Source\PSoC4/cyfitter_cfg.c **** 	CY_SET_XTND_REG32((void CYFAR *)(CYREG_GPIO_PRT4_PC), 0x00DB6DA4u);
 593              		.loc 1 1316 0
 594 0230 3A4A     		ldr	r2, .L21+192
 595 0232 3B4B     		ldr	r3, .L21+196
 596 0234 1A60     		str	r2, [r3]
1317:.\Generated_Source\PSoC4/cyfitter_cfg.c **** 
1318:.\Generated_Source\PSoC4/cyfitter_cfg.c **** 	/* IOPINS0_5 Starting address: CYDEV_GPIO_PRT5_BASE */
1319:.\Generated_Source\PSoC4/cyfitter_cfg.c **** 	CY_SET_XTND_REG32((void CYFAR *)(CYREG_GPIO_PRT5_PC), 0x00DB6D86u);
 597              		.loc 1 1319 0
 598 0236 3B4A     		ldr	r2, .L21+200
 599 0238 3B4B     		ldr	r3, .L21+204
 600 023a 1A60     		str	r2, [r3]
1320:.\Generated_Source\PSoC4/cyfitter_cfg.c **** 
1321:.\Generated_Source\PSoC4/cyfitter_cfg.c **** 	/* IOPINS0_6 Starting address: CYDEV_GPIO_PRT6_BASE */
ARM GAS  C:\Users\Tim\AppData\Local\Temp\ccoyQTkh.s 			page 35


1322:.\Generated_Source\PSoC4/cyfitter_cfg.c **** 	CY_SET_XTND_REG32((void CYFAR *)(CYDEV_GPIO_PRT6_BASE), 0x00000020u);
 601              		.loc 1 1322 0
 602 023c 2022     		mov	r2, #32
 603 023e 3B4B     		ldr	r3, .L21+208
 604 0240 1A60     		str	r2, [r3]
1323:.\Generated_Source\PSoC4/cyfitter_cfg.c **** 	CY_SET_XTND_REG32((void CYFAR *)(CYREG_GPIO_PRT6_PC), 0x00036DB6u);
 605              		.loc 1 1323 0
 606 0242 3B4B     		ldr	r3, .L21+212
 607 0244 3B4A     		ldr	r2, .L21+216
 608 0246 1360     		str	r3, [r2]
1324:.\Generated_Source\PSoC4/cyfitter_cfg.c **** 
1325:.\Generated_Source\PSoC4/cyfitter_cfg.c **** 	/* IOPINS0_7 Starting address: CYDEV_GPIO_PRT7_BASE */
1326:.\Generated_Source\PSoC4/cyfitter_cfg.c **** 	CY_SET_XTND_REG32((void CYFAR *)(CYDEV_GPIO_PRT7_BASE), 0x00000002u);
 609              		.loc 1 1326 0
 610 0248 3B4A     		ldr	r2, .L21+220
 611 024a 0221     		mov	r1, #2
 612 024c 1160     		str	r1, [r2]
1327:.\Generated_Source\PSoC4/cyfitter_cfg.c **** 	CY_SET_XTND_REG32((void CYFAR *)(CYREG_GPIO_PRT7_PC), 0x00036DB6u);
 613              		.loc 1 1327 0
 614 024e 3B4A     		ldr	r2, .L21+224
 615 0250 1360     		str	r3, [r2]
1328:.\Generated_Source\PSoC4/cyfitter_cfg.c **** 
1329:.\Generated_Source\PSoC4/cyfitter_cfg.c **** 
1330:.\Generated_Source\PSoC4/cyfitter_cfg.c **** 	/* Setup clocks based on selections from Clock DWR */
1331:.\Generated_Source\PSoC4/cyfitter_cfg.c **** 	ClockSetup();
 616              		.loc 1 1331 0
 617 0252 FFF7D5FE 		bl	ClockSetup
 618              	.LVL31:
1332:.\Generated_Source\PSoC4/cyfitter_cfg.c **** 
1333:.\Generated_Source\PSoC4/cyfitter_cfg.c **** 	/* Perform basic analog initialization to defaults */
1334:.\Generated_Source\PSoC4/cyfitter_cfg.c **** 	AnalogSetDefault();
 619              		.loc 1 1334 0
 620 0256 FFF7FEFF 		bl	AnalogSetDefault
 621              	.LVL32:
1335:.\Generated_Source\PSoC4/cyfitter_cfg.c **** 
1336:.\Generated_Source\PSoC4/cyfitter_cfg.c **** }
 622              		.loc 1 1336 0
 623              		@ sp needed
 624 025a 10BD     		pop	{r4, pc}
 625              	.L22:
 626              		.align	2
 627              	.L21:
 628 025c 1C700F40 		.word	1074753564
 629 0260 00000000 		.word	.LANCHOR0
 630 0264 00600F40 		.word	1074749440
 631 0268 02600F40 		.word	1074749442
 632 026c 66666666 		.word	1717986918
 633 0270 00010240 		.word	1073873152
 634 0274 00030240 		.word	1073873664
 635 0278 00040240 		.word	1073873920
 636 027c 000A0240 		.word	1073875456
 637 0280 000B0240 		.word	1073875712
 638 0284 00500F40 		.word	1074745344
 639 0288 10500F40 		.word	1074745360
 640 028c 000063B1 		.word	-1318912000
 641 0290 18500F40 		.word	1074745368
 642 0294 20500F40 		.word	1074745376
ARM GAS  C:\Users\Tim\AppData\Local\Temp\ccoyQTkh.s 			page 36


 643 0298 0000874B 		.word	1267138560
 644 029c 28500F40 		.word	1074745384
 645 02a0 04009900 		.word	10027012
 646 02a4 30500F40 		.word	1074745392
 647 02a8 34500F40 		.word	1074745396
 648 02ac 38500F40 		.word	1074745400
 649 02b0 3C500F40 		.word	1074745404
 650 02b4 40500F40 		.word	1074745408
 651 02b8 50500F40 		.word	1074745424
 652 02bc 60500F40 		.word	1074745440
 653 02c0 64500F40 		.word	1074745444
 654 02c4 68500F40 		.word	1074745448
 655 02c8 6C500F40 		.word	1074745452
 656 02cc 70500F40 		.word	1074745456
 657 02d0 18880800 		.word	559128
 658 02d4 20012040 		.word	1075839264
 659 02d8 20001040 		.word	1074790432
 660 02dc 00800F40 		.word	1074757632
 661 02e0 00700F40 		.word	1074753536
 662 02e4 58340F40 		.word	1074738264
 663 02e8 D8340F40 		.word	1074738392
 664 02ec 366CC700 		.word	13069366
 665 02f0 08000440 		.word	1074003976
 666 02f4 080A0440 		.word	1074006536
 667 02f8 B6800000 		.word	32950
 668 02fc 080B0440 		.word	1074006792
 669 0300 00010440 		.word	1074004224
 670 0304 18010440 		.word	1074004248
 671 0308 00020440 		.word	1074004480
 672 030c 18020440 		.word	1074004504
 673 0310 886D0000 		.word	28040
 674 0314 08030440 		.word	1074004744
 675 0318 00040440 		.word	1074004992
 676 031c A46DDB00 		.word	14380452
 677 0320 08040440 		.word	1074005000
 678 0324 866DDB00 		.word	14380422
 679 0328 08050440 		.word	1074005256
 680 032c 00060440 		.word	1074005504
 681 0330 B66D0300 		.word	224694
 682 0334 08060440 		.word	1074005512
 683 0338 00070440 		.word	1074005760
 684 033c 08070440 		.word	1074005768
 685              		.cfi_endproc
 686              	.LFE9:
 687              		.size	cyfitter_cfg, .-cyfitter_cfg
 688              		.section	.rodata
 689              		.align	2
 690              		.set	.LANCHOR0,. + 0
 691              		.type	cfg_memset_list.4838, %object
 692              		.size	cfg_memset_list.4838, 12
 693              	cfg_memset_list.4838:
 694 0000 00300F40 		.word	1074737152
 695 0004 0008     		.short	2048
 696 0006 00400F40 		.4byte	1074741248
 697 000a 0008     		.short	2048
 698              		.type	cy_cfg_addr_table.4832, %object
 699              		.size	cy_cfg_addr_table.4832, 72
ARM GAS  C:\Users\Tim\AppData\Local\Temp\ccoyQTkh.s 			page 37


 700              	cy_cfg_addr_table.4832:
 701 000c 02000F40 		.word	1074724866
 702 0010 65300F40 		.word	1074737253
 703 0014 38310F40 		.word	1074737464
 704 0018 6B320F40 		.word	1074737771
 705 001c 50330F40 		.word	1074738000
 706 0020 72340F40 		.word	1074738290
 707 0024 49350F40 		.word	1074738505
 708 0028 5E360F40 		.word	1074738782
 709 002c 48370F40 		.word	1074739016
 710 0030 0E400F40 		.word	1074741262
 711 0034 16410F40 		.word	1074741526
 712 0038 22420F40 		.word	1074741794
 713 003c 16430F40 		.word	1074742038
 714 0040 0A440F40 		.word	1074742282
 715 0044 10450F40 		.word	1074742544
 716 0048 13460F40 		.word	1074742803
 717 004c 0A470F40 		.word	1074743050
 718 0050 03600F40 		.word	1074749443
 719              		.type	cy_cfg_data_table.4833, %object
 720              		.size	cy_cfg_data_table.4833, 1698
 721              	cy_cfg_data_table.4833:
 722 0054 80       		.byte	-128
 723 0055 6F       		.byte	111
 724 0056 87       		.byte	-121
 725 0057 6F       		.byte	111
 726 0058 03       		.byte	3
 727 0059 20       		.byte	32
 728 005a 07       		.byte	7
 729 005b 02       		.byte	2
 730 005c 0B       		.byte	11
 731 005d 08       		.byte	8
 732 005e 0E       		.byte	14
 733 005f 0C       		.byte	12
 734 0060 0F       		.byte	15
 735 0061 01       		.byte	1
 736 0062 10       		.byte	16
 737 0063 01       		.byte	1
 738 0064 11       		.byte	17
 739 0065 FD       		.byte	-3
 740 0066 13       		.byte	19
 741 0067 02       		.byte	2
 742 0068 14       		.byte	20
 743 0069 04       		.byte	4
 744 006a 15       		.byte	21
 745 006b 97       		.byte	-105
 746 006c 17       		.byte	23
 747 006d 68       		.byte	104
 748 006e 1B       		.byte	27
 749 006f 40       		.byte	64
 750 0070 1F       		.byte	31
 751 0071 04       		.byte	4
 752 0072 22       		.byte	34
 753 0073 03       		.byte	3
 754 0074 23       		.byte	35
 755 0075 80       		.byte	-128
 756 0076 25       		.byte	37
ARM GAS  C:\Users\Tim\AppData\Local\Temp\ccoyQTkh.s 			page 38


 757 0077 4F       		.byte	79
 758 0078 27       		.byte	39
 759 0079 B0       		.byte	-80
 760 007a 2B       		.byte	43
 761 007b 10       		.byte	16
 762 007c 2D       		.byte	45
 763 007d 3E       		.byte	62
 764 007e 2F       		.byte	47
 765 007f C1       		.byte	-63
 766 0080 30       		.byte	48
 767 0081 02       		.byte	2
 768 0082 32       		.byte	50
 769 0083 08       		.byte	8
 770 0084 34       		.byte	52
 771 0085 04       		.byte	4
 772 0086 35       		.byte	53
 773 0087 FF       		.byte	-1
 774 0088 36       		.byte	54
 775 0089 01       		.byte	1
 776 008a 3E       		.byte	62
 777 008b 50       		.byte	80
 778 008c 3F       		.byte	63
 779 008d 10       		.byte	16
 780 008e 40       		.byte	64
 781 008f 10       		.byte	16
 782 0090 41       		.byte	65
 783 0091 05       		.byte	5
 784 0092 49       		.byte	73
 785 0093 FF       		.byte	-1
 786 0094 4A       		.byte	74
 787 0095 FF       		.byte	-1
 788 0096 4B       		.byte	75
 789 0097 FF       		.byte	-1
 790 0098 4D       		.byte	77
 791 0099 A0       		.byte	-96
 792 009a 4F       		.byte	79
 793 009b 01       		.byte	1
 794 009c 50       		.byte	80
 795 009d 18       		.byte	24
 796 009e 54       		.byte	84
 797 009f 0F       		.byte	15
 798 00a0 56       		.byte	86
 799 00a1 04       		.byte	4
 800 00a2 58       		.byte	88
 801 00a3 04       		.byte	4
 802 00a4 59       		.byte	89
 803 00a5 04       		.byte	4
 804 00a6 5A       		.byte	90
 805 00a7 04       		.byte	4
 806 00a8 5B       		.byte	91
 807 00a9 04       		.byte	4
 808 00aa 5C       		.byte	92
 809 00ab 01       		.byte	1
 810 00ac 5D       		.byte	93
 811 00ad 11       		.byte	17
 812 00ae 5F       		.byte	95
 813 00af 01       		.byte	1
ARM GAS  C:\Users\Tim\AppData\Local\Temp\ccoyQTkh.s 			page 39


 814 00b0 60       		.byte	96
 815 00b1 40       		.byte	64
 816 00b2 62       		.byte	98
 817 00b3 80       		.byte	-128
 818 00b4 64       		.byte	100
 819 00b5 40       		.byte	64
 820 00b6 65       		.byte	101
 821 00b7 40       		.byte	64
 822 00b8 66       		.byte	102
 823 00b9 80       		.byte	-128
 824 00ba 68       		.byte	104
 825 00bb 40       		.byte	64
 826 00bc 6A       		.byte	106
 827 00bd 80       		.byte	-128
 828 00be 6C       		.byte	108
 829 00bf 40       		.byte	64
 830 00c0 6D       		.byte	109
 831 00c1 20       		.byte	32
 832 00c2 6E       		.byte	110
 833 00c3 80       		.byte	-128
 834 00c4 81       		.byte	-127
 835 00c5 01       		.byte	1
 836 00c6 82       		.byte	-126
 837 00c7 0F       		.byte	15
 838 00c8 84       		.byte	-124
 839 00c9 07       		.byte	7
 840 00ca 86       		.byte	-122
 841 00cb 08       		.byte	8
 842 00cc 90       		.byte	-112
 843 00cd 0A       		.byte	10
 844 00ce 92       		.byte	-110
 845 00cf 05       		.byte	5
 846 00d0 93       		.byte	-109
 847 00d1 04       		.byte	4
 848 00d2 9B       		.byte	-101
 849 00d3 08       		.byte	8
 850 00d4 9C       		.byte	-100
 851 00d5 01       		.byte	1
 852 00d6 9E       		.byte	-98
 853 00d7 0E       		.byte	14
 854 00d8 A8       		.byte	-88
 855 00d9 03       		.byte	3
 856 00da AA       		.byte	-86
 857 00db 0C       		.byte	12
 858 00dc AB       		.byte	-85
 859 00dd 03       		.byte	3
 860 00de B0       		.byte	-80
 861 00df 08       		.byte	8
 862 00e0 B1       		.byte	-79
 863 00e1 02       		.byte	2
 864 00e2 B2       		.byte	-78
 865 00e3 04       		.byte	4
 866 00e4 B3       		.byte	-77
 867 00e5 01       		.byte	1
 868 00e6 B4       		.byte	-76
 869 00e7 02       		.byte	2
 870 00e8 B5       		.byte	-75
ARM GAS  C:\Users\Tim\AppData\Local\Temp\ccoyQTkh.s 			page 40


 871 00e9 04       		.byte	4
 872 00ea B6       		.byte	-74
 873 00eb 01       		.byte	1
 874 00ec B7       		.byte	-73
 875 00ed 08       		.byte	8
 876 00ee BF       		.byte	-65
 877 00ef 04       		.byte	4
 878 00f0 C0       		.byte	-64
 879 00f1 10       		.byte	16
 880 00f2 C1       		.byte	-63
 881 00f3 05       		.byte	5
 882 00f4 C9       		.byte	-55
 883 00f5 FF       		.byte	-1
 884 00f6 CA       		.byte	-54
 885 00f7 FF       		.byte	-1
 886 00f8 CB       		.byte	-53
 887 00f9 FF       		.byte	-1
 888 00fa CD       		.byte	-51
 889 00fb AF       		.byte	-81
 890 00fc CE       		.byte	-50
 891 00fd 07       		.byte	7
 892 00fe CF       		.byte	-49
 893 00ff 01       		.byte	1
 894 0100 D0       		.byte	-48
 895 0101 18       		.byte	24
 896 0102 D8       		.byte	-40
 897 0103 04       		.byte	4
 898 0104 D9       		.byte	-39
 899 0105 04       		.byte	4
 900 0106 DA       		.byte	-38
 901 0107 04       		.byte	4
 902 0108 DC       		.byte	-36
 903 0109 13       		.byte	19
 904 010a DD       		.byte	-35
 905 010b 01       		.byte	1
 906 010c DF       		.byte	-33
 907 010d 01       		.byte	1
 908 010e E0       		.byte	-32
 909 010f 40       		.byte	64
 910 0110 E2       		.byte	-30
 911 0111 80       		.byte	-128
 912 0112 E4       		.byte	-28
 913 0113 40       		.byte	64
 914 0114 E5       		.byte	-27
 915 0115 40       		.byte	64
 916 0116 E6       		.byte	-26
 917 0117 80       		.byte	-128
 918 0118 E8       		.byte	-24
 919 0119 40       		.byte	64
 920 011a EA       		.byte	-22
 921 011b 80       		.byte	-128
 922 011c EC       		.byte	-20
 923 011d 40       		.byte	64
 924 011e ED       		.byte	-19
 925 011f 20       		.byte	32
 926 0120 EE       		.byte	-18
 927 0121 80       		.byte	-128
ARM GAS  C:\Users\Tim\AppData\Local\Temp\ccoyQTkh.s 			page 41


 928 0122 00       		.byte	0
 929 0123 80       		.byte	-128
 930 0124 05       		.byte	5
 931 0125 02       		.byte	2
 932 0126 07       		.byte	7
 933 0127 10       		.byte	16
 934 0128 0A       		.byte	10
 935 0129 50       		.byte	80
 936 012a 0F       		.byte	15
 937 012b 41       		.byte	65
 938 012c 12       		.byte	18
 939 012d 40       		.byte	64
 940 012e 15       		.byte	21
 941 012f 10       		.byte	16
 942 0130 19       		.byte	25
 943 0131 40       		.byte	64
 944 0132 1A       		.byte	26
 945 0133 54       		.byte	84
 946 0134 1C       		.byte	28
 947 0135 0A       		.byte	10
 948 0136 1D       		.byte	29
 949 0137 01       		.byte	1
 950 0138 1E       		.byte	30
 951 0139 20       		.byte	32
 952 013a 23       		.byte	35
 953 013b 04       		.byte	4
 954 013c 25       		.byte	37
 955 013d 59       		.byte	89
 956 013e 2A       		.byte	42
 957 013f 82       		.byte	-126
 958 0140 2B       		.byte	43
 959 0141 14       		.byte	20
 960 0142 2D       		.byte	45
 961 0143 20       		.byte	32
 962 0144 2F       		.byte	47
 963 0145 08       		.byte	8
 964 0146 30       		.byte	48
 965 0147 02       		.byte	2
 966 0148 31       		.byte	49
 967 0149 10       		.byte	16
 968 014a 32       		.byte	50
 969 014b 48       		.byte	72
 970 014c 36       		.byte	54
 971 014d 01       		.byte	1
 972 014e 37       		.byte	55
 973 014f 20       		.byte	32
 974 0150 38       		.byte	56
 975 0151 88       		.byte	-120
 976 0152 3A       		.byte	58
 977 0153 01       		.byte	1
 978 0154 3B       		.byte	59
 979 0155 10       		.byte	16
 980 0156 3D       		.byte	61
 981 0157 02       		.byte	2
 982 0158 41       		.byte	65
 983 0159 80       		.byte	-128
 984 015a 45       		.byte	69
ARM GAS  C:\Users\Tim\AppData\Local\Temp\ccoyQTkh.s 			page 42


 985 015b 80       		.byte	-128
 986 015c 4A       		.byte	74
 987 015d 02       		.byte	2
 988 015e 4E       		.byte	78
 989 015f 02       		.byte	2
 990 0160 58       		.byte	88
 991 0161 01       		.byte	1
 992 0162 59       		.byte	89
 993 0163 60       		.byte	96
 994 0164 5A       		.byte	90
 995 0165 04       		.byte	4
 996 0166 61       		.byte	97
 997 0167 24       		.byte	36
 998 0168 63       		.byte	99
 999 0169 80       		.byte	-128
 1000 016a 80       		.byte	-128
 1001 016b 04       		.byte	4
 1002 016c 81       		.byte	-127
 1003 016d 10       		.byte	16
 1004 016e 84       		.byte	-124
 1005 016f 01       		.byte	1
 1006 0170 85       		.byte	-123
 1007 0171 08       		.byte	8
 1008 0172 8A       		.byte	-118
 1009 0173 10       		.byte	16
 1010 0174 8C       		.byte	-116
 1011 0175 44       		.byte	68
 1012 0176 8E       		.byte	-114
 1013 0177 02       		.byte	2
 1014 0178 8F       		.byte	-113
 1015 0179 40       		.byte	64
 1016 017a C0       		.byte	-64
 1017 017b 31       		.byte	49
 1018 017c C2       		.byte	-62
 1019 017d 9C       		.byte	-100
 1020 017e C4       		.byte	-60
 1021 017f 48       		.byte	72
 1022 0180 CA       		.byte	-54
 1023 0181 2F       		.byte	47
 1024 0182 CC       		.byte	-52
 1025 0183 AF       		.byte	-81
 1026 0184 CE       		.byte	-50
 1027 0185 8F       		.byte	-113
 1028 0186 D0       		.byte	-48
 1029 0187 18       		.byte	24
 1030 0188 D2       		.byte	-46
 1031 0189 18       		.byte	24
 1032 018a D6       		.byte	-42
 1033 018b 0F       		.byte	15
 1034 018c D8       		.byte	-40
 1035 018d 07       		.byte	7
 1036 018e E2       		.byte	-30
 1037 018f 80       		.byte	-128
 1038 0190 E6       		.byte	-26
 1039 0191 40       		.byte	64
 1040 0192 02       		.byte	2
 1041 0193 0F       		.byte	15
ARM GAS  C:\Users\Tim\AppData\Local\Temp\ccoyQTkh.s 			page 43


 1042 0194 04       		.byte	4
 1043 0195 03       		.byte	3
 1044 0196 06       		.byte	6
 1045 0197 0C       		.byte	12
 1046 0198 09       		.byte	9
 1047 0199 96       		.byte	-106
 1048 019a 0B       		.byte	11
 1049 019b 69       		.byte	105
 1050 019c 0D       		.byte	13
 1051 019d 0F       		.byte	15
 1052 019e 0F       		.byte	15
 1053 019f F0       		.byte	-16
 1054 01a0 10       		.byte	16
 1055 01a1 06       		.byte	6
 1056 01a2 12       		.byte	18
 1057 01a3 09       		.byte	9
 1058 01a4 15       		.byte	21
 1059 01a5 33       		.byte	51
 1060 01a6 17       		.byte	23
 1061 01a7 CC       		.byte	-52
 1062 01a8 19       		.byte	25
 1063 01a9 55       		.byte	85
 1064 01aa 1B       		.byte	27
 1065 01ab AA       		.byte	-86
 1066 01ac 1C       		.byte	28
 1067 01ad 07       		.byte	7
 1068 01ae 1E       		.byte	30
 1069 01af 08       		.byte	8
 1070 01b0 28       		.byte	40
 1071 01b1 0A       		.byte	10
 1072 01b2 2A       		.byte	42
 1073 01b3 05       		.byte	5
 1074 01b4 30       		.byte	48
 1075 01b5 02       		.byte	2
 1076 01b6 31       		.byte	49
 1077 01b7 FF       		.byte	-1
 1078 01b8 32       		.byte	50
 1079 01b9 08       		.byte	8
 1080 01ba 34       		.byte	52
 1081 01bb 04       		.byte	4
 1082 01bc 36       		.byte	54
 1083 01bd 01       		.byte	1
 1084 01be 40       		.byte	64
 1085 01bf 40       		.byte	64
 1086 01c0 41       		.byte	65
 1087 01c1 05       		.byte	5
 1088 01c2 49       		.byte	73
 1089 01c3 FF       		.byte	-1
 1090 01c4 4A       		.byte	74
 1091 01c5 FF       		.byte	-1
 1092 01c6 4B       		.byte	75
 1093 01c7 FF       		.byte	-1
 1094 01c8 4D       		.byte	77
 1095 01c9 AF       		.byte	-81
 1096 01ca 4E       		.byte	78
 1097 01cb 07       		.byte	7
 1098 01cc 4F       		.byte	79
ARM GAS  C:\Users\Tim\AppData\Local\Temp\ccoyQTkh.s 			page 44


 1099 01cd 01       		.byte	1
 1100 01ce 50       		.byte	80
 1101 01cf 18       		.byte	24
 1102 01d0 58       		.byte	88
 1103 01d1 04       		.byte	4
 1104 01d2 59       		.byte	89
 1105 01d3 04       		.byte	4
 1106 01d4 5A       		.byte	90
 1107 01d5 04       		.byte	4
 1108 01d6 5C       		.byte	92
 1109 01d7 13       		.byte	19
 1110 01d8 5D       		.byte	93
 1111 01d9 01       		.byte	1
 1112 01da 5F       		.byte	95
 1113 01db 01       		.byte	1
 1114 01dc 60       		.byte	96
 1115 01dd 40       		.byte	64
 1116 01de 62       		.byte	98
 1117 01df 80       		.byte	-128
 1118 01e0 64       		.byte	100
 1119 01e1 40       		.byte	64
 1120 01e2 65       		.byte	101
 1121 01e3 40       		.byte	64
 1122 01e4 66       		.byte	102
 1123 01e5 80       		.byte	-128
 1124 01e6 68       		.byte	104
 1125 01e7 40       		.byte	64
 1126 01e8 6A       		.byte	106
 1127 01e9 80       		.byte	-128
 1128 01ea 6C       		.byte	108
 1129 01eb 40       		.byte	64
 1130 01ec 6D       		.byte	109
 1131 01ed 20       		.byte	32
 1132 01ee 6E       		.byte	110
 1133 01ef 80       		.byte	-128
 1134 01f0 81       		.byte	-127
 1135 01f1 54       		.byte	84
 1136 01f2 82       		.byte	-126
 1137 01f3 0F       		.byte	15
 1138 01f4 83       		.byte	-125
 1139 01f5 AB       		.byte	-85
 1140 01f6 84       		.byte	-124
 1141 01f7 03       		.byte	3
 1142 01f8 86       		.byte	-122
 1143 01f9 0C       		.byte	12
 1144 01fa 87       		.byte	-121
 1145 01fb 80       		.byte	-128
 1146 01fc 89       		.byte	-119
 1147 01fd 0E       		.byte	14
 1148 01fe 8B       		.byte	-117
 1149 01ff F1       		.byte	-15
 1150 0200 8F       		.byte	-113
 1151 0201 04       		.byte	4
 1152 0202 91       		.byte	-111
 1153 0203 01       		.byte	1
 1154 0204 93       		.byte	-109
 1155 0205 FE       		.byte	-2
ARM GAS  C:\Users\Tim\AppData\Local\Temp\ccoyQTkh.s 			page 45


 1156 0206 97       		.byte	-105
 1157 0207 01       		.byte	1
 1158 0208 9B       		.byte	-101
 1159 0209 02       		.byte	2
 1160 020a 9F       		.byte	-97
 1161 020b 40       		.byte	64
 1162 020c A2       		.byte	-94
 1163 020d 0F       		.byte	15
 1164 020e A3       		.byte	-93
 1165 020f 20       		.byte	32
 1166 0210 A5       		.byte	-91
 1167 0211 32       		.byte	50
 1168 0212 A7       		.byte	-89
 1169 0213 CD       		.byte	-51
 1170 0214 A8       		.byte	-88
 1171 0215 09       		.byte	9
 1172 0216 AA       		.byte	-86
 1173 0217 06       		.byte	6
 1174 0218 AB       		.byte	-85
 1175 0219 10       		.byte	16
 1176 021a AC       		.byte	-84
 1177 021b 0A       		.byte	10
 1178 021c AE       		.byte	-82
 1179 021d 05       		.byte	5
 1180 021e AF       		.byte	-81
 1181 021f 08       		.byte	8
 1182 0220 B0       		.byte	-80
 1183 0221 08       		.byte	8
 1184 0222 B2       		.byte	-78
 1185 0223 04       		.byte	4
 1186 0224 B3       		.byte	-77
 1187 0225 FF       		.byte	-1
 1188 0226 B4       		.byte	-76
 1189 0227 01       		.byte	1
 1190 0228 B6       		.byte	-74
 1191 0229 02       		.byte	2
 1192 022a BF       		.byte	-65
 1193 022b 04       		.byte	4
 1194 022c C0       		.byte	-64
 1195 022d 10       		.byte	16
 1196 022e C1       		.byte	-63
 1197 022f 05       		.byte	5
 1198 0230 C5       		.byte	-59
 1199 0231 3E       		.byte	62
 1200 0232 C6       		.byte	-58
 1201 0233 C5       		.byte	-59
 1202 0234 C7       		.byte	-57
 1203 0235 02       		.byte	2
 1204 0236 C8       		.byte	-56
 1205 0237 1F       		.byte	31
 1206 0238 C9       		.byte	-55
 1207 0239 FF       		.byte	-1
 1208 023a CA       		.byte	-54
 1209 023b FF       		.byte	-1
 1210 023c CB       		.byte	-53
 1211 023d FF       		.byte	-1
 1212 023e CD       		.byte	-51
ARM GAS  C:\Users\Tim\AppData\Local\Temp\ccoyQTkh.s 			page 46


 1213 023f AF       		.byte	-81
 1214 0240 CE       		.byte	-50
 1215 0241 07       		.byte	7
 1216 0242 CF       		.byte	-49
 1217 0243 01       		.byte	1
 1218 0244 D0       		.byte	-48
 1219 0245 18       		.byte	24
 1220 0246 D8       		.byte	-40
 1221 0247 04       		.byte	4
 1222 0248 D9       		.byte	-39
 1223 0249 04       		.byte	4
 1224 024a DA       		.byte	-38
 1225 024b 04       		.byte	4
 1226 024c DB       		.byte	-37
 1227 024d 04       		.byte	4
 1228 024e DC       		.byte	-36
 1229 024f 03       		.byte	3
 1230 0250 DD       		.byte	-35
 1231 0251 01       		.byte	1
 1232 0252 DF       		.byte	-33
 1233 0253 01       		.byte	1
 1234 0254 E0       		.byte	-32
 1235 0255 40       		.byte	64
 1236 0256 E2       		.byte	-30
 1237 0257 80       		.byte	-128
 1238 0258 E4       		.byte	-28
 1239 0259 40       		.byte	64
 1240 025a E5       		.byte	-27
 1241 025b 40       		.byte	64
 1242 025c E6       		.byte	-26
 1243 025d 80       		.byte	-128
 1244 025e E8       		.byte	-24
 1245 025f 40       		.byte	64
 1246 0260 EA       		.byte	-22
 1247 0261 80       		.byte	-128
 1248 0262 EC       		.byte	-20
 1249 0263 40       		.byte	64
 1250 0264 ED       		.byte	-19
 1251 0265 20       		.byte	32
 1252 0266 EE       		.byte	-18
 1253 0267 80       		.byte	-128
 1254 0268 01       		.byte	1
 1255 0269 02       		.byte	2
 1256 026a 03       		.byte	3
 1257 026b 10       		.byte	16
 1258 026c 05       		.byte	5
 1259 026d 02       		.byte	2
 1260 026e 07       		.byte	7
 1261 026f 10       		.byte	16
 1262 0270 0D       		.byte	13
 1263 0271 04       		.byte	4
 1264 0272 0F       		.byte	15
 1265 0273 61       		.byte	97
 1266 0274 11       		.byte	17
 1267 0275 10       		.byte	16
 1268 0276 13       		.byte	19
 1269 0277 41       		.byte	65
ARM GAS  C:\Users\Tim\AppData\Local\Temp\ccoyQTkh.s 			page 47


 1270 0278 15       		.byte	21
 1271 0279 10       		.byte	16
 1272 027a 18       		.byte	24
 1273 027b 08       		.byte	8
 1274 027c 1B       		.byte	27
 1275 027d 45       		.byte	69
 1276 027e 1C       		.byte	28
 1277 027f 20       		.byte	32
 1278 0280 1D       		.byte	29
 1279 0281 10       		.byte	16
 1280 0282 1F       		.byte	31
 1281 0283 81       		.byte	-127
 1282 0284 23       		.byte	35
 1283 0285 10       		.byte	16
 1284 0286 25       		.byte	37
 1285 0287 01       		.byte	1
 1286 0288 26       		.byte	38
 1287 0289 01       		.byte	1
 1288 028a 28       		.byte	40
 1289 028b 01       		.byte	1
 1290 028c 29       		.byte	41
 1291 028d 20       		.byte	32
 1292 028e 2A       		.byte	42
 1293 028f 01       		.byte	1
 1294 0290 2B       		.byte	43
 1295 0291 10       		.byte	16
 1296 0292 30       		.byte	48
 1297 0293 06       		.byte	6
 1298 0294 32       		.byte	50
 1299 0295 A0       		.byte	-96
 1300 0296 36       		.byte	54
 1301 0297 04       		.byte	4
 1302 0298 37       		.byte	55
 1303 0299 20       		.byte	32
 1304 029a 38       		.byte	56
 1305 029b 84       		.byte	-124
 1306 029c 39       		.byte	57
 1307 029d 21       		.byte	33
 1308 029e 3D       		.byte	61
 1309 029f 80       		.byte	-128
 1310 02a0 3E       		.byte	62
 1311 02a1 10       		.byte	16
 1312 02a2 41       		.byte	65
 1313 02a3 80       		.byte	-128
 1314 02a4 47       		.byte	71
 1315 02a5 01       		.byte	1
 1316 02a6 48       		.byte	72
 1317 02a7 40       		.byte	64
 1318 02a8 49       		.byte	73
 1319 02a9 04       		.byte	4
 1320 02aa 4A       		.byte	74
 1321 02ab 02       		.byte	2
 1322 02ac 4E       		.byte	78
 1323 02ad 02       		.byte	2
 1324 02ae 51       		.byte	81
 1325 02af 20       		.byte	32
 1326 02b0 52       		.byte	82
ARM GAS  C:\Users\Tim\AppData\Local\Temp\ccoyQTkh.s 			page 48


 1327 02b1 40       		.byte	64
 1328 02b2 53       		.byte	83
 1329 02b3 08       		.byte	8
 1330 02b4 68       		.byte	104
 1331 02b5 A8       		.byte	-88
 1332 02b6 69       		.byte	105
 1333 02b7 40       		.byte	64
 1334 02b8 83       		.byte	-125
 1335 02b9 44       		.byte	68
 1336 02ba 84       		.byte	-124
 1337 02bb 11       		.byte	17
 1338 02bc 85       		.byte	-123
 1339 02bd 20       		.byte	32
 1340 02be 86       		.byte	-122
 1341 02bf 04       		.byte	4
 1342 02c0 87       		.byte	-121
 1343 02c1 20       		.byte	32
 1344 02c2 88       		.byte	-120
 1345 02c3 04       		.byte	4
 1346 02c4 8B       		.byte	-117
 1347 02c5 01       		.byte	1
 1348 02c6 8E       		.byte	-114
 1349 02c7 20       		.byte	32
 1350 02c8 8F       		.byte	-113
 1351 02c9 01       		.byte	1
 1352 02ca 90       		.byte	-112
 1353 02cb 04       		.byte	4
 1354 02cc 93       		.byte	-109
 1355 02cd 04       		.byte	4
 1356 02ce 95       		.byte	-107
 1357 02cf 30       		.byte	48
 1358 02d0 97       		.byte	-105
 1359 02d1 41       		.byte	65
 1360 02d2 99       		.byte	-103
 1361 02d3 01       		.byte	1
 1362 02d4 9D       		.byte	-99
 1363 02d5 06       		.byte	6
 1364 02d6 9E       		.byte	-98
 1365 02d7 40       		.byte	64
 1366 02d8 9F       		.byte	-97
 1367 02d9 30       		.byte	48
 1368 02da A0       		.byte	-96
 1369 02db 05       		.byte	5
 1370 02dc A1       		.byte	-95
 1371 02dd 50       		.byte	80
 1372 02de A4       		.byte	-92
 1373 02df 42       		.byte	66
 1374 02e0 A5       		.byte	-91
 1375 02e1 A0       		.byte	-96
 1376 02e2 A6       		.byte	-90
 1377 02e3 0B       		.byte	11
 1378 02e4 A7       		.byte	-89
 1379 02e5 18       		.byte	24
 1380 02e6 AA       		.byte	-86
 1381 02e7 41       		.byte	65
 1382 02e8 AB       		.byte	-85
 1383 02e9 04       		.byte	4
ARM GAS  C:\Users\Tim\AppData\Local\Temp\ccoyQTkh.s 			page 49


 1384 02ea AD       		.byte	-83
 1385 02eb 10       		.byte	16
 1386 02ec AE       		.byte	-82
 1387 02ed 80       		.byte	-128
 1388 02ee B3       		.byte	-77
 1389 02ef 10       		.byte	16
 1390 02f0 C0       		.byte	-64
 1391 02f1 3C       		.byte	60
 1392 02f2 C2       		.byte	-62
 1393 02f3 90       		.byte	-112
 1394 02f4 C4       		.byte	-60
 1395 02f5 4B       		.byte	75
 1396 02f6 CA       		.byte	-54
 1397 02f7 0F       		.byte	15
 1398 02f8 CC       		.byte	-52
 1399 02f9 6F       		.byte	111
 1400 02fa CE       		.byte	-50
 1401 02fb 3F       		.byte	63
 1402 02fc D0       		.byte	-48
 1403 02fd 88       		.byte	-120
 1404 02fe D2       		.byte	-46
 1405 02ff 18       		.byte	24
 1406 0300 E2       		.byte	-30
 1407 0301 C2       		.byte	-62
 1408 0302 E6       		.byte	-26
 1409 0303 02       		.byte	2
 1410 0304 EC       		.byte	-20
 1411 0305 80       		.byte	-128
 1412 0306 EE       		.byte	-18
 1413 0307 05       		.byte	5
 1414 0308 04       		.byte	4
 1415 0309 02       		.byte	2
 1416 030a 05       		.byte	5
 1417 030b 40       		.byte	64
 1418 030c 06       		.byte	6
 1419 030d 01       		.byte	1
 1420 030e 08       		.byte	8
 1421 030f 08       		.byte	8
 1422 0310 09       		.byte	9
 1423 0311 40       		.byte	64
 1424 0312 0A       		.byte	10
 1425 0313 04       		.byte	4
 1426 0314 0F       		.byte	15
 1427 0315 01       		.byte	1
 1428 0316 10       		.byte	16
 1429 0317 80       		.byte	-128
 1430 0318 11       		.byte	17
 1431 0319 0C       		.byte	12
 1432 031a 12       		.byte	18
 1433 031b 40       		.byte	64
 1434 031c 13       		.byte	19
 1435 031d 30       		.byte	48
 1436 031e 15       		.byte	21
 1437 031f 0C       		.byte	12
 1438 0320 17       		.byte	23
 1439 0321 30       		.byte	48
 1440 0322 19       		.byte	25
ARM GAS  C:\Users\Tim\AppData\Local\Temp\ccoyQTkh.s 			page 50


 1441 0323 28       		.byte	40
 1442 0324 1B       		.byte	27
 1443 0325 16       		.byte	22
 1444 0326 1C       		.byte	28
 1445 0327 20       		.byte	32
 1446 0328 1D       		.byte	29
 1447 0329 14       		.byte	20
 1448 032a 1E       		.byte	30
 1449 032b 10       		.byte	16
 1450 032c 1F       		.byte	31
 1451 032d 28       		.byte	40
 1452 032e 20       		.byte	32
 1453 032f 40       		.byte	64
 1454 0330 22       		.byte	34
 1455 0331 80       		.byte	-128
 1456 0332 24       		.byte	36
 1457 0333 10       		.byte	16
 1458 0334 26       		.byte	38
 1459 0335 20       		.byte	32
 1460 0336 28       		.byte	40
 1461 0337 04       		.byte	4
 1462 0338 2A       		.byte	42
 1463 0339 08       		.byte	8
 1464 033a 2C       		.byte	44
 1465 033b 01       		.byte	1
 1466 033c 2E       		.byte	46
 1467 033d 02       		.byte	2
 1468 033e 30       		.byte	48
 1469 033f FF       		.byte	-1
 1470 0340 31       		.byte	49
 1471 0341 02       		.byte	2
 1472 0342 33       		.byte	51
 1473 0343 01       		.byte	1
 1474 0344 35       		.byte	53
 1475 0345 3C       		.byte	60
 1476 0346 37       		.byte	55
 1477 0347 40       		.byte	64
 1478 0348 38       		.byte	56
 1479 0349 02       		.byte	2
 1480 034a 39       		.byte	57
 1481 034b 80       		.byte	-128
 1482 034c 3C       		.byte	60
 1483 034d 10       		.byte	16
 1484 034e 3E       		.byte	62
 1485 034f 01       		.byte	1
 1486 0350 3F       		.byte	63
 1487 0351 40       		.byte	64
 1488 0352 40       		.byte	64
 1489 0353 30       		.byte	48
 1490 0354 41       		.byte	65
 1491 0355 02       		.byte	2
 1492 0356 49       		.byte	73
 1493 0357 FF       		.byte	-1
 1494 0358 4A       		.byte	74
 1495 0359 FF       		.byte	-1
 1496 035a 4B       		.byte	75
 1497 035b FF       		.byte	-1
ARM GAS  C:\Users\Tim\AppData\Local\Temp\ccoyQTkh.s 			page 51


 1498 035c 4D       		.byte	77
 1499 035d A0       		.byte	-96
 1500 035e 4F       		.byte	79
 1501 035f 01       		.byte	1
 1502 0360 50       		.byte	80
 1503 0361 18       		.byte	24
 1504 0362 58       		.byte	88
 1505 0363 04       		.byte	4
 1506 0364 59       		.byte	89
 1507 0365 04       		.byte	4
 1508 0366 5A       		.byte	90
 1509 0367 04       		.byte	4
 1510 0368 5B       		.byte	91
 1511 0369 04       		.byte	4
 1512 036a 5C       		.byte	92
 1513 036b 10       		.byte	16
 1514 036c 5D       		.byte	93
 1515 036d 01       		.byte	1
 1516 036e 5F       		.byte	95
 1517 036f 01       		.byte	1
 1518 0370 60       		.byte	96
 1519 0371 40       		.byte	64
 1520 0372 62       		.byte	98
 1521 0373 80       		.byte	-128
 1522 0374 64       		.byte	100
 1523 0375 40       		.byte	64
 1524 0376 65       		.byte	101
 1525 0377 40       		.byte	64
 1526 0378 66       		.byte	102
 1527 0379 80       		.byte	-128
 1528 037a 68       		.byte	104
 1529 037b 40       		.byte	64
 1530 037c 6A       		.byte	106
 1531 037d 80       		.byte	-128
 1532 037e 6C       		.byte	108
 1533 037f 40       		.byte	64
 1534 0380 6D       		.byte	109
 1535 0381 20       		.byte	32
 1536 0382 6E       		.byte	110
 1537 0383 80       		.byte	-128
 1538 0384 83       		.byte	-125
 1539 0385 02       		.byte	2
 1540 0386 85       		.byte	-123
 1541 0387 28       		.byte	40
 1542 0388 87       		.byte	-121
 1543 0389 14       		.byte	20
 1544 038a 89       		.byte	-119
 1545 038b 02       		.byte	2
 1546 038c 8D       		.byte	-115
 1547 038d 0C       		.byte	12
 1548 038e 8F       		.byte	-113
 1549 038f 30       		.byte	48
 1550 0390 90       		.byte	-112
 1551 0391 0F       		.byte	15
 1552 0392 92       		.byte	-110
 1553 0393 F0       		.byte	-16
 1554 0394 94       		.byte	-108
ARM GAS  C:\Users\Tim\AppData\Local\Temp\ccoyQTkh.s 			page 52


 1555 0395 96       		.byte	-106
 1556 0396 95       		.byte	-107
 1557 0397 14       		.byte	20
 1558 0398 96       		.byte	-106
 1559 0399 69       		.byte	105
 1560 039a 97       		.byte	-105
 1561 039b 28       		.byte	40
 1562 039c 98       		.byte	-104
 1563 039d 55       		.byte	85
 1564 039e 99       		.byte	-103
 1565 039f 01       		.byte	1
 1566 03a0 9A       		.byte	-102
 1567 03a1 AA       		.byte	-86
 1568 03a2 A7       		.byte	-89
 1569 03a3 41       		.byte	65
 1570 03a4 A9       		.byte	-87
 1571 03a5 0C       		.byte	12
 1572 03a6 AB       		.byte	-85
 1573 03a7 30       		.byte	48
 1574 03a8 AC       		.byte	-84
 1575 03a9 33       		.byte	51
 1576 03aa AE       		.byte	-82
 1577 03ab CC       		.byte	-52
 1578 03ac B1       		.byte	-79
 1579 03ad 3C       		.byte	60
 1580 03ae B3       		.byte	-77
 1581 03af 01       		.byte	1
 1582 03b0 B4       		.byte	-76
 1583 03b1 FF       		.byte	-1
 1584 03b2 B5       		.byte	-75
 1585 03b3 40       		.byte	64
 1586 03b4 B7       		.byte	-73
 1587 03b5 02       		.byte	2
 1588 03b6 BC       		.byte	-68
 1589 03b7 01       		.byte	1
 1590 03b8 BF       		.byte	-65
 1591 03b9 44       		.byte	68
 1592 03ba C0       		.byte	-64
 1593 03bb 20       		.byte	32
 1594 03bc C1       		.byte	-63
 1595 03bd 03       		.byte	3
 1596 03be C9       		.byte	-55
 1597 03bf FF       		.byte	-1
 1598 03c0 CA       		.byte	-54
 1599 03c1 FF       		.byte	-1
 1600 03c2 CB       		.byte	-53
 1601 03c3 FF       		.byte	-1
 1602 03c4 CD       		.byte	-51
 1603 03c5 AF       		.byte	-81
 1604 03c6 CE       		.byte	-50
 1605 03c7 07       		.byte	7
 1606 03c8 CF       		.byte	-49
 1607 03c9 01       		.byte	1
 1608 03ca D0       		.byte	-48
 1609 03cb 18       		.byte	24
 1610 03cc D8       		.byte	-40
 1611 03cd 04       		.byte	4
ARM GAS  C:\Users\Tim\AppData\Local\Temp\ccoyQTkh.s 			page 53


 1612 03ce D9       		.byte	-39
 1613 03cf 04       		.byte	4
 1614 03d0 DA       		.byte	-38
 1615 03d1 04       		.byte	4
 1616 03d2 DC       		.byte	-36
 1617 03d3 11       		.byte	17
 1618 03d4 DD       		.byte	-35
 1619 03d5 01       		.byte	1
 1620 03d6 DF       		.byte	-33
 1621 03d7 01       		.byte	1
 1622 03d8 E0       		.byte	-32
 1623 03d9 40       		.byte	64
 1624 03da E2       		.byte	-30
 1625 03db 80       		.byte	-128
 1626 03dc E4       		.byte	-28
 1627 03dd 40       		.byte	64
 1628 03de E5       		.byte	-27
 1629 03df 40       		.byte	64
 1630 03e0 E6       		.byte	-26
 1631 03e1 80       		.byte	-128
 1632 03e2 E8       		.byte	-24
 1633 03e3 40       		.byte	64
 1634 03e4 EA       		.byte	-22
 1635 03e5 80       		.byte	-128
 1636 03e6 EC       		.byte	-20
 1637 03e7 40       		.byte	64
 1638 03e8 ED       		.byte	-19
 1639 03e9 20       		.byte	32
 1640 03ea EE       		.byte	-18
 1641 03eb 80       		.byte	-128
 1642 03ec 00       		.byte	0
 1643 03ed 28       		.byte	40
 1644 03ee 01       		.byte	1
 1645 03ef 10       		.byte	16
 1646 03f0 03       		.byte	3
 1647 03f1 10       		.byte	16
 1648 03f2 0A       		.byte	10
 1649 03f3 82       		.byte	-126
 1650 03f4 0B       		.byte	11
 1651 03f5 41       		.byte	65
 1652 03f6 0C       		.byte	12
 1653 03f7 04       		.byte	4
 1654 03f8 0D       		.byte	13
 1655 03f9 22       		.byte	34
 1656 03fa 10       		.byte	16
 1657 03fb A8       		.byte	-88
 1658 03fc 11       		.byte	17
 1659 03fd 40       		.byte	64
 1660 03fe 17       		.byte	23
 1661 03ff 40       		.byte	64
 1662 0400 18       		.byte	24
 1663 0401 08       		.byte	8
 1664 0402 19       		.byte	25
 1665 0403 02       		.byte	2
 1666 0404 1D       		.byte	29
 1667 0405 01       		.byte	1
 1668 0406 1F       		.byte	31
ARM GAS  C:\Users\Tim\AppData\Local\Temp\ccoyQTkh.s 			page 54


 1669 0407 20       		.byte	32
 1670 0408 20       		.byte	32
 1671 0409 04       		.byte	4
 1672 040a 21       		.byte	33
 1673 040b 42       		.byte	66
 1674 040c 22       		.byte	34
 1675 040d 08       		.byte	8
 1676 040e 23       		.byte	35
 1677 040f 08       		.byte	8
 1678 0410 24       		.byte	36
 1679 0411 10       		.byte	16
 1680 0412 25       		.byte	37
 1681 0413 80       		.byte	-128
 1682 0414 26       		.byte	38
 1683 0415 22       		.byte	34
 1684 0416 27       		.byte	39
 1685 0417 21       		.byte	33
 1686 0418 2E       		.byte	46
 1687 0419 10       		.byte	16
 1688 041a 2F       		.byte	47
 1689 041b 20       		.byte	32
 1690 041c 30       		.byte	48
 1691 041d 04       		.byte	4
 1692 041e 31       		.byte	49
 1693 041f 22       		.byte	34
 1694 0420 33       		.byte	51
 1695 0421 40       		.byte	64
 1696 0422 36       		.byte	54
 1697 0423 24       		.byte	36
 1698 0424 3A       		.byte	58
 1699 0425 40       		.byte	64
 1700 0426 3B       		.byte	59
 1701 0427 14       		.byte	20
 1702 0428 3D       		.byte	61
 1703 0429 A2       		.byte	-94
 1704 042a 3E       		.byte	62
 1705 042b 04       		.byte	4
 1706 042c 40       		.byte	64
 1707 042d 14       		.byte	20
 1708 042e 47       		.byte	71
 1709 042f 28       		.byte	40
 1710 0430 68       		.byte	104
 1711 0431 02       		.byte	2
 1712 0432 69       		.byte	105
 1713 0433 29       		.byte	41
 1714 0434 78       		.byte	120
 1715 0435 01       		.byte	1
 1716 0436 7D       		.byte	125
 1717 0437 08       		.byte	8
 1718 0438 81       		.byte	-127
 1719 0439 60       		.byte	96
 1720 043a 8A       		.byte	-118
 1721 043b 01       		.byte	1
 1722 043c 91       		.byte	-111
 1723 043d 40       		.byte	64
 1724 043e 92       		.byte	-110
 1725 043f 14       		.byte	20
ARM GAS  C:\Users\Tim\AppData\Local\Temp\ccoyQTkh.s 			page 55


 1726 0440 93       		.byte	-109
 1727 0441 14       		.byte	20
 1728 0442 95       		.byte	-107
 1729 0443 39       		.byte	57
 1730 0444 97       		.byte	-105
 1731 0445 41       		.byte	65
 1732 0446 9D       		.byte	-99
 1733 0447 02       		.byte	2
 1734 0448 9F       		.byte	-97
 1735 0449 11       		.byte	17
 1736 044a A0       		.byte	-96
 1737 044b A8       		.byte	-88
 1738 044c A1       		.byte	-95
 1739 044d 51       		.byte	81
 1740 044e A4       		.byte	-92
 1741 044f 02       		.byte	2
 1742 0450 A5       		.byte	-91
 1743 0451 80       		.byte	-128
 1744 0452 A6       		.byte	-90
 1745 0453 86       		.byte	-122
 1746 0454 A9       		.byte	-87
 1747 0455 11       		.byte	17
 1748 0456 AA       		.byte	-86
 1749 0457 10       		.byte	16
 1750 0458 AC       		.byte	-84
 1751 0459 01       		.byte	1
 1752 045a AD       		.byte	-83
 1753 045b 01       		.byte	1
 1754 045c AE       		.byte	-82
 1755 045d 08       		.byte	8
 1756 045e B0       		.byte	-80
 1757 045f 04       		.byte	4
 1758 0460 B3       		.byte	-77
 1759 0461 80       		.byte	-128
 1760 0462 B4       		.byte	-76
 1761 0463 44       		.byte	68
 1762 0464 B6       		.byte	-74
 1763 0465 01       		.byte	1
 1764 0466 C0       		.byte	-64
 1765 0467 06       		.byte	6
 1766 0468 C2       		.byte	-62
 1767 0469 79       		.byte	121
 1768 046a C4       		.byte	-60
 1769 046b 8F       		.byte	-113
 1770 046c CA       		.byte	-54
 1771 046d 60       		.byte	96
 1772 046e CC       		.byte	-52
 1773 046f 6F       		.byte	111
 1774 0470 CE       		.byte	-50
 1775 0471 FE       		.byte	-2
 1776 0472 D0       		.byte	-48
 1777 0473 66       		.byte	102
 1778 0474 DE       		.byte	-34
 1779 0475 41       		.byte	65
 1780 0476 E0       		.byte	-32
 1781 0477 01       		.byte	1
 1782 0478 E2       		.byte	-30
ARM GAS  C:\Users\Tim\AppData\Local\Temp\ccoyQTkh.s 			page 56


 1783 0479 04       		.byte	4
 1784 047a E6       		.byte	-26
 1785 047b 80       		.byte	-128
 1786 047c EA       		.byte	-22
 1787 047d B2       		.byte	-78
 1788 047e 02       		.byte	2
 1789 047f 0F       		.byte	15
 1790 0480 0B       		.byte	11
 1791 0481 02       		.byte	2
 1792 0482 0F       		.byte	15
 1793 0483 01       		.byte	1
 1794 0484 10       		.byte	16
 1795 0485 0F       		.byte	15
 1796 0486 14       		.byte	20
 1797 0487 09       		.byte	9
 1798 0488 16       		.byte	22
 1799 0489 06       		.byte	6
 1800 048a 17       		.byte	23
 1801 048b 04       		.byte	4
 1802 048c 1C       		.byte	28
 1803 048d 03       		.byte	3
 1804 048e 1E       		.byte	30
 1805 048f 0C       		.byte	12
 1806 0490 28       		.byte	40
 1807 0491 02       		.byte	2
 1808 0492 2A       		.byte	42
 1809 0493 0D       		.byte	13
 1810 0494 30       		.byte	48
 1811 0495 04       		.byte	4
 1812 0496 31       		.byte	49
 1813 0497 04       		.byte	4
 1814 0498 32       		.byte	50
 1815 0499 01       		.byte	1
 1816 049a 33       		.byte	51
 1817 049b 02       		.byte	2
 1818 049c 34       		.byte	52
 1819 049d 02       		.byte	2
 1820 049e 35       		.byte	53
 1821 049f 01       		.byte	1
 1822 04a0 36       		.byte	54
 1823 04a1 08       		.byte	8
 1824 04a2 40       		.byte	64
 1825 04a3 20       		.byte	32
 1826 04a4 41       		.byte	65
 1827 04a5 03       		.byte	3
 1828 04a6 49       		.byte	73
 1829 04a7 FF       		.byte	-1
 1830 04a8 4A       		.byte	74
 1831 04a9 FF       		.byte	-1
 1832 04aa 4B       		.byte	75
 1833 04ab FF       		.byte	-1
 1834 04ac 4D       		.byte	77
 1835 04ad AF       		.byte	-81
 1836 04ae 4E       		.byte	78
 1837 04af 07       		.byte	7
 1838 04b0 4F       		.byte	79
 1839 04b1 01       		.byte	1
ARM GAS  C:\Users\Tim\AppData\Local\Temp\ccoyQTkh.s 			page 57


 1840 04b2 50       		.byte	80
 1841 04b3 18       		.byte	24
 1842 04b4 58       		.byte	88
 1843 04b5 04       		.byte	4
 1844 04b6 59       		.byte	89
 1845 04b7 04       		.byte	4
 1846 04b8 5A       		.byte	90
 1847 04b9 04       		.byte	4
 1848 04ba 5C       		.byte	92
 1849 04bb 13       		.byte	19
 1850 04bc 5D       		.byte	93
 1851 04bd 01       		.byte	1
 1852 04be 5F       		.byte	95
 1853 04bf 01       		.byte	1
 1854 04c0 60       		.byte	96
 1855 04c1 40       		.byte	64
 1856 04c2 62       		.byte	98
 1857 04c3 80       		.byte	-128
 1858 04c4 64       		.byte	100
 1859 04c5 40       		.byte	64
 1860 04c6 65       		.byte	101
 1861 04c7 40       		.byte	64
 1862 04c8 66       		.byte	102
 1863 04c9 80       		.byte	-128
 1864 04ca 68       		.byte	104
 1865 04cb 40       		.byte	64
 1866 04cc 6A       		.byte	106
 1867 04cd 80       		.byte	-128
 1868 04ce 6C       		.byte	108
 1869 04cf 40       		.byte	64
 1870 04d0 6D       		.byte	109
 1871 04d1 20       		.byte	32
 1872 04d2 6E       		.byte	110
 1873 04d3 80       		.byte	-128
 1874 04d4 82       		.byte	-126
 1875 04d5 08       		.byte	8
 1876 04d6 88       		.byte	-120
 1877 04d7 01       		.byte	1
 1878 04d8 8E       		.byte	-114
 1879 04d9 04       		.byte	4
 1880 04da 8F       		.byte	-113
 1881 04db 01       		.byte	1
 1882 04dc 97       		.byte	-105
 1883 04dd 02       		.byte	2
 1884 04de 98       		.byte	-104
 1885 04df 04       		.byte	4
 1886 04e0 9B       		.byte	-101
 1887 04e1 04       		.byte	4
 1888 04e2 9F       		.byte	-97
 1889 04e3 08       		.byte	8
 1890 04e4 A6       		.byte	-90
 1891 04e5 03       		.byte	3
 1892 04e6 A8       		.byte	-88
 1893 04e7 08       		.byte	8
 1894 04e8 B0       		.byte	-80
 1895 04e9 08       		.byte	8
 1896 04ea B1       		.byte	-79
ARM GAS  C:\Users\Tim\AppData\Local\Temp\ccoyQTkh.s 			page 58


 1897 04eb 04       		.byte	4
 1898 04ec B2       		.byte	-78
 1899 04ed 02       		.byte	2
 1900 04ee B3       		.byte	-77
 1901 04ef 02       		.byte	2
 1902 04f0 B4       		.byte	-76
 1903 04f1 04       		.byte	4
 1904 04f2 B5       		.byte	-75
 1905 04f3 01       		.byte	1
 1906 04f4 B6       		.byte	-74
 1907 04f5 01       		.byte	1
 1908 04f6 B7       		.byte	-73
 1909 04f7 08       		.byte	8
 1910 04f8 BE       		.byte	-66
 1911 04f9 51       		.byte	81
 1912 04fa C0       		.byte	-64
 1913 04fb 20       		.byte	32
 1914 04fc C1       		.byte	-63
 1915 04fd 03       		.byte	3
 1916 04fe C5       		.byte	-59
 1917 04ff 35       		.byte	53
 1918 0500 C6       		.byte	-58
 1919 0501 C2       		.byte	-62
 1920 0502 C7       		.byte	-57
 1921 0503 0E       		.byte	14
 1922 0504 C8       		.byte	-56
 1923 0505 1F       		.byte	31
 1924 0506 C9       		.byte	-55
 1925 0507 FF       		.byte	-1
 1926 0508 CA       		.byte	-54
 1927 0509 FF       		.byte	-1
 1928 050a CB       		.byte	-53
 1929 050b FF       		.byte	-1
 1930 050c CD       		.byte	-51
 1931 050d AF       		.byte	-81
 1932 050e CE       		.byte	-50
 1933 050f 07       		.byte	7
 1934 0510 CF       		.byte	-49
 1935 0511 01       		.byte	1
 1936 0512 D0       		.byte	-48
 1937 0513 18       		.byte	24
 1938 0514 D4       		.byte	-44
 1939 0515 0F       		.byte	15
 1940 0516 D6       		.byte	-42
 1941 0517 04       		.byte	4
 1942 0518 D8       		.byte	-40
 1943 0519 04       		.byte	4
 1944 051a D9       		.byte	-39
 1945 051b 04       		.byte	4
 1946 051c DA       		.byte	-38
 1947 051d 04       		.byte	4
 1948 051e DB       		.byte	-37
 1949 051f 04       		.byte	4
 1950 0520 DC       		.byte	-36
 1951 0521 31       		.byte	49
 1952 0522 DD       		.byte	-35
 1953 0523 11       		.byte	17
ARM GAS  C:\Users\Tim\AppData\Local\Temp\ccoyQTkh.s 			page 59


 1954 0524 DF       		.byte	-33
 1955 0525 01       		.byte	1
 1956 0526 E0       		.byte	-32
 1957 0527 40       		.byte	64
 1958 0528 E2       		.byte	-30
 1959 0529 80       		.byte	-128
 1960 052a E4       		.byte	-28
 1961 052b 40       		.byte	64
 1962 052c E5       		.byte	-27
 1963 052d 40       		.byte	64
 1964 052e E6       		.byte	-26
 1965 052f 80       		.byte	-128
 1966 0530 E8       		.byte	-24
 1967 0531 40       		.byte	64
 1968 0532 EA       		.byte	-22
 1969 0533 80       		.byte	-128
 1970 0534 EC       		.byte	-20
 1971 0535 40       		.byte	64
 1972 0536 ED       		.byte	-19
 1973 0537 20       		.byte	32
 1974 0538 EE       		.byte	-18
 1975 0539 80       		.byte	-128
 1976 053a 00       		.byte	0
 1977 053b 90       		.byte	-112
 1978 053c 02       		.byte	2
 1979 053d 40       		.byte	64
 1980 053e 05       		.byte	5
 1981 053f 02       		.byte	2
 1982 0540 09       		.byte	9
 1983 0541 10       		.byte	16
 1984 0542 0D       		.byte	13
 1985 0543 80       		.byte	-128
 1986 0544 0F       		.byte	15
 1987 0545 50       		.byte	80
 1988 0546 12       		.byte	18
 1989 0547 28       		.byte	40
 1990 0548 15       		.byte	21
 1991 0549 20       		.byte	32
 1992 054a 18       		.byte	24
 1993 054b 10       		.byte	16
 1994 054c 19       		.byte	25
 1995 054d 41       		.byte	65
 1996 054e 1A       		.byte	26
 1997 054f 04       		.byte	4
 1998 0550 1E       		.byte	30
 1999 0551 41       		.byte	65
 2000 0552 1F       		.byte	31
 2001 0553 28       		.byte	40
 2002 0554 20       		.byte	32
 2003 0555 28       		.byte	40
 2004 0556 21       		.byte	33
 2005 0557 90       		.byte	-112
 2006 0558 22       		.byte	34
 2007 0559 41       		.byte	65
 2008 055a 23       		.byte	35
 2009 055b 50       		.byte	80
 2010 055c 25       		.byte	37
ARM GAS  C:\Users\Tim\AppData\Local\Temp\ccoyQTkh.s 			page 60


 2011 055d 10       		.byte	16
 2012 055e 26       		.byte	38
 2013 055f 04       		.byte	4
 2014 0560 27       		.byte	39
 2015 0561 40       		.byte	64
 2016 0562 30       		.byte	48
 2017 0563 A8       		.byte	-88
 2018 0564 34       		.byte	52
 2019 0565 04       		.byte	4
 2020 0566 39       		.byte	57
 2021 0567 40       		.byte	64
 2022 0568 3C       		.byte	60
 2023 0569 80       		.byte	-128
 2024 056a 3E       		.byte	62
 2025 056b 10       		.byte	16
 2026 056c 40       		.byte	64
 2027 056d 28       		.byte	40
 2028 056e 44       		.byte	68
 2029 056f 28       		.byte	40
 2030 0570 47       		.byte	71
 2031 0571 28       		.byte	40
 2032 0572 48       		.byte	72
 2033 0573 40       		.byte	64
 2034 0574 4A       		.byte	74
 2035 0575 20       		.byte	32
 2036 0576 51       		.byte	81
 2037 0577 08       		.byte	8
 2038 0578 52       		.byte	82
 2039 0579 D0       		.byte	-48
 2040 057a 59       		.byte	89
 2041 057b 51       		.byte	81
 2042 057c 5A       		.byte	90
 2043 057d 04       		.byte	4
 2044 057e 61       		.byte	97
 2045 057f 08       		.byte	8
 2046 0580 62       		.byte	98
 2047 0581 10       		.byte	16
 2048 0582 63       		.byte	99
 2049 0583 80       		.byte	-128
 2050 0584 83       		.byte	-125
 2051 0585 40       		.byte	64
 2052 0586 88       		.byte	-120
 2053 0587 04       		.byte	4
 2054 0588 8B       		.byte	-117
 2055 0589 28       		.byte	40
 2056 058a 8D       		.byte	-115
 2057 058b 10       		.byte	16
 2058 058c 8E       		.byte	-114
 2059 058d C0       		.byte	-64
 2060 058e 91       		.byte	-111
 2061 058f 40       		.byte	64
 2062 0590 92       		.byte	-110
 2063 0591 10       		.byte	16
 2064 0592 96       		.byte	-106
 2065 0593 83       		.byte	-125
 2066 0594 99       		.byte	-103
 2067 0595 02       		.byte	2
ARM GAS  C:\Users\Tim\AppData\Local\Temp\ccoyQTkh.s 			page 61


 2068 0596 9B       		.byte	-101
 2069 0597 28       		.byte	40
 2070 0598 9C       		.byte	-100
 2071 0599 04       		.byte	4
 2072 059a 9E       		.byte	-98
 2073 059b 40       		.byte	64
 2074 059c 9F       		.byte	-97
 2075 059d 40       		.byte	64
 2076 059e A0       		.byte	-96
 2077 059f A8       		.byte	-88
 2078 05a0 A2       		.byte	-94
 2079 05a1 08       		.byte	8
 2080 05a2 A4       		.byte	-92
 2081 05a3 14       		.byte	20
 2082 05a4 A6       		.byte	-90
 2083 05a5 04       		.byte	4
 2084 05a6 A8       		.byte	-88
 2085 05a7 04       		.byte	4
 2086 05a8 A9       		.byte	-87
 2087 05a9 04       		.byte	4
 2088 05aa B0       		.byte	-80
 2089 05ab 01       		.byte	1
 2090 05ac B2       		.byte	-78
 2091 05ad 80       		.byte	-128
 2092 05ae B5       		.byte	-75
 2093 05af 01       		.byte	1
 2094 05b0 C0       		.byte	-64
 2095 05b1 1B       		.byte	27
 2096 05b2 C2       		.byte	-62
 2097 05b3 B2       		.byte	-78
 2098 05b4 C4       		.byte	-60
 2099 05b5 46       		.byte	70
 2100 05b6 CC       		.byte	-52
 2101 05b7 4E       		.byte	78
 2102 05b8 CE       		.byte	-50
 2103 05b9 38       		.byte	56
 2104 05ba D0       		.byte	-48
 2105 05bb 66       		.byte	102
 2106 05bc D6       		.byte	-42
 2107 05bd 0F       		.byte	15
 2108 05be D8       		.byte	-40
 2109 05bf 07       		.byte	7
 2110 05c0 E2       		.byte	-30
 2111 05c1 A0       		.byte	-96
 2112 05c2 E6       		.byte	-26
 2113 05c3 40       		.byte	64
 2114 05c4 E8       		.byte	-24
 2115 05c5 02       		.byte	2
 2116 05c6 EC       		.byte	-20
 2117 05c7 01       		.byte	1
 2118 05c8 EE       		.byte	-18
 2119 05c9 40       		.byte	64
 2120 05ca 00       		.byte	0
 2121 05cb 04       		.byte	4
 2122 05cc 01       		.byte	1
 2123 05cd 40       		.byte	64
 2124 05ce 05       		.byte	5
ARM GAS  C:\Users\Tim\AppData\Local\Temp\ccoyQTkh.s 			page 62


 2125 05cf 80       		.byte	-128
 2126 05d0 0B       		.byte	11
 2127 05d1 80       		.byte	-128
 2128 05d2 6B       		.byte	107
 2129 05d3 10       		.byte	16
 2130 05d4 6F       		.byte	111
 2131 05d5 02       		.byte	2
 2132 05d6 81       		.byte	-127
 2133 05d7 C0       		.byte	-64
 2134 05d8 89       		.byte	-119
 2135 05d9 10       		.byte	16
 2136 05da 8F       		.byte	-113
 2137 05db 02       		.byte	2
 2138 05dc C0       		.byte	-64
 2139 05dd D0       		.byte	-48
 2140 05de C2       		.byte	-62
 2141 05df 10       		.byte	16
 2142 05e0 DA       		.byte	-38
 2143 05e1 C0       		.byte	-64
 2144 05e2 E0       		.byte	-32
 2145 05e3 20       		.byte	32
 2146 05e4 E4       		.byte	-28
 2147 05e5 20       		.byte	32
 2148 05e6 52       		.byte	82
 2149 05e7 80       		.byte	-128
 2150 05e8 56       		.byte	86
 2151 05e9 40       		.byte	64
 2152 05ea 58       		.byte	88
 2153 05eb 44       		.byte	68
 2154 05ec 5D       		.byte	93
 2155 05ed 10       		.byte	16
 2156 05ee 60       		.byte	96
 2157 05ef 08       		.byte	8
 2158 05f0 65       		.byte	101
 2159 05f1 84       		.byte	-124
 2160 05f2 81       		.byte	-127
 2161 05f3 20       		.byte	32
 2162 05f4 82       		.byte	-126
 2163 05f5 80       		.byte	-128
 2164 05f6 84       		.byte	-124
 2165 05f7 08       		.byte	8
 2166 05f8 86       		.byte	-122
 2167 05f9 40       		.byte	64
 2168 05fa 8B       		.byte	-117
 2169 05fb 04       		.byte	4
 2170 05fc 8C       		.byte	-116
 2171 05fd 20       		.byte	32
 2172 05fe 91       		.byte	-111
 2173 05ff 10       		.byte	16
 2174 0600 9F       		.byte	-97
 2175 0601 10       		.byte	16
 2176 0602 A8       		.byte	-88
 2177 0603 04       		.byte	4
 2178 0604 B3       		.byte	-77
 2179 0605 40       		.byte	64
 2180 0606 D4       		.byte	-44
 2181 0607 E0       		.byte	-32
ARM GAS  C:\Users\Tim\AppData\Local\Temp\ccoyQTkh.s 			page 63


 2182 0608 D6       		.byte	-42
 2183 0609 E0       		.byte	-32
 2184 060a D8       		.byte	-40
 2185 060b C0       		.byte	-64
 2186 060c E2       		.byte	-30
 2187 060d 30       		.byte	48
 2188 060e E6       		.byte	-26
 2189 060f 30       		.byte	48
 2190 0610 E8       		.byte	-24
 2191 0611 20       		.byte	32
 2192 0612 11       		.byte	17
 2193 0613 80       		.byte	-128
 2194 0614 16       		.byte	22
 2195 0615 80       		.byte	-128
 2196 0616 53       		.byte	83
 2197 0617 80       		.byte	-128
 2198 0618 54       		.byte	84
 2199 0619 02       		.byte	2
 2200 061a 55       		.byte	85
 2201 061b 20       		.byte	32
 2202 061c 58       		.byte	88
 2203 061d 20       		.byte	32
 2204 061e 5B       		.byte	91
 2205 061f 02       		.byte	2
 2206 0620 5D       		.byte	93
 2207 0621 08       		.byte	8
 2208 0622 62       		.byte	98
 2209 0623 20       		.byte	32
 2210 0624 67       		.byte	103
 2211 0625 08       		.byte	8
 2212 0626 88       		.byte	-120
 2213 0627 04       		.byte	4
 2214 0628 93       		.byte	-109
 2215 0629 08       		.byte	8
 2216 062a 98       		.byte	-104
 2217 062b 20       		.byte	32
 2218 062c 99       		.byte	-103
 2219 062d 08       		.byte	8
 2220 062e 9C       		.byte	-100
 2221 062f 04       		.byte	4
 2222 0630 9D       		.byte	-99
 2223 0631 80       		.byte	-128
 2224 0632 9E       		.byte	-98
 2225 0633 04       		.byte	4
 2226 0634 9F       		.byte	-97
 2227 0635 10       		.byte	16
 2228 0636 A0       		.byte	-96
 2229 0637 02       		.byte	2
 2230 0638 A1       		.byte	-95
 2231 0639 20       		.byte	32
 2232 063a A2       		.byte	-94
 2233 063b 20       		.byte	32
 2234 063c A8       		.byte	-88
 2235 063d 02       		.byte	2
 2236 063e A9       		.byte	-87
 2237 063f 08       		.byte	8
 2238 0640 AA       		.byte	-86
ARM GAS  C:\Users\Tim\AppData\Local\Temp\ccoyQTkh.s 			page 64


 2239 0641 04       		.byte	4
 2240 0642 B0       		.byte	-80
 2241 0643 40       		.byte	64
 2242 0644 B2       		.byte	-78
 2243 0645 20       		.byte	32
 2244 0646 B5       		.byte	-75
 2245 0647 04       		.byte	4
 2246 0648 C4       		.byte	-60
 2247 0649 60       		.byte	96
 2248 064a D4       		.byte	-44
 2249 064b E0       		.byte	-32
 2250 064c D6       		.byte	-42
 2251 064d E0       		.byte	-32
 2252 064e D8       		.byte	-40
 2253 064f C0       		.byte	-64
 2254 0650 E8       		.byte	-24
 2255 0651 80       		.byte	-128
 2256 0652 EA       		.byte	-22
 2257 0653 20       		.byte	32
 2258 0654 EE       		.byte	-18
 2259 0655 20       		.byte	32
 2260 0656 02       		.byte	2
 2261 0657 08       		.byte	8
 2262 0658 06       		.byte	6
 2263 0659 04       		.byte	4
 2264 065a 37       		.byte	55
 2265 065b 08       		.byte	8
 2266 065c 56       		.byte	86
 2267 065d 80       		.byte	-128
 2268 065e 83       		.byte	-125
 2269 065f 10       		.byte	16
 2270 0660 8B       		.byte	-117
 2271 0661 82       		.byte	-126
 2272 0662 8D       		.byte	-115
 2273 0663 80       		.byte	-128
 2274 0664 9A       		.byte	-102
 2275 0665 80       		.byte	-128
 2276 0666 9B       		.byte	-101
 2277 0667 08       		.byte	8
 2278 0668 9D       		.byte	-99
 2279 0669 80       		.byte	-128
 2280 066a 9E       		.byte	-98
 2281 066b 04       		.byte	4
 2282 066c 9F       		.byte	-97
 2283 066d 12       		.byte	18
 2284 066e A6       		.byte	-90
 2285 066f 08       		.byte	8
 2286 0670 A7       		.byte	-89
 2287 0671 80       		.byte	-128
 2288 0672 AA       		.byte	-86
 2289 0673 08       		.byte	8
 2290 0674 AD       		.byte	-83
 2291 0675 40       		.byte	64
 2292 0676 B7       		.byte	-73
 2293 0677 08       		.byte	8
 2294 0678 C0       		.byte	-64
 2295 0679 C0       		.byte	-64
ARM GAS  C:\Users\Tim\AppData\Local\Temp\ccoyQTkh.s 			page 65


 2296 067a CC       		.byte	-52
 2297 067b 80       		.byte	-128
 2298 067c D4       		.byte	-44
 2299 067d 40       		.byte	64
 2300 067e E2       		.byte	-30
 2301 067f 20       		.byte	32
 2302 0680 E8       		.byte	-24
 2303 0681 60       		.byte	96
 2304 0682 00       		.byte	0
 2305 0683 01       		.byte	1
 2306 0684 04       		.byte	4
 2307 0685 10       		.byte	16
 2308 0686 08       		.byte	8
 2309 0687 08       		.byte	8
 2310 0688 0B       		.byte	11
 2311 0689 04       		.byte	4
 2312 068a 0D       		.byte	13
 2313 068b 80       		.byte	-128
 2314 068c 8C       		.byte	-116
 2315 068d 19       		.byte	25
 2316 068e C0       		.byte	-64
 2317 068f 09       		.byte	9
 2318 0690 C2       		.byte	-62
 2319 0691 0B       		.byte	11
 2320 0692 E2       		.byte	-30
 2321 0693 0A       		.byte	10
 2322 0694 E6       		.byte	-26
 2323 0695 08       		.byte	8
 2324 0696 03       		.byte	3
 2325 0697 01       		.byte	1
 2326 0698 05       		.byte	5
 2327 0699 80       		.byte	-128
 2328 069a 08       		.byte	8
 2329 069b 80       		.byte	-128
 2330 069c 0B       		.byte	11
 2331 069d 40       		.byte	64
 2332 069e 0C       		.byte	12
 2333 069f 20       		.byte	32
 2334 06a0 0E       		.byte	14
 2335 06a1 40       		.byte	64
 2336 06a2 87       		.byte	-121
 2337 06a3 44       		.byte	68
 2338 06a4 89       		.byte	-119
 2339 06a5 80       		.byte	-128
 2340 06a6 8C       		.byte	-116
 2341 06a7 80       		.byte	-128
 2342 06a8 93       		.byte	-109
 2343 06a9 04       		.byte	4
 2344 06aa 9D       		.byte	-99
 2345 06ab 02       		.byte	2
 2346 06ac A9       		.byte	-87
 2347 06ad 82       		.byte	-126
 2348 06ae C0       		.byte	-64
 2349 06af 03       		.byte	3
 2350 06b0 C2       		.byte	-62
 2351 06b1 0F       		.byte	15
 2352 06b2 E2       		.byte	-30
ARM GAS  C:\Users\Tim\AppData\Local\Temp\ccoyQTkh.s 			page 66


 2353 06b3 08       		.byte	8
 2354 06b4 E6       		.byte	-26
 2355 06b5 01       		.byte	1
 2356 06b6 00       		.byte	0
 2357 06b7 80       		.byte	-128
 2358 06b8 03       		.byte	3
 2359 06b9 80       		.byte	-128
 2360 06ba 05       		.byte	5
 2361 06bb 02       		.byte	2
 2362 06bc 0C       		.byte	12
 2363 06bd 02       		.byte	2
 2364 06be 36       		.byte	54
 2365 06bf 01       		.byte	1
 2366 06c0 4B       		.byte	75
 2367 06c1 01       		.byte	1
 2368 06c2 52       		.byte	82
 2369 06c3 02       		.byte	2
 2370 06c4 80       		.byte	-128
 2371 06c5 02       		.byte	2
 2372 06c6 83       		.byte	-125
 2373 06c7 01       		.byte	1
 2374 06c8 9D       		.byte	-99
 2375 06c9 02       		.byte	2
 2376 06ca AF       		.byte	-81
 2377 06cb 01       		.byte	1
 2378 06cc B4       		.byte	-76
 2379 06cd 20       		.byte	32
 2380 06ce B6       		.byte	-74
 2381 06cf 40       		.byte	64
 2382 06d0 C0       		.byte	-64
 2383 06d1 0E       		.byte	14
 2384 06d2 C2       		.byte	-62
 2385 06d3 04       		.byte	4
 2386 06d4 CC       		.byte	-52
 2387 06d5 01       		.byte	1
 2388 06d6 D2       		.byte	-46
 2389 06d7 02       		.byte	2
 2390 06d8 D4       		.byte	-44
 2391 06d9 01       		.byte	1
 2392 06da EE       		.byte	-18
 2393 06db 0A       		.byte	10
 2394 06dc 06       		.byte	6
 2395 06dd 20       		.byte	32
 2396 06de 8A       		.byte	-118
 2397 06df 20       		.byte	32
 2398 06e0 AA       		.byte	-86
 2399 06e1 01       		.byte	1
 2400 06e2 AE       		.byte	-82
 2401 06e3 02       		.byte	2
 2402 06e4 B0       		.byte	-80
 2403 06e5 40       		.byte	64
 2404 06e6 B3       		.byte	-77
 2405 06e7 80       		.byte	-128
 2406 06e8 C0       		.byte	-64
 2407 06e9 04       		.byte	4
 2408 06ea E6       		.byte	-26
 2409 06eb 01       		.byte	1
ARM GAS  C:\Users\Tim\AppData\Local\Temp\ccoyQTkh.s 			page 67


 2410 06ec EA       		.byte	-22
 2411 06ed 01       		.byte	1
 2412 06ee EE       		.byte	-18
 2413 06ef 04       		.byte	4
 2414 06f0 10       		.byte	16
 2415 06f1 0A       		.byte	10
 2416 06f2 12       		.byte	18
 2417 06f3 0A       		.byte	10
 2418 06f4 13       		.byte	19
 2419 06f5 01       		.byte	1
 2420 06f6 0000     		.text
 2421              	.Letext0:
 2422              		.file 2 "c:\\program files (x86)\\cypress\\psoc creator\\3.3\\psoc creator\\import\\gnu\\arm\\4.9.
 2423              		.file 3 ".\\Generated_Source\\PSoC4\\cytypes.h"
 2424              		.file 4 ".\\Generated_Source\\PSoC4\\CyLib.h"