ARM GAS  C:\Users\Tim\AppData\Local\Temp\ccLA4eUz.s 			page 1


   1              		.cpu cortex-m0
   2              		.fpu softvfp
   3              		.eabi_attribute 20, 1
   4              		.eabi_attribute 21, 1
   5              		.eabi_attribute 23, 3
   6              		.eabi_attribute 24, 1
   7              		.eabi_attribute 25, 1
   8              		.eabi_attribute 26, 1
   9              		.eabi_attribute 30, 1
  10              		.eabi_attribute 34, 0
  11              		.eabi_attribute 18, 4
  12              		.code	16
  13              		.file	"Infrared_ADC.c"
  14              		.text
  15              	.Ltext0:
  16              		.cfi_sections	.debug_frame
  17              		.section	.text.Infrared_ADC_Init,"ax",%progbits
  18              		.align	2
  19              		.global	Infrared_ADC_Init
  20              		.code	16
  21              		.thumb_func
  22              		.type	Infrared_ADC_Init, %function
  23              	Infrared_ADC_Init:
  24              	.LFB3:
  25              		.file 1 ".\\Generated_Source\\PSoC4\\Infrared_ADC.c"
   1:.\Generated_Source\PSoC4/Infrared_ADC.c **** /*******************************************************************************
   2:.\Generated_Source\PSoC4/Infrared_ADC.c **** * File Name: Infrared_ADC.c
   3:.\Generated_Source\PSoC4/Infrared_ADC.c **** * Version 2.30
   4:.\Generated_Source\PSoC4/Infrared_ADC.c **** *
   5:.\Generated_Source\PSoC4/Infrared_ADC.c **** * Description:
   6:.\Generated_Source\PSoC4/Infrared_ADC.c **** *  This file provides the source code to the API for the Sequencing Successive
   7:.\Generated_Source\PSoC4/Infrared_ADC.c **** *  Approximation ADC Component Component.
   8:.\Generated_Source\PSoC4/Infrared_ADC.c **** *
   9:.\Generated_Source\PSoC4/Infrared_ADC.c **** * Note:
  10:.\Generated_Source\PSoC4/Infrared_ADC.c **** *
  11:.\Generated_Source\PSoC4/Infrared_ADC.c **** ********************************************************************************
  12:.\Generated_Source\PSoC4/Infrared_ADC.c **** * Copyright 2008-2015, Cypress Semiconductor Corporation.  All rights reserved.
  13:.\Generated_Source\PSoC4/Infrared_ADC.c **** * You may use this file only in accordance with the license, terms, conditions,
  14:.\Generated_Source\PSoC4/Infrared_ADC.c **** * disclaimers, and limitations in the end user license agreement accompanying
  15:.\Generated_Source\PSoC4/Infrared_ADC.c **** * the software package with which this file was provided.
  16:.\Generated_Source\PSoC4/Infrared_ADC.c **** *******************************************************************************/
  17:.\Generated_Source\PSoC4/Infrared_ADC.c **** 
  18:.\Generated_Source\PSoC4/Infrared_ADC.c **** #include "Infrared_ADC.h"
  19:.\Generated_Source\PSoC4/Infrared_ADC.c **** 
  20:.\Generated_Source\PSoC4/Infrared_ADC.c **** 
  21:.\Generated_Source\PSoC4/Infrared_ADC.c **** /***************************************
  22:.\Generated_Source\PSoC4/Infrared_ADC.c **** * Global data allocation
  23:.\Generated_Source\PSoC4/Infrared_ADC.c **** ***************************************/
  24:.\Generated_Source\PSoC4/Infrared_ADC.c **** uint8 Infrared_ADC_initVar = 0u;
  25:.\Generated_Source\PSoC4/Infrared_ADC.c **** volatile int16 Infrared_ADC_offset[Infrared_ADC_TOTAL_CHANNELS_NUM];
  26:.\Generated_Source\PSoC4/Infrared_ADC.c **** volatile int32 Infrared_ADC_countsPer10Volt[Infrared_ADC_TOTAL_CHANNELS_NUM];   /* Gain compensatio
  27:.\Generated_Source\PSoC4/Infrared_ADC.c **** 
  28:.\Generated_Source\PSoC4/Infrared_ADC.c **** 
  29:.\Generated_Source\PSoC4/Infrared_ADC.c **** /***************************************
  30:.\Generated_Source\PSoC4/Infrared_ADC.c **** * Local data allocation
  31:.\Generated_Source\PSoC4/Infrared_ADC.c **** ***************************************/
  32:.\Generated_Source\PSoC4/Infrared_ADC.c **** /* Channels configuration generated by customiser */
ARM GAS  C:\Users\Tim\AppData\Local\Temp\ccLA4eUz.s 			page 2


  33:.\Generated_Source\PSoC4/Infrared_ADC.c **** static const uint32 CYCODE Infrared_ADC_channelsConfig[] = { 0x00000000u };
  34:.\Generated_Source\PSoC4/Infrared_ADC.c **** 
  35:.\Generated_Source\PSoC4/Infrared_ADC.c **** 
  36:.\Generated_Source\PSoC4/Infrared_ADC.c **** /*******************************************************************************
  37:.\Generated_Source\PSoC4/Infrared_ADC.c **** * Function Name: Infrared_ADC_Start
  38:.\Generated_Source\PSoC4/Infrared_ADC.c **** ********************************************************************************
  39:.\Generated_Source\PSoC4/Infrared_ADC.c **** *
  40:.\Generated_Source\PSoC4/Infrared_ADC.c **** * Summary:
  41:.\Generated_Source\PSoC4/Infrared_ADC.c **** *  Performs all required initialization for this component
  42:.\Generated_Source\PSoC4/Infrared_ADC.c **** *  and enables the power. The power will be set to the appropriate
  43:.\Generated_Source\PSoC4/Infrared_ADC.c **** *  power based on the clock frequency.
  44:.\Generated_Source\PSoC4/Infrared_ADC.c **** *
  45:.\Generated_Source\PSoC4/Infrared_ADC.c **** * Parameters:
  46:.\Generated_Source\PSoC4/Infrared_ADC.c **** *  None.
  47:.\Generated_Source\PSoC4/Infrared_ADC.c **** *
  48:.\Generated_Source\PSoC4/Infrared_ADC.c **** * Return:
  49:.\Generated_Source\PSoC4/Infrared_ADC.c **** *  None.
  50:.\Generated_Source\PSoC4/Infrared_ADC.c **** *
  51:.\Generated_Source\PSoC4/Infrared_ADC.c **** * Global variables:
  52:.\Generated_Source\PSoC4/Infrared_ADC.c **** *  The Infrared_ADC_initVar variable is used to indicate when/if initial
  53:.\Generated_Source\PSoC4/Infrared_ADC.c **** *  configuration of this component has happened. The variable is initialized to
  54:.\Generated_Source\PSoC4/Infrared_ADC.c **** *  zero and set to 1 the first time ADC_Start() is called. This allows for
  55:.\Generated_Source\PSoC4/Infrared_ADC.c **** *  component Re-Start without re-initialization in all subsequent calls to the
  56:.\Generated_Source\PSoC4/Infrared_ADC.c **** *  Infrared_ADC_Start() routine.
  57:.\Generated_Source\PSoC4/Infrared_ADC.c **** *  If re-initialization of the component is required the variable should be set
  58:.\Generated_Source\PSoC4/Infrared_ADC.c **** *  to zero before call of Infrared_ADC_Start() routine, or the user may call
  59:.\Generated_Source\PSoC4/Infrared_ADC.c **** *  Infrared_ADC_Init() and Infrared_ADC_Enable() as done in the
  60:.\Generated_Source\PSoC4/Infrared_ADC.c **** *  Infrared_ADC_Start() routine.
  61:.\Generated_Source\PSoC4/Infrared_ADC.c **** *
  62:.\Generated_Source\PSoC4/Infrared_ADC.c **** *******************************************************************************/
  63:.\Generated_Source\PSoC4/Infrared_ADC.c **** void Infrared_ADC_Start(void)
  64:.\Generated_Source\PSoC4/Infrared_ADC.c **** {
  65:.\Generated_Source\PSoC4/Infrared_ADC.c ****     /* If not Initialized then initialize all required hardware and software */
  66:.\Generated_Source\PSoC4/Infrared_ADC.c ****     if(Infrared_ADC_initVar == 0u)
  67:.\Generated_Source\PSoC4/Infrared_ADC.c ****     {
  68:.\Generated_Source\PSoC4/Infrared_ADC.c ****         Infrared_ADC_Init();
  69:.\Generated_Source\PSoC4/Infrared_ADC.c ****         Infrared_ADC_initVar = 1u;
  70:.\Generated_Source\PSoC4/Infrared_ADC.c ****     }
  71:.\Generated_Source\PSoC4/Infrared_ADC.c ****     Infrared_ADC_Enable();
  72:.\Generated_Source\PSoC4/Infrared_ADC.c **** }
  73:.\Generated_Source\PSoC4/Infrared_ADC.c **** 
  74:.\Generated_Source\PSoC4/Infrared_ADC.c **** 
  75:.\Generated_Source\PSoC4/Infrared_ADC.c **** /*******************************************************************************
  76:.\Generated_Source\PSoC4/Infrared_ADC.c **** * Function Name: Infrared_ADC_Init
  77:.\Generated_Source\PSoC4/Infrared_ADC.c **** ********************************************************************************
  78:.\Generated_Source\PSoC4/Infrared_ADC.c **** *
  79:.\Generated_Source\PSoC4/Infrared_ADC.c **** * Summary:
  80:.\Generated_Source\PSoC4/Infrared_ADC.c **** *  Initialize component's parameters to the parameters set by user in the
  81:.\Generated_Source\PSoC4/Infrared_ADC.c **** *  customizer of the component placed onto schematic. Usually called in
  82:.\Generated_Source\PSoC4/Infrared_ADC.c **** *  Infrared_ADC_Start().
  83:.\Generated_Source\PSoC4/Infrared_ADC.c **** *
  84:.\Generated_Source\PSoC4/Infrared_ADC.c **** * Parameters:
  85:.\Generated_Source\PSoC4/Infrared_ADC.c **** *  None.
  86:.\Generated_Source\PSoC4/Infrared_ADC.c **** *
  87:.\Generated_Source\PSoC4/Infrared_ADC.c **** * Return:
  88:.\Generated_Source\PSoC4/Infrared_ADC.c **** *  None.
  89:.\Generated_Source\PSoC4/Infrared_ADC.c **** *
ARM GAS  C:\Users\Tim\AppData\Local\Temp\ccLA4eUz.s 			page 3


  90:.\Generated_Source\PSoC4/Infrared_ADC.c **** * Global variables:
  91:.\Generated_Source\PSoC4/Infrared_ADC.c **** *  The Infrared_ADC_offset variable is initialized.
  92:.\Generated_Source\PSoC4/Infrared_ADC.c **** *
  93:.\Generated_Source\PSoC4/Infrared_ADC.c **** *******************************************************************************/
  94:.\Generated_Source\PSoC4/Infrared_ADC.c **** void Infrared_ADC_Init(void)
  95:.\Generated_Source\PSoC4/Infrared_ADC.c **** {
  26              		.loc 1 95 0
  27              		.cfi_startproc
  28 0000 08B5     		push	{r3, lr}
  29              		.cfi_def_cfa_offset 8
  30              		.cfi_offset 3, -8
  31              		.cfi_offset 14, -4
  96:.\Generated_Source\PSoC4/Infrared_ADC.c ****     uint32 chNum;
  97:.\Generated_Source\PSoC4/Infrared_ADC.c ****     uint32 tmpRegVal;
  98:.\Generated_Source\PSoC4/Infrared_ADC.c ****     int32 counts;
  99:.\Generated_Source\PSoC4/Infrared_ADC.c **** 
 100:.\Generated_Source\PSoC4/Infrared_ADC.c ****     #if(Infrared_ADC_TOTAL_CHANNELS_NUM > 1u)
 101:.\Generated_Source\PSoC4/Infrared_ADC.c ****         static const uint8 CYCODE Infrared_ADC_InputsPlacement[] =
 102:.\Generated_Source\PSoC4/Infrared_ADC.c ****         {
 103:.\Generated_Source\PSoC4/Infrared_ADC.c ****             (uint8)(Infrared_ADC_cy_psoc4_sarmux_8__CH_0_PORT << 4u) |
 104:.\Generated_Source\PSoC4/Infrared_ADC.c ****             (uint8)Infrared_ADC_cy_psoc4_sarmux_8__CH_0_PIN
 105:.\Generated_Source\PSoC4/Infrared_ADC.c ****             ,(uint8)(Infrared_ADC_cy_psoc4_sarmux_8__CH_1_PORT << 4u) |
 106:.\Generated_Source\PSoC4/Infrared_ADC.c ****              (uint8)Infrared_ADC_cy_psoc4_sarmux_8__CH_1_PIN
 107:.\Generated_Source\PSoC4/Infrared_ADC.c ****             #if(Infrared_ADC_TOTAL_CHANNELS_NUM > 2u)
 108:.\Generated_Source\PSoC4/Infrared_ADC.c ****                 ,(uint8)(Infrared_ADC_cy_psoc4_sarmux_8__CH_2_PORT << 4u) |
 109:.\Generated_Source\PSoC4/Infrared_ADC.c ****                  (uint8)Infrared_ADC_cy_psoc4_sarmux_8__CH_2_PIN
 110:.\Generated_Source\PSoC4/Infrared_ADC.c ****             #endif /* End Infrared_ADC_TOTAL_CHANNELS_NUM > 2u */
 111:.\Generated_Source\PSoC4/Infrared_ADC.c ****             #if(Infrared_ADC_TOTAL_CHANNELS_NUM > 3u)
 112:.\Generated_Source\PSoC4/Infrared_ADC.c ****                 ,(uint8)(Infrared_ADC_cy_psoc4_sarmux_8__CH_3_PORT << 4u) |
 113:.\Generated_Source\PSoC4/Infrared_ADC.c ****                  (uint8)Infrared_ADC_cy_psoc4_sarmux_8__CH_3_PIN
 114:.\Generated_Source\PSoC4/Infrared_ADC.c ****             #endif /* End Infrared_ADC_TOTAL_CHANNELS_NUM > 3u */
 115:.\Generated_Source\PSoC4/Infrared_ADC.c ****             #if(Infrared_ADC_TOTAL_CHANNELS_NUM > 4u)
 116:.\Generated_Source\PSoC4/Infrared_ADC.c ****                 ,(uint8)(Infrared_ADC_cy_psoc4_sarmux_8__CH_4_PORT << 4u) |
 117:.\Generated_Source\PSoC4/Infrared_ADC.c ****                  (uint8)Infrared_ADC_cy_psoc4_sarmux_8__CH_4_PIN
 118:.\Generated_Source\PSoC4/Infrared_ADC.c ****             #endif /* End Infrared_ADC_TOTAL_CHANNELS_NUM > 4u */
 119:.\Generated_Source\PSoC4/Infrared_ADC.c ****             #if(Infrared_ADC_TOTAL_CHANNELS_NUM > 5u)
 120:.\Generated_Source\PSoC4/Infrared_ADC.c ****                 ,(uint8)(Infrared_ADC_cy_psoc4_sarmux_8__CH_5_PORT << 4u) |
 121:.\Generated_Source\PSoC4/Infrared_ADC.c ****                  (uint8)Infrared_ADC_cy_psoc4_sarmux_8__CH_5_PIN
 122:.\Generated_Source\PSoC4/Infrared_ADC.c ****             #endif /* End Infrared_ADC_TOTAL_CHANNELS_NUM > 5u */
 123:.\Generated_Source\PSoC4/Infrared_ADC.c ****             #if(Infrared_ADC_TOTAL_CHANNELS_NUM > 6u)
 124:.\Generated_Source\PSoC4/Infrared_ADC.c ****                 ,(uint8)(Infrared_ADC_cy_psoc4_sarmux_8__CH_6_PORT << 4u) |
 125:.\Generated_Source\PSoC4/Infrared_ADC.c ****                  (uint8)Infrared_ADC_cy_psoc4_sarmux_8__CH_6_PIN
 126:.\Generated_Source\PSoC4/Infrared_ADC.c ****             #endif /* End Infrared_ADC_TOTAL_CHANNELS_NUM > 6u */
 127:.\Generated_Source\PSoC4/Infrared_ADC.c ****             #if(Infrared_ADC_TOTAL_CHANNELS_NUM > 7u)
 128:.\Generated_Source\PSoC4/Infrared_ADC.c ****                 ,(uint8)(Infrared_ADC_cy_psoc4_sarmux_8__CH_7_PORT << 4u) |
 129:.\Generated_Source\PSoC4/Infrared_ADC.c ****                  (uint8)Infrared_ADC_cy_psoc4_sarmux_8__CH_7_PIN
 130:.\Generated_Source\PSoC4/Infrared_ADC.c ****             #endif /* End Infrared_ADC_TOTAL_CHANNELS_NUM > 7u */
 131:.\Generated_Source\PSoC4/Infrared_ADC.c ****             #if(Infrared_ADC_TOTAL_CHANNELS_NUM > 8u)
 132:.\Generated_Source\PSoC4/Infrared_ADC.c ****                 ,(uint8)(Infrared_ADC_cy_psoc4_sarmux_8__CH_8_PORT << 4u) |
 133:.\Generated_Source\PSoC4/Infrared_ADC.c ****                  (uint8)Infrared_ADC_cy_psoc4_sarmux_8__CH_8_PIN
 134:.\Generated_Source\PSoC4/Infrared_ADC.c ****             #endif /* End Infrared_ADC_TOTAL_CHANNELS_NUM > 8u */
 135:.\Generated_Source\PSoC4/Infrared_ADC.c ****             #if(Infrared_ADC_TOTAL_CHANNELS_NUM > 9u)
 136:.\Generated_Source\PSoC4/Infrared_ADC.c ****                 ,(uint8)(Infrared_ADC_cy_psoc4_sarmux_8__CH_9_PORT << 4u) |
 137:.\Generated_Source\PSoC4/Infrared_ADC.c ****                  (uint8)Infrared_ADC_cy_psoc4_sarmux_8__CH_9_PIN
 138:.\Generated_Source\PSoC4/Infrared_ADC.c ****             #endif /* End Infrared_ADC_TOTAL_CHANNELS_NUM > 9u */
 139:.\Generated_Source\PSoC4/Infrared_ADC.c ****             #if(Infrared_ADC_TOTAL_CHANNELS_NUM > 10u)
 140:.\Generated_Source\PSoC4/Infrared_ADC.c ****                 ,(uint8)(Infrared_ADC_cy_psoc4_sarmux_8__CH_10_PORT << 4u) |
ARM GAS  C:\Users\Tim\AppData\Local\Temp\ccLA4eUz.s 			page 4


 141:.\Generated_Source\PSoC4/Infrared_ADC.c ****                  (uint8)Infrared_ADC_cy_psoc4_sarmux_8__CH_10_PIN
 142:.\Generated_Source\PSoC4/Infrared_ADC.c ****             #endif /* End Infrared_ADC_TOTAL_CHANNELS_NUM > 10u */
 143:.\Generated_Source\PSoC4/Infrared_ADC.c ****             #if(Infrared_ADC_TOTAL_CHANNELS_NUM > 11u)
 144:.\Generated_Source\PSoC4/Infrared_ADC.c ****                 ,(uint8)(Infrared_ADC_cy_psoc4_sarmux_8__CH_11_PORT << 4u) |
 145:.\Generated_Source\PSoC4/Infrared_ADC.c ****                  (uint8)Infrared_ADC_cy_psoc4_sarmux_8__CH_11_PIN
 146:.\Generated_Source\PSoC4/Infrared_ADC.c ****             #endif /* End Infrared_ADC_TOTAL_CHANNELS_NUM > 11u */
 147:.\Generated_Source\PSoC4/Infrared_ADC.c ****             #if(Infrared_ADC_TOTAL_CHANNELS_NUM > 12u)
 148:.\Generated_Source\PSoC4/Infrared_ADC.c ****                 ,(uint8)(Infrared_ADC_cy_psoc4_sarmux_8__CH_12_PORT << 4u) |
 149:.\Generated_Source\PSoC4/Infrared_ADC.c ****                  (uint8)Infrared_ADC_cy_psoc4_sarmux_8__CH_12_PIN
 150:.\Generated_Source\PSoC4/Infrared_ADC.c ****             #endif /* End Infrared_ADC_TOTAL_CHANNELS_NUM > 12u */
 151:.\Generated_Source\PSoC4/Infrared_ADC.c ****             #if(Infrared_ADC_TOTAL_CHANNELS_NUM > 13u)
 152:.\Generated_Source\PSoC4/Infrared_ADC.c ****                 ,(uint8)(Infrared_ADC_cy_psoc4_sarmux_8__CH_13_PORT << 4u) |
 153:.\Generated_Source\PSoC4/Infrared_ADC.c ****                  (uint8)Infrared_ADC_cy_psoc4_sarmux_8__CH_13_PIN
 154:.\Generated_Source\PSoC4/Infrared_ADC.c ****             #endif /* End Infrared_ADC_TOTAL_CHANNELS_NUM > 13u */
 155:.\Generated_Source\PSoC4/Infrared_ADC.c ****             #if(Infrared_ADC_TOTAL_CHANNELS_NUM > 14u)
 156:.\Generated_Source\PSoC4/Infrared_ADC.c ****                 ,(uint8)(Infrared_ADC_cy_psoc4_sarmux_8__CH_14_PORT << 4u) |
 157:.\Generated_Source\PSoC4/Infrared_ADC.c ****                  (uint8)Infrared_ADC_cy_psoc4_sarmux_8__CH_14_PIN
 158:.\Generated_Source\PSoC4/Infrared_ADC.c ****             #endif /* End Infrared_ADC_TOTAL_CHANNELS_NUM > 14u */
 159:.\Generated_Source\PSoC4/Infrared_ADC.c ****             #if(Infrared_ADC_TOTAL_CHANNELS_NUM > 15u)
 160:.\Generated_Source\PSoC4/Infrared_ADC.c ****                 ,(uint8)(Infrared_ADC_cy_psoc4_sarmux_8__CH_15_PORT << 4u) |
 161:.\Generated_Source\PSoC4/Infrared_ADC.c ****                  (uint8)Infrared_ADC_cy_psoc4_sarmux_8__CH_15_PIN
 162:.\Generated_Source\PSoC4/Infrared_ADC.c ****             #endif /* End Infrared_ADC_TOTAL_CHANNELS_NUM > 15u */
 163:.\Generated_Source\PSoC4/Infrared_ADC.c ****             #if(Infrared_ADC_TOTAL_CHANNELS_NUM > 16u)
 164:.\Generated_Source\PSoC4/Infrared_ADC.c ****                 ,(uint8)(Infrared_ADC_cy_psoc4_sarmux_8__CH_16_PORT << 4u) |
 165:.\Generated_Source\PSoC4/Infrared_ADC.c ****                  (uint8)Infrared_ADC_cy_psoc4_sarmux_8__CH_16_PIN
 166:.\Generated_Source\PSoC4/Infrared_ADC.c ****             #endif /* End Infrared_ADC_TOTAL_CHANNELS_NUM > 16u */
 167:.\Generated_Source\PSoC4/Infrared_ADC.c ****         };
 168:.\Generated_Source\PSoC4/Infrared_ADC.c ****     #endif /* End Infrared_ADC_TOTAL_CHANNELS_NUM > 1u */
 169:.\Generated_Source\PSoC4/Infrared_ADC.c **** 
 170:.\Generated_Source\PSoC4/Infrared_ADC.c ****     #if(Infrared_ADC_IRQ_REMOVE == 0u)
 171:.\Generated_Source\PSoC4/Infrared_ADC.c ****         /* Start and set interrupt vector */
 172:.\Generated_Source\PSoC4/Infrared_ADC.c ****         CyIntSetPriority(Infrared_ADC_INTC_NUMBER, Infrared_ADC_INTC_PRIOR_NUMBER);
  32              		.loc 1 172 0
  33 0002 1120     		mov	r0, #17
  34 0004 0321     		mov	r1, #3
  35 0006 FFF7FEFF 		bl	CyIntSetPriority
  36              	.LVL0:
 173:.\Generated_Source\PSoC4/Infrared_ADC.c ****         (void)CyIntSetVector(Infrared_ADC_INTC_NUMBER, &Infrared_ADC_ISR);
  37              		.loc 1 173 0
  38 000a 1120     		mov	r0, #17
  39 000c 2349     		ldr	r1, .L6
  40 000e FFF7FEFF 		bl	CyIntSetVector
  41              	.LVL1:
 174:.\Generated_Source\PSoC4/Infrared_ADC.c ****     #endif   /* End Infrared_ADC_IRQ_REMOVE */
 175:.\Generated_Source\PSoC4/Infrared_ADC.c **** 
 176:.\Generated_Source\PSoC4/Infrared_ADC.c ****     /* Init SAR and MUX registers */
 177:.\Generated_Source\PSoC4/Infrared_ADC.c ****     Infrared_ADC_SAR_CHAN_EN_REG = Infrared_ADC_DEFAULT_EN_CHANNELS;
  42              		.loc 1 177 0
  43 0012 0122     		mov	r2, #1
  44 0014 224B     		ldr	r3, .L6+4
  45 0016 1A60     		str	r2, [r3]
 178:.\Generated_Source\PSoC4/Infrared_ADC.c ****     Infrared_ADC_SAR_CTRL_REG |= Infrared_ADC_DEFAULT_CTRL_REG_CFG | 
 179:.\Generated_Source\PSoC4/Infrared_ADC.c ****         /* Enable the SAR internal pump when global pump is enabled */
 180:.\Generated_Source\PSoC4/Infrared_ADC.c ****         (((Infrared_ADC_PUMP_CTRL_REG & Infrared_ADC_PUMP_CTRL_ENABLED) != 0u) ? 
  46              		.loc 1 180 0
  47 0018 224B     		ldr	r3, .L6+8
  48 001a 1B68     		ldr	r3, [r3]
ARM GAS  C:\Users\Tim\AppData\Local\Temp\ccLA4eUz.s 			page 5


 178:.\Generated_Source\PSoC4/Infrared_ADC.c ****     Infrared_ADC_SAR_CTRL_REG |= Infrared_ADC_DEFAULT_CTRL_REG_CFG | 
  49              		.loc 1 178 0
  50 001c 002B     		cmp	r3, #0
  51 001e 01DA     		bge	.L5
  52 0020 2149     		ldr	r1, .L6+12
  53 0022 00E0     		b	.L2
  54              	.L5:
  55 0024 2149     		ldr	r1, .L6+16
  56              	.L2:
 178:.\Generated_Source\PSoC4/Infrared_ADC.c ****     Infrared_ADC_SAR_CTRL_REG |= Infrared_ADC_DEFAULT_CTRL_REG_CFG | 
  57              		.loc 1 178 0 is_stmt 0 discriminator 4
  58 0026 224A     		ldr	r2, .L6+20
  59 0028 1368     		ldr	r3, [r2]
  60 002a 0B43     		orr	r3, r1
  61 002c 1360     		str	r3, [r2]
 181:.\Generated_Source\PSoC4/Infrared_ADC.c ****         Infrared_ADC_BOOSTPUMP_EN : 0u);
 182:.\Generated_Source\PSoC4/Infrared_ADC.c ****     Infrared_ADC_SAR_SAMPLE_CTRL_REG = Infrared_ADC_DEFAULT_SAMPLE_CTRL_REG_CFG;
  62              		.loc 1 182 0 is_stmt 1 discriminator 4
  63 002e 214A     		ldr	r2, .L6+24
  64 0030 214B     		ldr	r3, .L6+28
  65 0032 1A60     		str	r2, [r3]
 183:.\Generated_Source\PSoC4/Infrared_ADC.c ****     Infrared_ADC_SAR_RANGE_THRES_REG = Infrared_ADC_DEFAULT_RANGE_THRES_REG_CFG;
  66              		.loc 1 183 0 discriminator 4
  67 0034 214A     		ldr	r2, .L6+32
  68 0036 224B     		ldr	r3, .L6+36
  69 0038 1A60     		str	r2, [r3]
 184:.\Generated_Source\PSoC4/Infrared_ADC.c ****     Infrared_ADC_SAR_RANGE_COND_REG  = Infrared_ADC_COMPARE_MODE;
  70              		.loc 1 184 0 discriminator 4
  71 003a 0023     		mov	r3, #0
  72 003c 214A     		ldr	r2, .L6+40
  73 003e 1360     		str	r3, [r2]
 185:.\Generated_Source\PSoC4/Infrared_ADC.c ****     Infrared_ADC_SAR_SAMPLE_TIME01_REG = Infrared_ADC_DEFAULT_SAMPLE_TIME01_REG_CFG;
  74              		.loc 1 185 0 discriminator 4
  75 0040 214A     		ldr	r2, .L6+44
  76 0042 2249     		ldr	r1, .L6+48
  77 0044 0A60     		str	r2, [r1]
 186:.\Generated_Source\PSoC4/Infrared_ADC.c ****     Infrared_ADC_SAR_SAMPLE_TIME23_REG = Infrared_ADC_DEFAULT_SAMPLE_TIME23_REG_CFG;
  78              		.loc 1 186 0 discriminator 4
  79 0046 2249     		ldr	r1, .L6+52
  80 0048 0A60     		str	r2, [r1]
 187:.\Generated_Source\PSoC4/Infrared_ADC.c ****     
 188:.\Generated_Source\PSoC4/Infrared_ADC.c ****     /* Connect Vm to VSSA when even one channel is single-ended or multiple channels configured */
 189:.\Generated_Source\PSoC4/Infrared_ADC.c ****     #if(Infrared_ADC_DEFAULT_MUX_SWITCH0 != 0u)
 190:.\Generated_Source\PSoC4/Infrared_ADC.c ****         Infrared_ADC_MUX_SWITCH0_REG |= Infrared_ADC_DEFAULT_MUX_SWITCH0;
  81              		.loc 1 190 0 discriminator 4
  82 004a 2249     		ldr	r1, .L6+56
  83 004c 0A68     		ldr	r2, [r1]
  84 004e 8020     		mov	r0, #128
  85 0050 4002     		lsl	r0, r0, #9
  86 0052 0243     		orr	r2, r0
  87 0054 0A60     		str	r2, [r1]
 191:.\Generated_Source\PSoC4/Infrared_ADC.c ****         /* Set MUX_HW_CTRL_VSSA in MUX_SWITCH_HW_CTRL when multiple channels enabled */
 192:.\Generated_Source\PSoC4/Infrared_ADC.c ****         #if(Infrared_ADC_TOTAL_CHANNELS_NUM > 1u)
 193:.\Generated_Source\PSoC4/Infrared_ADC.c ****             Infrared_ADC_MUX_SWITCH_HW_CTRL_REG |= Infrared_ADC_DEFAULT_MUX_SWITCH0;
 194:.\Generated_Source\PSoC4/Infrared_ADC.c ****         #endif /* Infrared_ADC_TOTAL_CHANNELS_NUM > 1u */
 195:.\Generated_Source\PSoC4/Infrared_ADC.c ****     #endif /*Infrared_ADC_CHANNELS_MODE !=0 */
 196:.\Generated_Source\PSoC4/Infrared_ADC.c **** 
ARM GAS  C:\Users\Tim\AppData\Local\Temp\ccLA4eUz.s 			page 6


 197:.\Generated_Source\PSoC4/Infrared_ADC.c ****     Infrared_ADC_SAR_SATURATE_INTR_MASK_REG = 0u;
  88              		.loc 1 197 0 discriminator 4
  89 0056 204A     		ldr	r2, .L6+60
  90 0058 1360     		str	r3, [r2]
 198:.\Generated_Source\PSoC4/Infrared_ADC.c ****     Infrared_ADC_SAR_RANGE_INTR_MASK_REG = 0u;
  91              		.loc 1 198 0 discriminator 4
  92 005a 204A     		ldr	r2, .L6+64
  93 005c 1360     		str	r3, [r2]
 199:.\Generated_Source\PSoC4/Infrared_ADC.c ****     Infrared_ADC_SAR_INTR_MASK_REG = Infrared_ADC_SAR_INTR_MASK;
  94              		.loc 1 199 0 discriminator 4
  95 005e 0122     		mov	r2, #1
  96 0060 1F4B     		ldr	r3, .L6+68
  97 0062 1A60     		str	r2, [r3]
 200:.\Generated_Source\PSoC4/Infrared_ADC.c **** 
 201:.\Generated_Source\PSoC4/Infrared_ADC.c ****     #if(Infrared_ADC_CY_SAR_IP_VER == Infrared_ADC_CY_SAR_IP_VER0)
 202:.\Generated_Source\PSoC4/Infrared_ADC.c ****         Infrared_ADC_ANA_TRIM_REG = Infrared_ADC_TRIM_COEF;
 203:.\Generated_Source\PSoC4/Infrared_ADC.c ****     #endif /* (Infrared_ADC_CY_SAR_IP_VER == Infrared_ADC_CY_SAR_IP_VER0) */
 204:.\Generated_Source\PSoC4/Infrared_ADC.c **** 
 205:.\Generated_Source\PSoC4/Infrared_ADC.c ****     /* Read and modify default configuration based on characterization */
 206:.\Generated_Source\PSoC4/Infrared_ADC.c ****     tmpRegVal = Infrared_ADC_SAR_DFT_CTRL_REG;
  98              		.loc 1 206 0 discriminator 4
  99 0064 1F4A     		ldr	r2, .L6+72
 100 0066 1168     		ldr	r1, [r2]
 101              	.LVL2:
 207:.\Generated_Source\PSoC4/Infrared_ADC.c ****     tmpRegVal &= (uint32)~Infrared_ADC_DCEN;
 208:.\Generated_Source\PSoC4/Infrared_ADC.c ****     
 209:.\Generated_Source\PSoC4/Infrared_ADC.c ****     #if(Infrared_ADC_CY_SAR_IP_VER == Infrared_ADC_CY_SAR_IP_VER0)
 210:.\Generated_Source\PSoC4/Infrared_ADC.c ****         #if(Infrared_ADC_NOMINAL_CLOCK_FREQ > (Infrared_ADC_MAX_FREQUENCY / 2))
 211:.\Generated_Source\PSoC4/Infrared_ADC.c ****             tmpRegVal |= Infrared_ADC_SEL_CSEL_DFT_CHAR;
 212:.\Generated_Source\PSoC4/Infrared_ADC.c ****         #else  /* clock speed < 9 Mhz */
 213:.\Generated_Source\PSoC4/Infrared_ADC.c ****             tmpRegVal |= Infrared_ADC_DLY_INC;
 214:.\Generated_Source\PSoC4/Infrared_ADC.c ****         #endif /* clock speed > 9 Mhz */
 215:.\Generated_Source\PSoC4/Infrared_ADC.c ****     #else
 216:.\Generated_Source\PSoC4/Infrared_ADC.c ****         #if ((Infrared_ADC_DEFAULT_VREF_SEL == Infrared_ADC__INTERNAL1024) || \
 217:.\Generated_Source\PSoC4/Infrared_ADC.c ****              (Infrared_ADC_DEFAULT_VREF_SEL == Infrared_ADC__INTERNALVREF))
 218:.\Generated_Source\PSoC4/Infrared_ADC.c ****             tmpRegVal |= Infrared_ADC_DLY_INC;
 219:.\Generated_Source\PSoC4/Infrared_ADC.c ****         #else
 220:.\Generated_Source\PSoC4/Infrared_ADC.c ****             tmpRegVal |= Infrared_ADC_DCEN;
 221:.\Generated_Source\PSoC4/Infrared_ADC.c ****             tmpRegVal &= (uint32)~Infrared_ADC_DLY_INC;
 102              		.loc 1 221 0 discriminator 4
 103 0068 1F4B     		ldr	r3, .L6+76
 104 006a 0B40     		and	r3, r1
 105 006c 8021     		mov	r1, #128
 106              	.LVL3:
 107 006e 8905     		lsl	r1, r1, #22
 108 0070 0B43     		orr	r3, r1
 109              	.LVL4:
 222:.\Generated_Source\PSoC4/Infrared_ADC.c ****         #endif /* ((Infrared_ADC_DEFAULT_VREF_SEL == Infrared_ADC__INTERNAL1024) || \
 223:.\Generated_Source\PSoC4/Infrared_ADC.c ****                    (Infrared_ADC_DEFAULT_VREF_SEL == Infrared_ADC__INTERNALVREF)) */
 224:.\Generated_Source\PSoC4/Infrared_ADC.c ****     #endif /* (Infrared_ADC_CY_SAR_IP_VER == Infrared_ADC_CY_SAR_IP_VER0) */
 225:.\Generated_Source\PSoC4/Infrared_ADC.c ****     
 226:.\Generated_Source\PSoC4/Infrared_ADC.c ****     Infrared_ADC_SAR_DFT_CTRL_REG = tmpRegVal;
 110              		.loc 1 226 0 discriminator 4
 111 0072 1360     		str	r3, [r2]
 112              	.LVL5:
 227:.\Generated_Source\PSoC4/Infrared_ADC.c **** 
 228:.\Generated_Source\PSoC4/Infrared_ADC.c ****     #if(Infrared_ADC_MAX_RESOLUTION != Infrared_ADC_RESOLUTION_12)
ARM GAS  C:\Users\Tim\AppData\Local\Temp\ccLA4eUz.s 			page 7


 229:.\Generated_Source\PSoC4/Infrared_ADC.c ****         Infrared_ADC_WOUNDING_REG = Infrared_ADC_ALT_WOUNDING;
 230:.\Generated_Source\PSoC4/Infrared_ADC.c ****     #endif /* Infrared_ADC_MAX_RESOLUTION != Infrared_ADC_RESOLUTION_12 */
 231:.\Generated_Source\PSoC4/Infrared_ADC.c **** 
 232:.\Generated_Source\PSoC4/Infrared_ADC.c ****     for(chNum = 0u; chNum < Infrared_ADC_TOTAL_CHANNELS_NUM; chNum++)
 113              		.loc 1 232 0 discriminator 4
 114 0074 0023     		mov	r3, #0
 115              	.LVL6:
 116 0076 0EE0     		b	.L3
 117              	.LVL7:
 118              	.L4:
 233:.\Generated_Source\PSoC4/Infrared_ADC.c ****     {
 234:.\Generated_Source\PSoC4/Infrared_ADC.c ****         tmpRegVal = (Infrared_ADC_channelsConfig[chNum] & Infrared_ADC_CHANNEL_CONFIG_MASK);
 235:.\Generated_Source\PSoC4/Infrared_ADC.c ****         #if(Infrared_ADC_TOTAL_CHANNELS_NUM > 1u)
 236:.\Generated_Source\PSoC4/Infrared_ADC.c ****             tmpRegVal |= Infrared_ADC_InputsPlacement[chNum];
 237:.\Generated_Source\PSoC4/Infrared_ADC.c ****         #endif /* End Infrared_ADC_TOTAL_CHANNELS_NUM > 1u */
 238:.\Generated_Source\PSoC4/Infrared_ADC.c ****         
 239:.\Generated_Source\PSoC4/Infrared_ADC.c ****         
 240:.\Generated_Source\PSoC4/Infrared_ADC.c ****         /* When the part is limited to 10-bit then the SUB_RESOLUTION bit
 241:.\Generated_Source\PSoC4/Infrared_ADC.c ****         *  will be ignored and the RESOLUTION bit selects between 10-bit
 242:.\Generated_Source\PSoC4/Infrared_ADC.c ****         *  (0) and 8-bit (1) resolution.
 243:.\Generated_Source\PSoC4/Infrared_ADC.c ****         */
 244:.\Generated_Source\PSoC4/Infrared_ADC.c ****         #if((Infrared_ADC_MAX_RESOLUTION != Infrared_ADC_RESOLUTION_12) && \
 245:.\Generated_Source\PSoC4/Infrared_ADC.c ****             (Infrared_ADC_ALT_WOUNDING == Infrared_ADC_WOUNDING_10BIT))
 246:.\Generated_Source\PSoC4/Infrared_ADC.c ****             tmpRegVal &= (uint32)(~Infrared_ADC_ALT_RESOLUTION_ON);
 247:.\Generated_Source\PSoC4/Infrared_ADC.c ****         #endif /* Infrared_ADC_MAX_RESOLUTION != Infrared_ADC_RESOLUTION_12 */
 248:.\Generated_Source\PSoC4/Infrared_ADC.c **** 
 249:.\Generated_Source\PSoC4/Infrared_ADC.c ****         #if(Infrared_ADC_INJ_CHANNEL_ENABLED)
 250:.\Generated_Source\PSoC4/Infrared_ADC.c ****         if(chNum < Infrared_ADC_SEQUENCED_CHANNELS_NUM)
 251:.\Generated_Source\PSoC4/Infrared_ADC.c ****         #endif /* Infrared_ADC_INJ_CHANNEL_ENABLED */
 252:.\Generated_Source\PSoC4/Infrared_ADC.c ****         {
 253:.\Generated_Source\PSoC4/Infrared_ADC.c ****             CY_SET_REG32((reg32 *)(Infrared_ADC_SAR_CHAN_CONFIG_IND + (uint32)(chNum << 2)), tmpReg
 119              		.loc 1 253 0
 120 0078 9A00     		lsl	r2, r3, #2
 121 007a 1C49     		ldr	r1, .L6+80
 122 007c 8C46     		mov	ip, r1
 123 007e 6244     		add	r2, r2, ip
 124 0080 0021     		mov	r1, #0
 125 0082 1160     		str	r1, [r2]
 126              	.LVL8:
 254:.\Generated_Source\PSoC4/Infrared_ADC.c **** 
 255:.\Generated_Source\PSoC4/Infrared_ADC.c ****             if((Infrared_ADC_channelsConfig[chNum] & Infrared_ADC_IS_SATURATE_EN_MASK) != 0u)
 256:.\Generated_Source\PSoC4/Infrared_ADC.c ****             {
 257:.\Generated_Source\PSoC4/Infrared_ADC.c ****                 Infrared_ADC_SAR_SATURATE_INTR_MASK_REG |= (uint16)((uint16)1 << chNum);
 258:.\Generated_Source\PSoC4/Infrared_ADC.c ****             }
 259:.\Generated_Source\PSoC4/Infrared_ADC.c **** 
 260:.\Generated_Source\PSoC4/Infrared_ADC.c ****             if((Infrared_ADC_channelsConfig[chNum] & Infrared_ADC_IS_RANGE_CTRL_EN_MASK) != 0u)
 261:.\Generated_Source\PSoC4/Infrared_ADC.c ****             {
 262:.\Generated_Source\PSoC4/Infrared_ADC.c ****                 Infrared_ADC_SAR_RANGE_INTR_MASK_REG |= (uint16)((uint16)1 << chNum);
 263:.\Generated_Source\PSoC4/Infrared_ADC.c ****             }
 264:.\Generated_Source\PSoC4/Infrared_ADC.c ****         }
 265:.\Generated_Source\PSoC4/Infrared_ADC.c ****         #if(Infrared_ADC_INJ_CHANNEL_ENABLED)
 266:.\Generated_Source\PSoC4/Infrared_ADC.c ****             else
 267:.\Generated_Source\PSoC4/Infrared_ADC.c ****             {
 268:.\Generated_Source\PSoC4/Infrared_ADC.c ****                 CY_SET_REG32(Infrared_ADC_SAR_INJ_CHAN_CONFIG_PTR, tmpRegVal | Infrared_ADC_INJ_TAI
 269:.\Generated_Source\PSoC4/Infrared_ADC.c **** 
 270:.\Generated_Source\PSoC4/Infrared_ADC.c ****                 if((Infrared_ADC_channelsConfig[chNum] & Infrared_ADC_IS_SATURATE_EN_MASK) != 0u)
 271:.\Generated_Source\PSoC4/Infrared_ADC.c ****                 {
ARM GAS  C:\Users\Tim\AppData\Local\Temp\ccLA4eUz.s 			page 8


 272:.\Generated_Source\PSoC4/Infrared_ADC.c ****                     Infrared_ADC_SAR_INTR_MASK_REG |= Infrared_ADC_INJ_SATURATE_MASK;
 273:.\Generated_Source\PSoC4/Infrared_ADC.c ****                 }
 274:.\Generated_Source\PSoC4/Infrared_ADC.c **** 
 275:.\Generated_Source\PSoC4/Infrared_ADC.c ****                 if((Infrared_ADC_channelsConfig[chNum] & Infrared_ADC_IS_RANGE_CTRL_EN_MASK) != 0u)
 276:.\Generated_Source\PSoC4/Infrared_ADC.c ****                 {
 277:.\Generated_Source\PSoC4/Infrared_ADC.c ****                     Infrared_ADC_SAR_INTR_MASK_REG |= Infrared_ADC_INJ_RANGE_MASK;
 278:.\Generated_Source\PSoC4/Infrared_ADC.c ****                 }
 279:.\Generated_Source\PSoC4/Infrared_ADC.c ****             }
 280:.\Generated_Source\PSoC4/Infrared_ADC.c ****         #endif /* Infrared_ADC_INJ_CHANNEL_ENABLED */
 281:.\Generated_Source\PSoC4/Infrared_ADC.c **** 
 282:.\Generated_Source\PSoC4/Infrared_ADC.c ****         if((Infrared_ADC_channelsConfig[chNum] & Infrared_ADC_ALT_RESOLUTION_ON) != 0u)
 283:.\Generated_Source\PSoC4/Infrared_ADC.c ****         {
 284:.\Generated_Source\PSoC4/Infrared_ADC.c ****                counts = (int32)Infrared_ADC_DEFAULT_MAX_WRK_ALT;
 285:.\Generated_Source\PSoC4/Infrared_ADC.c ****         }
 286:.\Generated_Source\PSoC4/Infrared_ADC.c ****         else
 287:.\Generated_Source\PSoC4/Infrared_ADC.c ****         {
 288:.\Generated_Source\PSoC4/Infrared_ADC.c ****                counts = (int32)Infrared_ADC_SAR_WRK_MAX_12BIT;
 289:.\Generated_Source\PSoC4/Infrared_ADC.c ****         }
 290:.\Generated_Source\PSoC4/Infrared_ADC.c **** 
 291:.\Generated_Source\PSoC4/Infrared_ADC.c ****         if((Infrared_ADC_channelsConfig[chNum] & Infrared_ADC_DIFFERENTIAL_EN) == 0u)
 292:.\Generated_Source\PSoC4/Infrared_ADC.c ****         {
 293:.\Generated_Source\PSoC4/Infrared_ADC.c ****             #if((Infrared_ADC_DEFAULT_SE_RESULT_FORMAT_SEL == Infrared_ADC__FSIGNED) && \
 294:.\Generated_Source\PSoC4/Infrared_ADC.c ****                 (Infrared_ADC_DEFAULT_NEG_INPUT_SEL == Infrared_ADC__VREF))
 295:.\Generated_Source\PSoC4/Infrared_ADC.c ****                 /* Set offset to the minus half scale to convert results to unsigned format */
 296:.\Generated_Source\PSoC4/Infrared_ADC.c ****                 Infrared_ADC_offset[chNum] = (int16)(counts / -2);
 297:.\Generated_Source\PSoC4/Infrared_ADC.c ****             #else
 298:.\Generated_Source\PSoC4/Infrared_ADC.c ****                 Infrared_ADC_offset[chNum] = 0;
 127              		.loc 1 298 0
 128 0084 5800     		lsl	r0, r3, #1
 129 0086 1A4A     		ldr	r2, .L6+84
 130 0088 8152     		strh	r1, [r0, r2]
 299:.\Generated_Source\PSoC4/Infrared_ADC.c ****             #endif /* end DEFAULT_SE_RESULT_FORMAT_SEL == Infrared_ADC__FSIGNED */
 300:.\Generated_Source\PSoC4/Infrared_ADC.c ****         }
 301:.\Generated_Source\PSoC4/Infrared_ADC.c ****         else    /* Differential channel */
 302:.\Generated_Source\PSoC4/Infrared_ADC.c ****         {
 303:.\Generated_Source\PSoC4/Infrared_ADC.c ****             #if(Infrared_ADC_DEFAULT_DIFF_RESULT_FORMAT_SEL == Infrared_ADC__FUNSIGNED)
 304:.\Generated_Source\PSoC4/Infrared_ADC.c ****                 /* Set offset to the half scale to convert results to signed format */
 305:.\Generated_Source\PSoC4/Infrared_ADC.c ****                 Infrared_ADC_offset[chNum] = (int16)(counts / 2);
 306:.\Generated_Source\PSoC4/Infrared_ADC.c ****             #else
 307:.\Generated_Source\PSoC4/Infrared_ADC.c ****                 Infrared_ADC_offset[chNum] = 0;
 308:.\Generated_Source\PSoC4/Infrared_ADC.c ****             #endif /* end Infrared_ADC_DEFAULT_DIFF_RESULT_FORMAT_SEL == Infrared_ADC__FUNSIGNED */
 309:.\Generated_Source\PSoC4/Infrared_ADC.c ****         }
 310:.\Generated_Source\PSoC4/Infrared_ADC.c ****         /* Calculate gain in counts per 10 volts with rounding */
 311:.\Generated_Source\PSoC4/Infrared_ADC.c ****         Infrared_ADC_countsPer10Volt[chNum] = (int16)(((counts * Infrared_ADC_10MV_COUNTS) +
 131              		.loc 1 311 0
 132 008a 9900     		lsl	r1, r3, #2
 133 008c 8020     		mov	r0, #128
 134 008e 8001     		lsl	r0, r0, #6
 135 0090 184A     		ldr	r2, .L6+88
 136 0092 8850     		str	r0, [r1, r2]
 232:.\Generated_Source\PSoC4/Infrared_ADC.c ****     {
 137              		.loc 1 232 0
 138 0094 0133     		add	r3, r3, #1
 139              	.LVL9:
 140              	.L3:
 232:.\Generated_Source\PSoC4/Infrared_ADC.c ****     {
 141              		.loc 1 232 0 is_stmt 0 discriminator 1
ARM GAS  C:\Users\Tim\AppData\Local\Temp\ccLA4eUz.s 			page 9


 142 0096 002B     		cmp	r3, #0
 143 0098 EED0     		beq	.L4
 312:.\Generated_Source\PSoC4/Infrared_ADC.c ****                             Infrared_ADC_DEFAULT_VREF_MV_VALUE) / (Infrared_ADC_DEFAULT_VREF_MV_VAL
 313:.\Generated_Source\PSoC4/Infrared_ADC.c ****     }
 314:.\Generated_Source\PSoC4/Infrared_ADC.c **** }
 144              		.loc 1 314 0 is_stmt 1
 145              		@ sp needed
 146 009a 08BD     		pop	{r3, pc}
 147              	.L7:
 148              		.align	2
 149              	.L6:
 150 009c 00000000 		.word	Infrared_ADC_ISR
 151 00a0 20003A40 		.word	1077542944
 152 00a4 80033A40 		.word	1077543808
 153 00a8 50021050 		.word	1343226448
 154 00ac 50020050 		.word	1342177872
 155 00b0 00003A40 		.word	1077542912
 156 00b4 8C000080 		.word	-2147483508
 157 00b8 04003A40 		.word	1077542916
 158 00bc 0000FF07 		.word	134152192
 159 00c0 18003A40 		.word	1077542936
 160 00c4 1C003A40 		.word	1077542940
 161 00c8 04000400 		.word	262148
 162 00cc 10003A40 		.word	1077542928
 163 00d0 14003A40 		.word	1077542932
 164 00d4 00033A40 		.word	1077543680
 165 00d8 28023A40 		.word	1077543464
 166 00dc 38023A40 		.word	1077543480
 167 00e0 18023A40 		.word	1077543448
 168 00e4 30003A40 		.word	1077542960
 169 00e8 FEFFFFDF 		.word	-536870914
 170 00ec 80003A40 		.word	1077543040
 171 00f0 00000000 		.word	Infrared_ADC_offset
 172 00f4 00000000 		.word	Infrared_ADC_countsPer10Volt
 173              		.cfi_endproc
 174              	.LFE3:
 175              		.size	Infrared_ADC_Init, .-Infrared_ADC_Init
 176              		.section	.text.Infrared_ADC_Enable,"ax",%progbits
 177              		.align	2
 178              		.global	Infrared_ADC_Enable
 179              		.code	16
 180              		.thumb_func
 181              		.type	Infrared_ADC_Enable, %function
 182              	Infrared_ADC_Enable:
 183              	.LFB4:
 315:.\Generated_Source\PSoC4/Infrared_ADC.c **** 
 316:.\Generated_Source\PSoC4/Infrared_ADC.c **** /*******************************************************************************
 317:.\Generated_Source\PSoC4/Infrared_ADC.c **** * Function Name: ADC_SAR_1_Enable
 318:.\Generated_Source\PSoC4/Infrared_ADC.c **** ********************************************************************************
 319:.\Generated_Source\PSoC4/Infrared_ADC.c **** *
 320:.\Generated_Source\PSoC4/Infrared_ADC.c **** * Summary:
 321:.\Generated_Source\PSoC4/Infrared_ADC.c **** *  Enables the clock and analog power for SAR ADC.
 322:.\Generated_Source\PSoC4/Infrared_ADC.c **** *
 323:.\Generated_Source\PSoC4/Infrared_ADC.c **** * Parameters:
 324:.\Generated_Source\PSoC4/Infrared_ADC.c **** *  None.
 325:.\Generated_Source\PSoC4/Infrared_ADC.c **** *
 326:.\Generated_Source\PSoC4/Infrared_ADC.c **** * Return:
ARM GAS  C:\Users\Tim\AppData\Local\Temp\ccLA4eUz.s 			page 10


 327:.\Generated_Source\PSoC4/Infrared_ADC.c **** *  None.
 328:.\Generated_Source\PSoC4/Infrared_ADC.c **** *
 329:.\Generated_Source\PSoC4/Infrared_ADC.c **** *******************************************************************************/
 330:.\Generated_Source\PSoC4/Infrared_ADC.c **** void Infrared_ADC_Enable(void)
 331:.\Generated_Source\PSoC4/Infrared_ADC.c **** {
 184              		.loc 1 331 0
 185              		.cfi_startproc
 186 0000 08B5     		push	{r3, lr}
 187              		.cfi_def_cfa_offset 8
 188              		.cfi_offset 3, -8
 189              		.cfi_offset 14, -4
 332:.\Generated_Source\PSoC4/Infrared_ADC.c ****     if (0u == (Infrared_ADC_SAR_CTRL_REG & Infrared_ADC_ENABLE))
 190              		.loc 1 332 0
 191 0002 094B     		ldr	r3, .L11
 192 0004 1B68     		ldr	r3, [r3]
 193 0006 002B     		cmp	r3, #0
 194 0008 0CDB     		blt	.L8
 195              	.L10:
 333:.\Generated_Source\PSoC4/Infrared_ADC.c ****     {
 334:.\Generated_Source\PSoC4/Infrared_ADC.c ****         #if(Infrared_ADC_CY_SAR_IP_VER != Infrared_ADC_CY_SAR_IP_VER0)
 335:.\Generated_Source\PSoC4/Infrared_ADC.c **** 
 336:.\Generated_Source\PSoC4/Infrared_ADC.c ****             while (0u != (Infrared_ADC_SAR_STATUS_REG & Infrared_ADC_STATUS_BUSY))
 196              		.loc 1 336 0 discriminator 1
 197 000a 084B     		ldr	r3, .L11+4
 198 000c 1B68     		ldr	r3, [r3]
 199 000e 002B     		cmp	r3, #0
 200 0010 FBDB     		blt	.L10
 337:.\Generated_Source\PSoC4/Infrared_ADC.c ****             {
 338:.\Generated_Source\PSoC4/Infrared_ADC.c ****                 /* wait for SAR to go idle to avoid deadlock */
 339:.\Generated_Source\PSoC4/Infrared_ADC.c ****             }
 340:.\Generated_Source\PSoC4/Infrared_ADC.c ****         #endif /* (Infrared_ADC_CY_SAR_IP_VER != Infrared_ADC_CY_SAR_IP_VER0) */
 341:.\Generated_Source\PSoC4/Infrared_ADC.c ****         
 342:.\Generated_Source\PSoC4/Infrared_ADC.c ****         Infrared_ADC_SAR_CTRL_REG |= Infrared_ADC_ENABLE;
 201              		.loc 1 342 0
 202 0012 054A     		ldr	r2, .L11
 203 0014 1368     		ldr	r3, [r2]
 204 0016 8021     		mov	r1, #128
 205 0018 0906     		lsl	r1, r1, #24
 206 001a 0B43     		orr	r3, r1
 207 001c 1360     		str	r3, [r2]
 343:.\Generated_Source\PSoC4/Infrared_ADC.c ****         
 344:.\Generated_Source\PSoC4/Infrared_ADC.c ****         /* The block is ready to use 10 us after the enable signal is set high. */
 345:.\Generated_Source\PSoC4/Infrared_ADC.c ****         CyDelayUs(Infrared_ADC_10US_DELAY);         
 208              		.loc 1 345 0
 209 001e 0A20     		mov	r0, #10
 210 0020 FFF7FEFF 		bl	CyDelayUs
 211              	.LVL10:
 212              	.L8:
 346:.\Generated_Source\PSoC4/Infrared_ADC.c ****     }
 347:.\Generated_Source\PSoC4/Infrared_ADC.c **** }
 213              		.loc 1 347 0
 214              		@ sp needed
 215 0024 08BD     		pop	{r3, pc}
 216              	.L12:
 217 0026 C046     		.align	2
 218              	.L11:
 219 0028 00003A40 		.word	1077542912
ARM GAS  C:\Users\Tim\AppData\Local\Temp\ccLA4eUz.s 			page 11


 220 002c 08023A40 		.word	1077543432
 221              		.cfi_endproc
 222              	.LFE4:
 223              		.size	Infrared_ADC_Enable, .-Infrared_ADC_Enable
 224              		.section	.text.Infrared_ADC_Start,"ax",%progbits
 225              		.align	2
 226              		.global	Infrared_ADC_Start
 227              		.code	16
 228              		.thumb_func
 229              		.type	Infrared_ADC_Start, %function
 230              	Infrared_ADC_Start:
 231              	.LFB2:
  64:.\Generated_Source\PSoC4/Infrared_ADC.c ****     /* If not Initialized then initialize all required hardware and software */
 232              		.loc 1 64 0
 233              		.cfi_startproc
 234 0000 08B5     		push	{r3, lr}
 235              		.cfi_def_cfa_offset 8
 236              		.cfi_offset 3, -8
 237              		.cfi_offset 14, -4
  66:.\Generated_Source\PSoC4/Infrared_ADC.c ****     {
 238              		.loc 1 66 0
 239 0002 064B     		ldr	r3, .L15
 240 0004 1B78     		ldrb	r3, [r3]
 241 0006 002B     		cmp	r3, #0
 242 0008 04D1     		bne	.L14
  68:.\Generated_Source\PSoC4/Infrared_ADC.c ****         Infrared_ADC_initVar = 1u;
 243              		.loc 1 68 0
 244 000a FFF7FEFF 		bl	Infrared_ADC_Init
 245              	.LVL11:
  69:.\Generated_Source\PSoC4/Infrared_ADC.c ****     }
 246              		.loc 1 69 0
 247 000e 0122     		mov	r2, #1
 248 0010 024B     		ldr	r3, .L15
 249 0012 1A70     		strb	r2, [r3]
 250              	.L14:
  71:.\Generated_Source\PSoC4/Infrared_ADC.c **** }
 251              		.loc 1 71 0
 252 0014 FFF7FEFF 		bl	Infrared_ADC_Enable
 253              	.LVL12:
  72:.\Generated_Source\PSoC4/Infrared_ADC.c **** 
 254              		.loc 1 72 0
 255              		@ sp needed
 256 0018 08BD     		pop	{r3, pc}
 257              	.L16:
 258 001a C046     		.align	2
 259              	.L15:
 260 001c 00000000 		.word	.LANCHOR0
 261              		.cfi_endproc
 262              	.LFE2:
 263              		.size	Infrared_ADC_Start, .-Infrared_ADC_Start
 264              		.section	.text.Infrared_ADC_Stop,"ax",%progbits
 265              		.align	2
 266              		.global	Infrared_ADC_Stop
 267              		.code	16
 268              		.thumb_func
 269              		.type	Infrared_ADC_Stop, %function
 270              	Infrared_ADC_Stop:
ARM GAS  C:\Users\Tim\AppData\Local\Temp\ccLA4eUz.s 			page 12


 271              	.LFB5:
 348:.\Generated_Source\PSoC4/Infrared_ADC.c **** 
 349:.\Generated_Source\PSoC4/Infrared_ADC.c **** 
 350:.\Generated_Source\PSoC4/Infrared_ADC.c **** /*******************************************************************************
 351:.\Generated_Source\PSoC4/Infrared_ADC.c **** * Function Name: Infrared_ADC_Stop
 352:.\Generated_Source\PSoC4/Infrared_ADC.c **** ********************************************************************************
 353:.\Generated_Source\PSoC4/Infrared_ADC.c **** *
 354:.\Generated_Source\PSoC4/Infrared_ADC.c **** * Summary:
 355:.\Generated_Source\PSoC4/Infrared_ADC.c **** *  This function stops ADC conversions and puts the ADC into its lowest power
 356:.\Generated_Source\PSoC4/Infrared_ADC.c **** *  mode.
 357:.\Generated_Source\PSoC4/Infrared_ADC.c **** *
 358:.\Generated_Source\PSoC4/Infrared_ADC.c **** * Parameters:
 359:.\Generated_Source\PSoC4/Infrared_ADC.c **** *  None.
 360:.\Generated_Source\PSoC4/Infrared_ADC.c **** *
 361:.\Generated_Source\PSoC4/Infrared_ADC.c **** * Return:
 362:.\Generated_Source\PSoC4/Infrared_ADC.c **** *  None.
 363:.\Generated_Source\PSoC4/Infrared_ADC.c **** *
 364:.\Generated_Source\PSoC4/Infrared_ADC.c **** *******************************************************************************/
 365:.\Generated_Source\PSoC4/Infrared_ADC.c **** void Infrared_ADC_Stop(void)
 366:.\Generated_Source\PSoC4/Infrared_ADC.c **** {
 272              		.loc 1 366 0
 273              		.cfi_startproc
 367:.\Generated_Source\PSoC4/Infrared_ADC.c ****     Infrared_ADC_SAR_CTRL_REG &= (uint32)~Infrared_ADC_ENABLE;
 274              		.loc 1 367 0
 275 0000 024A     		ldr	r2, .L18
 276 0002 1368     		ldr	r3, [r2]
 277 0004 5B00     		lsl	r3, r3, #1
 278 0006 5B08     		lsr	r3, r3, #1
 279 0008 1360     		str	r3, [r2]
 368:.\Generated_Source\PSoC4/Infrared_ADC.c **** }
 280              		.loc 1 368 0
 281              		@ sp needed
 282 000a 7047     		bx	lr
 283              	.L19:
 284              		.align	2
 285              	.L18:
 286 000c 00003A40 		.word	1077542912
 287              		.cfi_endproc
 288              	.LFE5:
 289              		.size	Infrared_ADC_Stop, .-Infrared_ADC_Stop
 290              		.section	.text.Infrared_ADC_StartConvert,"ax",%progbits
 291              		.align	2
 292              		.global	Infrared_ADC_StartConvert
 293              		.code	16
 294              		.thumb_func
 295              		.type	Infrared_ADC_StartConvert, %function
 296              	Infrared_ADC_StartConvert:
 297              	.LFB6:
 369:.\Generated_Source\PSoC4/Infrared_ADC.c **** 
 370:.\Generated_Source\PSoC4/Infrared_ADC.c **** 
 371:.\Generated_Source\PSoC4/Infrared_ADC.c **** /*******************************************************************************
 372:.\Generated_Source\PSoC4/Infrared_ADC.c **** * Function Name: Infrared_ADC_StartConvert
 373:.\Generated_Source\PSoC4/Infrared_ADC.c **** ********************************************************************************
 374:.\Generated_Source\PSoC4/Infrared_ADC.c **** *
 375:.\Generated_Source\PSoC4/Infrared_ADC.c **** * Summary:
 376:.\Generated_Source\PSoC4/Infrared_ADC.c **** *  Description:
 377:.\Generated_Source\PSoC4/Infrared_ADC.c **** *  For free running mode, this API starts the conversion process and it
ARM GAS  C:\Users\Tim\AppData\Local\Temp\ccLA4eUz.s 			page 13


 378:.\Generated_Source\PSoC4/Infrared_ADC.c **** *  runs continuously.
 379:.\Generated_Source\PSoC4/Infrared_ADC.c **** *
 380:.\Generated_Source\PSoC4/Infrared_ADC.c **** *  In a triggered mode, this routine triggers every conversion by
 381:.\Generated_Source\PSoC4/Infrared_ADC.c **** *  writing into the FW_TRIGGER bit in SAR_START_CTRL reg. In triggered mode,
 382:.\Generated_Source\PSoC4/Infrared_ADC.c **** *  every conversion has to start by this API.
 383:.\Generated_Source\PSoC4/Infrared_ADC.c **** *
 384:.\Generated_Source\PSoC4/Infrared_ADC.c **** * Parameters:
 385:.\Generated_Source\PSoC4/Infrared_ADC.c **** *  None.
 386:.\Generated_Source\PSoC4/Infrared_ADC.c **** *
 387:.\Generated_Source\PSoC4/Infrared_ADC.c **** * Return:
 388:.\Generated_Source\PSoC4/Infrared_ADC.c **** *  None.
 389:.\Generated_Source\PSoC4/Infrared_ADC.c **** *
 390:.\Generated_Source\PSoC4/Infrared_ADC.c **** *******************************************************************************/
 391:.\Generated_Source\PSoC4/Infrared_ADC.c **** void Infrared_ADC_StartConvert(void)
 392:.\Generated_Source\PSoC4/Infrared_ADC.c **** {
 298              		.loc 1 392 0
 299              		.cfi_startproc
 393:.\Generated_Source\PSoC4/Infrared_ADC.c ****     #if(Infrared_ADC_DEFAULT_SAMPLE_MODE_SEL == Infrared_ADC__FREERUNNING)
 394:.\Generated_Source\PSoC4/Infrared_ADC.c ****         Infrared_ADC_SAR_SAMPLE_CTRL_REG |= Infrared_ADC_CONTINUOUS_EN;
 300              		.loc 1 394 0
 301 0000 034A     		ldr	r2, .L21
 302 0002 1368     		ldr	r3, [r2]
 303 0004 8021     		mov	r1, #128
 304 0006 4902     		lsl	r1, r1, #9
 305 0008 0B43     		orr	r3, r1
 306 000a 1360     		str	r3, [r2]
 395:.\Generated_Source\PSoC4/Infrared_ADC.c ****     #else /* Firmware trigger */
 396:.\Generated_Source\PSoC4/Infrared_ADC.c ****         Infrared_ADC_SAR_START_CTRL_REG = Infrared_ADC_FW_TRIGGER;
 397:.\Generated_Source\PSoC4/Infrared_ADC.c ****     #endif /* End Infrared_ADC_DEFAULT_SAMPLE_MODE == Infrared_ADC__FREERUNNING */
 398:.\Generated_Source\PSoC4/Infrared_ADC.c **** 
 399:.\Generated_Source\PSoC4/Infrared_ADC.c **** }
 307              		.loc 1 399 0
 308              		@ sp needed
 309 000c 7047     		bx	lr
 310              	.L22:
 311 000e C046     		.align	2
 312              	.L21:
 313 0010 04003A40 		.word	1077542916
 314              		.cfi_endproc
 315              	.LFE6:
 316              		.size	Infrared_ADC_StartConvert, .-Infrared_ADC_StartConvert
 317              		.section	.text.Infrared_ADC_StopConvert,"ax",%progbits
 318              		.align	2
 319              		.global	Infrared_ADC_StopConvert
 320              		.code	16
 321              		.thumb_func
 322              		.type	Infrared_ADC_StopConvert, %function
 323              	Infrared_ADC_StopConvert:
 324              	.LFB7:
 400:.\Generated_Source\PSoC4/Infrared_ADC.c **** 
 401:.\Generated_Source\PSoC4/Infrared_ADC.c **** 
 402:.\Generated_Source\PSoC4/Infrared_ADC.c **** /*******************************************************************************
 403:.\Generated_Source\PSoC4/Infrared_ADC.c **** * Function Name: Infrared_ADC_StopConvert
 404:.\Generated_Source\PSoC4/Infrared_ADC.c **** ********************************************************************************
 405:.\Generated_Source\PSoC4/Infrared_ADC.c **** *
 406:.\Generated_Source\PSoC4/Infrared_ADC.c **** * Summary:
 407:.\Generated_Source\PSoC4/Infrared_ADC.c **** *  Forces the ADC to stop all conversions.
ARM GAS  C:\Users\Tim\AppData\Local\Temp\ccLA4eUz.s 			page 14


 408:.\Generated_Source\PSoC4/Infrared_ADC.c **** *
 409:.\Generated_Source\PSoC4/Infrared_ADC.c **** * Parameters:
 410:.\Generated_Source\PSoC4/Infrared_ADC.c **** *  None.
 411:.\Generated_Source\PSoC4/Infrared_ADC.c **** *
 412:.\Generated_Source\PSoC4/Infrared_ADC.c **** * Return:
 413:.\Generated_Source\PSoC4/Infrared_ADC.c **** *  None.
 414:.\Generated_Source\PSoC4/Infrared_ADC.c **** *
 415:.\Generated_Source\PSoC4/Infrared_ADC.c **** *******************************************************************************/
 416:.\Generated_Source\PSoC4/Infrared_ADC.c **** void Infrared_ADC_StopConvert(void)
 417:.\Generated_Source\PSoC4/Infrared_ADC.c **** {
 325              		.loc 1 417 0
 326              		.cfi_startproc
 418:.\Generated_Source\PSoC4/Infrared_ADC.c ****     #if(Infrared_ADC_DEFAULT_SAMPLE_MODE_SEL == Infrared_ADC__FREERUNNING)
 419:.\Generated_Source\PSoC4/Infrared_ADC.c ****         Infrared_ADC_SAR_SAMPLE_CTRL_REG &= (uint32)(~Infrared_ADC_CONTINUOUS_EN);
 327              		.loc 1 419 0
 328 0000 024A     		ldr	r2, .L24
 329 0002 1168     		ldr	r1, [r2]
 330 0004 024B     		ldr	r3, .L24+4
 331 0006 0B40     		and	r3, r1
 332 0008 1360     		str	r3, [r2]
 420:.\Generated_Source\PSoC4/Infrared_ADC.c ****     #endif /* Infrared_ADC_DEFAULT_SAMPLE_MODE == Infrared_ADC__FREERUNNING */
 421:.\Generated_Source\PSoC4/Infrared_ADC.c **** }
 333              		.loc 1 421 0
 334              		@ sp needed
 335 000a 7047     		bx	lr
 336              	.L25:
 337              		.align	2
 338              	.L24:
 339 000c 04003A40 		.word	1077542916
 340 0010 FFFFFEFF 		.word	-65537
 341              		.cfi_endproc
 342              	.LFE7:
 343              		.size	Infrared_ADC_StopConvert, .-Infrared_ADC_StopConvert
 344              		.section	.text.Infrared_ADC_IsEndConversion,"ax",%progbits
 345              		.align	2
 346              		.global	Infrared_ADC_IsEndConversion
 347              		.code	16
 348              		.thumb_func
 349              		.type	Infrared_ADC_IsEndConversion, %function
 350              	Infrared_ADC_IsEndConversion:
 351              	.LFB8:
 422:.\Generated_Source\PSoC4/Infrared_ADC.c **** 
 423:.\Generated_Source\PSoC4/Infrared_ADC.c **** 
 424:.\Generated_Source\PSoC4/Infrared_ADC.c **** /*******************************************************************************
 425:.\Generated_Source\PSoC4/Infrared_ADC.c **** * Function Name: Infrared_ADC_IsEndConversion
 426:.\Generated_Source\PSoC4/Infrared_ADC.c **** ********************************************************************************
 427:.\Generated_Source\PSoC4/Infrared_ADC.c **** *
 428:.\Generated_Source\PSoC4/Infrared_ADC.c **** * Summary:
 429:.\Generated_Source\PSoC4/Infrared_ADC.c **** *  Description: Checks for ADC end of conversion for the case one
 430:.\Generated_Source\PSoC4/Infrared_ADC.c **** *  channel and end of scan for the case of multiple channels. It acts
 431:.\Generated_Source\PSoC4/Infrared_ADC.c **** *  as a software version of the EOC. This function provides the
 432:.\Generated_Source\PSoC4/Infrared_ADC.c **** *  programmer with two options. In one mode this function
 433:.\Generated_Source\PSoC4/Infrared_ADC.c **** *  immediately returns with the conversion status. In the other mode,
 434:.\Generated_Source\PSoC4/Infrared_ADC.c **** *  the function does not return (blocking) until the conversion has
 435:.\Generated_Source\PSoC4/Infrared_ADC.c **** *  completed.
 436:.\Generated_Source\PSoC4/Infrared_ADC.c **** *
 437:.\Generated_Source\PSoC4/Infrared_ADC.c **** * Parameters:
ARM GAS  C:\Users\Tim\AppData\Local\Temp\ccLA4eUz.s 			page 15


 438:.\Generated_Source\PSoC4/Infrared_ADC.c **** *  ADC_RETURN_STATUS        -> Immediately returns conversion result status
 439:.\Generated_Source\PSoC4/Infrared_ADC.c **** *  ADC_WAIT_FOR_RESULT      -> Does not return until ADC complete
 440:.\Generated_Source\PSoC4/Infrared_ADC.c **** *  ADC_RETURN_STATUS_INJ    -> Immediately returns conversion result status
 441:.\Generated_Source\PSoC4/Infrared_ADC.c **** *                              for injection channel
 442:.\Generated_Source\PSoC4/Infrared_ADC.c **** *  ADC_WAIT_FOR_RESULT_INJ  -> Does not return until ADC completes injection
 443:.\Generated_Source\PSoC4/Infrared_ADC.c **** *                              channel conversion
 444:.\Generated_Source\PSoC4/Infrared_ADC.c **** *
 445:.\Generated_Source\PSoC4/Infrared_ADC.c **** * Return:
 446:.\Generated_Source\PSoC4/Infrared_ADC.c **** *  If a non-zero value is returned, the last conversion or scan has completed.
 447:.\Generated_Source\PSoC4/Infrared_ADC.c **** *  If the returned value is zero, the ADC is still in the process of a scan.
 448:.\Generated_Source\PSoC4/Infrared_ADC.c **** *
 449:.\Generated_Source\PSoC4/Infrared_ADC.c **** *******************************************************************************/
 450:.\Generated_Source\PSoC4/Infrared_ADC.c **** uint32 Infrared_ADC_IsEndConversion(uint32 retMode)
 451:.\Generated_Source\PSoC4/Infrared_ADC.c **** {
 352              		.loc 1 451 0
 353              		.cfi_startproc
 354              	.LVL13:
 355 0000 021C     		mov	r2, r0
 356              	.LVL14:
 452:.\Generated_Source\PSoC4/Infrared_ADC.c ****     uint32 status = 0u;
 453:.\Generated_Source\PSoC4/Infrared_ADC.c **** 
 454:.\Generated_Source\PSoC4/Infrared_ADC.c ****     if((retMode & (Infrared_ADC_RETURN_STATUS | Infrared_ADC_WAIT_FOR_RESULT)) != 0u)
 357              		.loc 1 454 0
 358 0002 8307     		lsl	r3, r0, #30
 359 0004 0CD0     		beq	.L30
 360              	.LVL15:
 361              	.L29:
 455:.\Generated_Source\PSoC4/Infrared_ADC.c ****     {
 456:.\Generated_Source\PSoC4/Infrared_ADC.c ****         do
 457:.\Generated_Source\PSoC4/Infrared_ADC.c ****         {
 458:.\Generated_Source\PSoC4/Infrared_ADC.c ****             status = Infrared_ADC_SAR_INTR_REG & Infrared_ADC_EOS_MASK;
 362              		.loc 1 458 0 discriminator 2
 363 0006 074B     		ldr	r3, .L31
 364 0008 1B68     		ldr	r3, [r3]
 365 000a 0120     		mov	r0, #1
 366 000c 1840     		and	r0, r3
 367              	.LVL16:
 459:.\Generated_Source\PSoC4/Infrared_ADC.c ****         }while((status == 0u) && ((retMode & Infrared_ADC_WAIT_FOR_RESULT) != 0u));
 368              		.loc 1 459 0 discriminator 2
 369 000e 01D1     		bne	.L28
 370              		.loc 1 459 0 is_stmt 0 discriminator 1
 371 0010 9307     		lsl	r3, r2, #30
 372 0012 F8D4     		bmi	.L29
 373              	.L28:
 460:.\Generated_Source\PSoC4/Infrared_ADC.c **** 
 461:.\Generated_Source\PSoC4/Infrared_ADC.c ****         if(status != 0u)
 374              		.loc 1 461 0 is_stmt 1
 375 0014 0028     		cmp	r0, #0
 376 0016 04D0     		beq	.L27
 462:.\Generated_Source\PSoC4/Infrared_ADC.c ****         {
 463:.\Generated_Source\PSoC4/Infrared_ADC.c ****             /* Clear EOS bit */
 464:.\Generated_Source\PSoC4/Infrared_ADC.c ****             Infrared_ADC_SAR_INTR_REG = Infrared_ADC_EOS_MASK;
 377              		.loc 1 464 0
 378 0018 0122     		mov	r2, #1
 379              	.LVL17:
 380 001a 024B     		ldr	r3, .L31
 381 001c 1A60     		str	r2, [r3]
ARM GAS  C:\Users\Tim\AppData\Local\Temp\ccLA4eUz.s 			page 16


 382 001e 00E0     		b	.L27
 383              	.LVL18:
 384              	.L30:
 452:.\Generated_Source\PSoC4/Infrared_ADC.c **** 
 385              		.loc 1 452 0
 386 0020 0020     		mov	r0, #0
 387              	.LVL19:
 388              	.L27:
 465:.\Generated_Source\PSoC4/Infrared_ADC.c ****         }
 466:.\Generated_Source\PSoC4/Infrared_ADC.c ****     }
 467:.\Generated_Source\PSoC4/Infrared_ADC.c **** 
 468:.\Generated_Source\PSoC4/Infrared_ADC.c ****     #if(Infrared_ADC_INJ_CHANNEL_ENABLED)
 469:.\Generated_Source\PSoC4/Infrared_ADC.c ****         if((retMode & (Infrared_ADC_RETURN_STATUS_INJ | Infrared_ADC_WAIT_FOR_RESULT_INJ)) != 0u)
 470:.\Generated_Source\PSoC4/Infrared_ADC.c ****         {
 471:.\Generated_Source\PSoC4/Infrared_ADC.c ****             do
 472:.\Generated_Source\PSoC4/Infrared_ADC.c ****             {
 473:.\Generated_Source\PSoC4/Infrared_ADC.c ****                 status |= Infrared_ADC_SAR_INTR_REG & Infrared_ADC_INJ_EOC_MASK;
 474:.\Generated_Source\PSoC4/Infrared_ADC.c ****             }while(((status & Infrared_ADC_INJ_EOC_MASK) == 0u) &&
 475:.\Generated_Source\PSoC4/Infrared_ADC.c ****                    ((retMode & Infrared_ADC_WAIT_FOR_RESULT_INJ) != 0u));
 476:.\Generated_Source\PSoC4/Infrared_ADC.c **** 
 477:.\Generated_Source\PSoC4/Infrared_ADC.c ****             if((status & Infrared_ADC_INJ_EOC_MASK) != 0u)
 478:.\Generated_Source\PSoC4/Infrared_ADC.c ****             {
 479:.\Generated_Source\PSoC4/Infrared_ADC.c ****                 /* Clear Injection EOS bit */
 480:.\Generated_Source\PSoC4/Infrared_ADC.c ****                 Infrared_ADC_SAR_INTR_REG = Infrared_ADC_INJ_EOC_MASK;
 481:.\Generated_Source\PSoC4/Infrared_ADC.c ****             }
 482:.\Generated_Source\PSoC4/Infrared_ADC.c ****         }
 483:.\Generated_Source\PSoC4/Infrared_ADC.c ****     #endif /* Infrared_ADC_INJ_CHANNEL_ENABLED */
 484:.\Generated_Source\PSoC4/Infrared_ADC.c **** 
 485:.\Generated_Source\PSoC4/Infrared_ADC.c ****     return (status);
 486:.\Generated_Source\PSoC4/Infrared_ADC.c **** }
 389              		.loc 1 486 0
 390              		@ sp needed
 391 0022 7047     		bx	lr
 392              	.L32:
 393              		.align	2
 394              	.L31:
 395 0024 10023A40 		.word	1077543440
 396              		.cfi_endproc
 397              	.LFE8:
 398              		.size	Infrared_ADC_IsEndConversion, .-Infrared_ADC_IsEndConversion
 399              		.section	.text.Infrared_ADC_GetResult16,"ax",%progbits
 400              		.align	2
 401              		.global	Infrared_ADC_GetResult16
 402              		.code	16
 403              		.thumb_func
 404              		.type	Infrared_ADC_GetResult16, %function
 405              	Infrared_ADC_GetResult16:
 406              	.LFB9:
 487:.\Generated_Source\PSoC4/Infrared_ADC.c **** 
 488:.\Generated_Source\PSoC4/Infrared_ADC.c **** 
 489:.\Generated_Source\PSoC4/Infrared_ADC.c **** /*******************************************************************************
 490:.\Generated_Source\PSoC4/Infrared_ADC.c **** * Function Name: Infrared_ADC_GetResult16
 491:.\Generated_Source\PSoC4/Infrared_ADC.c **** ********************************************************************************
 492:.\Generated_Source\PSoC4/Infrared_ADC.c **** *
 493:.\Generated_Source\PSoC4/Infrared_ADC.c **** * Summary:
 494:.\Generated_Source\PSoC4/Infrared_ADC.c **** *  Gets the data available in the SAR DATA register.
 495:.\Generated_Source\PSoC4/Infrared_ADC.c **** *
ARM GAS  C:\Users\Tim\AppData\Local\Temp\ccLA4eUz.s 			page 17


 496:.\Generated_Source\PSoC4/Infrared_ADC.c **** * Parameters:
 497:.\Generated_Source\PSoC4/Infrared_ADC.c **** *  chan: The ADC channel in which to return the result. The first channel
 498:.\Generated_Source\PSoC4/Infrared_ADC.c **** *  is 0 and the injection channel if enabled is the number of valid channels.
 499:.\Generated_Source\PSoC4/Infrared_ADC.c **** *
 500:.\Generated_Source\PSoC4/Infrared_ADC.c **** * Return:
 501:.\Generated_Source\PSoC4/Infrared_ADC.c **** *  Returns converted data as a signed 16-bit integer
 502:.\Generated_Source\PSoC4/Infrared_ADC.c **** *
 503:.\Generated_Source\PSoC4/Infrared_ADC.c **** *******************************************************************************/
 504:.\Generated_Source\PSoC4/Infrared_ADC.c **** int16 Infrared_ADC_GetResult16(uint32 chan)
 505:.\Generated_Source\PSoC4/Infrared_ADC.c **** {
 407              		.loc 1 505 0
 408              		.cfi_startproc
 409              	.LVL20:
 410 0000 10B5     		push	{r4, lr}
 411              		.cfi_def_cfa_offset 8
 412              		.cfi_offset 4, -8
 413              		.cfi_offset 14, -4
 414 0002 041E     		sub	r4, r0, #0
 506:.\Generated_Source\PSoC4/Infrared_ADC.c ****     uint32 result;
 507:.\Generated_Source\PSoC4/Infrared_ADC.c **** 
 508:.\Generated_Source\PSoC4/Infrared_ADC.c ****     /* Halt CPU in debug mode if channel is out of valid range */
 509:.\Generated_Source\PSoC4/Infrared_ADC.c ****     CYASSERT(chan < Infrared_ADC_TOTAL_CHANNELS_NUM);
 415              		.loc 1 509 0
 416 0004 02D0     		beq	.L34
 417              		.loc 1 509 0 is_stmt 0 discriminator 1
 418 0006 0020     		mov	r0, #0
 419              	.LVL21:
 420 0008 FFF7FEFF 		bl	CyHalt
 421              	.LVL22:
 422              	.L34:
 510:.\Generated_Source\PSoC4/Infrared_ADC.c **** 
 511:.\Generated_Source\PSoC4/Infrared_ADC.c ****     if(chan < Infrared_ADC_SEQUENCED_CHANNELS_NUM)
 423              		.loc 1 511 0 is_stmt 1
 424 000c 002C     		cmp	r4, #0
 425 000e 07D1     		bne	.L36
 512:.\Generated_Source\PSoC4/Infrared_ADC.c ****     {
 513:.\Generated_Source\PSoC4/Infrared_ADC.c ****         result = CY_GET_REG32((reg32 *)(Infrared_ADC_SAR_CHAN_RESULT_IND + (uint32)(chan << 2u))) &
 426              		.loc 1 513 0
 427 0010 A400     		lsl	r4, r4, #2
 428              	.LVL23:
 429 0012 054B     		ldr	r3, .L37
 430 0014 9C46     		mov	ip, r3
 431 0016 6444     		add	r4, r4, ip
 432 0018 2068     		ldr	r0, [r4]
 433 001a 0004     		lsl	r0, r0, #16
 434 001c 000C     		lsr	r0, r0, #16
 435              	.LVL24:
 436 001e 00E0     		b	.L35
 437              	.LVL25:
 438              	.L36:
 514:.\Generated_Source\PSoC4/Infrared_ADC.c ****                 Infrared_ADC_RESULT_MASK;
 515:.\Generated_Source\PSoC4/Infrared_ADC.c ****     }
 516:.\Generated_Source\PSoC4/Infrared_ADC.c ****     else
 517:.\Generated_Source\PSoC4/Infrared_ADC.c ****     {
 518:.\Generated_Source\PSoC4/Infrared_ADC.c ****         #if(Infrared_ADC_INJ_CHANNEL_ENABLED)
 519:.\Generated_Source\PSoC4/Infrared_ADC.c ****             result = Infrared_ADC_SAR_INJ_RESULT_REG & Infrared_ADC_RESULT_MASK;
 520:.\Generated_Source\PSoC4/Infrared_ADC.c ****         #else
ARM GAS  C:\Users\Tim\AppData\Local\Temp\ccLA4eUz.s 			page 18


 521:.\Generated_Source\PSoC4/Infrared_ADC.c ****             result = 0u;
 439              		.loc 1 521 0
 440 0020 0020     		mov	r0, #0
 441              	.LVL26:
 442              	.L35:
 522:.\Generated_Source\PSoC4/Infrared_ADC.c ****         #endif /* Infrared_ADC_INJ_CHANNEL_ENABLED */
 523:.\Generated_Source\PSoC4/Infrared_ADC.c ****     }
 524:.\Generated_Source\PSoC4/Infrared_ADC.c **** 
 525:.\Generated_Source\PSoC4/Infrared_ADC.c ****     return ( (int16)result );
 443              		.loc 1 525 0
 444 0022 00B2     		sxth	r0, r0
 445              	.LVL27:
 526:.\Generated_Source\PSoC4/Infrared_ADC.c **** }
 446              		.loc 1 526 0
 447              		@ sp needed
 448 0024 10BD     		pop	{r4, pc}
 449              	.L38:
 450 0026 C046     		.align	2
 451              	.L37:
 452 0028 80013A40 		.word	1077543296
 453              		.cfi_endproc
 454              	.LFE9:
 455              		.size	Infrared_ADC_GetResult16, .-Infrared_ADC_GetResult16
 456              		.section	.text.Infrared_ADC_SetChanMask,"ax",%progbits
 457              		.align	2
 458              		.global	Infrared_ADC_SetChanMask
 459              		.code	16
 460              		.thumb_func
 461              		.type	Infrared_ADC_SetChanMask, %function
 462              	Infrared_ADC_SetChanMask:
 463              	.LFB10:
 527:.\Generated_Source\PSoC4/Infrared_ADC.c **** 
 528:.\Generated_Source\PSoC4/Infrared_ADC.c **** 
 529:.\Generated_Source\PSoC4/Infrared_ADC.c **** /*******************************************************************************
 530:.\Generated_Source\PSoC4/Infrared_ADC.c **** * Function Name: Infrared_ADC_SetChanMask
 531:.\Generated_Source\PSoC4/Infrared_ADC.c **** ********************************************************************************
 532:.\Generated_Source\PSoC4/Infrared_ADC.c **** *
 533:.\Generated_Source\PSoC4/Infrared_ADC.c **** * Summary:
 534:.\Generated_Source\PSoC4/Infrared_ADC.c **** *  Sets the channel enable mask.
 535:.\Generated_Source\PSoC4/Infrared_ADC.c **** *
 536:.\Generated_Source\PSoC4/Infrared_ADC.c **** * Parameters:
 537:.\Generated_Source\PSoC4/Infrared_ADC.c **** *  mask: Sets which channels that will be
 538:.\Generated_Source\PSoC4/Infrared_ADC.c **** *  scanned. Setting bits for channels that do not exist will have no
 539:.\Generated_Source\PSoC4/Infrared_ADC.c **** *  effect. For example, if only 6 channels were enabled, setting a
 540:.\Generated_Source\PSoC4/Infrared_ADC.c **** *  mask of 0x0103 would only enable the last two channels (0 and 1).
 541:.\Generated_Source\PSoC4/Infrared_ADC.c **** *  This API will not enable the injection channel.
 542:.\Generated_Source\PSoC4/Infrared_ADC.c **** *  Examples: If the component is setup to sequence through 8
 543:.\Generated_Source\PSoC4/Infrared_ADC.c **** *  channels, a mask of 0x000F would enable channels 0, 1, 2, and 3.
 544:.\Generated_Source\PSoC4/Infrared_ADC.c **** *
 545:.\Generated_Source\PSoC4/Infrared_ADC.c **** * Return:
 546:.\Generated_Source\PSoC4/Infrared_ADC.c **** *  None.
 547:.\Generated_Source\PSoC4/Infrared_ADC.c **** *
 548:.\Generated_Source\PSoC4/Infrared_ADC.c **** *******************************************************************************/
 549:.\Generated_Source\PSoC4/Infrared_ADC.c **** void Infrared_ADC_SetChanMask(uint32 mask)
 550:.\Generated_Source\PSoC4/Infrared_ADC.c **** {
 464              		.loc 1 550 0
 465              		.cfi_startproc
ARM GAS  C:\Users\Tim\AppData\Local\Temp\ccLA4eUz.s 			page 19


 466              	.LVL28:
 551:.\Generated_Source\PSoC4/Infrared_ADC.c ****     Infrared_ADC_SAR_CHAN_EN_REG = mask & Infrared_ADC_MAX_CHANNELS_EN_MASK;
 467              		.loc 1 551 0
 468 0000 0123     		mov	r3, #1
 469 0002 1840     		and	r0, r3
 470              	.LVL29:
 471 0004 014B     		ldr	r3, .L40
 472 0006 1860     		str	r0, [r3]
 552:.\Generated_Source\PSoC4/Infrared_ADC.c **** }
 473              		.loc 1 552 0
 474              		@ sp needed
 475 0008 7047     		bx	lr
 476              	.L41:
 477 000a C046     		.align	2
 478              	.L40:
 479 000c 20003A40 		.word	1077542944
 480              		.cfi_endproc
 481              	.LFE10:
 482              		.size	Infrared_ADC_SetChanMask, .-Infrared_ADC_SetChanMask
 483              		.section	.text.Infrared_ADC_SetLowLimit,"ax",%progbits
 484              		.align	2
 485              		.global	Infrared_ADC_SetLowLimit
 486              		.code	16
 487              		.thumb_func
 488              		.type	Infrared_ADC_SetLowLimit, %function
 489              	Infrared_ADC_SetLowLimit:
 490              	.LFB11:
 553:.\Generated_Source\PSoC4/Infrared_ADC.c **** 
 554:.\Generated_Source\PSoC4/Infrared_ADC.c **** #if(Infrared_ADC_INJ_CHANNEL_ENABLED)
 555:.\Generated_Source\PSoC4/Infrared_ADC.c **** 
 556:.\Generated_Source\PSoC4/Infrared_ADC.c **** 
 557:.\Generated_Source\PSoC4/Infrared_ADC.c ****     /*******************************************************************************
 558:.\Generated_Source\PSoC4/Infrared_ADC.c ****     * Function Name: Infrared_ADC_EnableInjection
 559:.\Generated_Source\PSoC4/Infrared_ADC.c ****     ********************************************************************************
 560:.\Generated_Source\PSoC4/Infrared_ADC.c ****     *
 561:.\Generated_Source\PSoC4/Infrared_ADC.c ****     * Summary:
 562:.\Generated_Source\PSoC4/Infrared_ADC.c ****     *  Enables the injection channel for the next scan only.
 563:.\Generated_Source\PSoC4/Infrared_ADC.c ****     *
 564:.\Generated_Source\PSoC4/Infrared_ADC.c ****     * Parameters:
 565:.\Generated_Source\PSoC4/Infrared_ADC.c ****     *  None.
 566:.\Generated_Source\PSoC4/Infrared_ADC.c ****     *
 567:.\Generated_Source\PSoC4/Infrared_ADC.c ****     * Return:
 568:.\Generated_Source\PSoC4/Infrared_ADC.c ****     *  None.
 569:.\Generated_Source\PSoC4/Infrared_ADC.c ****     *
 570:.\Generated_Source\PSoC4/Infrared_ADC.c ****     *******************************************************************************/
 571:.\Generated_Source\PSoC4/Infrared_ADC.c ****     void Infrared_ADC_EnableInjection(void)
 572:.\Generated_Source\PSoC4/Infrared_ADC.c ****     {
 573:.\Generated_Source\PSoC4/Infrared_ADC.c ****         Infrared_ADC_SAR_INJ_CHAN_CONFIG_REG |= Infrared_ADC_INJ_CHAN_EN;
 574:.\Generated_Source\PSoC4/Infrared_ADC.c ****     }
 575:.\Generated_Source\PSoC4/Infrared_ADC.c **** 
 576:.\Generated_Source\PSoC4/Infrared_ADC.c **** #endif /* Infrared_ADC_INJ_CHANNEL_ENABLED */
 577:.\Generated_Source\PSoC4/Infrared_ADC.c **** 
 578:.\Generated_Source\PSoC4/Infrared_ADC.c **** 
 579:.\Generated_Source\PSoC4/Infrared_ADC.c **** /*******************************************************************************
 580:.\Generated_Source\PSoC4/Infrared_ADC.c **** * Function Name: Infrared_ADC_SetLowLimit
 581:.\Generated_Source\PSoC4/Infrared_ADC.c **** ********************************************************************************
 582:.\Generated_Source\PSoC4/Infrared_ADC.c **** *
ARM GAS  C:\Users\Tim\AppData\Local\Temp\ccLA4eUz.s 			page 20


 583:.\Generated_Source\PSoC4/Infrared_ADC.c **** * Summary:
 584:.\Generated_Source\PSoC4/Infrared_ADC.c **** *  Sets the low limit parameter for a limit condition.
 585:.\Generated_Source\PSoC4/Infrared_ADC.c **** *
 586:.\Generated_Source\PSoC4/Infrared_ADC.c **** * Parameters:
 587:.\Generated_Source\PSoC4/Infrared_ADC.c **** *  lowLimit: The low limit for a limit condition.
 588:.\Generated_Source\PSoC4/Infrared_ADC.c **** *
 589:.\Generated_Source\PSoC4/Infrared_ADC.c **** * Return:
 590:.\Generated_Source\PSoC4/Infrared_ADC.c **** *  None.
 591:.\Generated_Source\PSoC4/Infrared_ADC.c **** *
 592:.\Generated_Source\PSoC4/Infrared_ADC.c **** *******************************************************************************/
 593:.\Generated_Source\PSoC4/Infrared_ADC.c **** void Infrared_ADC_SetLowLimit(uint32 lowLimit)
 594:.\Generated_Source\PSoC4/Infrared_ADC.c **** {
 491              		.loc 1 594 0
 492              		.cfi_startproc
 493              	.LVL30:
 595:.\Generated_Source\PSoC4/Infrared_ADC.c ****     Infrared_ADC_SAR_RANGE_THRES_REG &= (uint32)(~Infrared_ADC_RANGE_LOW_MASK);
 494              		.loc 1 595 0
 495 0000 054A     		ldr	r2, .L43
 496 0002 1368     		ldr	r3, [r2]
 497 0004 1B0C     		lsr	r3, r3, #16
 498 0006 1B04     		lsl	r3, r3, #16
 499 0008 1360     		str	r3, [r2]
 596:.\Generated_Source\PSoC4/Infrared_ADC.c ****     Infrared_ADC_SAR_RANGE_THRES_REG |= lowLimit & Infrared_ADC_RANGE_LOW_MASK;
 500              		.loc 1 596 0
 501 000a 1368     		ldr	r3, [r2]
 502 000c 0004     		lsl	r0, r0, #16
 503              	.LVL31:
 504 000e 000C     		lsr	r0, r0, #16
 505 0010 1843     		orr	r0, r3
 506 0012 1060     		str	r0, [r2]
 597:.\Generated_Source\PSoC4/Infrared_ADC.c **** }
 507              		.loc 1 597 0
 508              		@ sp needed
 509 0014 7047     		bx	lr
 510              	.L44:
 511 0016 C046     		.align	2
 512              	.L43:
 513 0018 18003A40 		.word	1077542936
 514              		.cfi_endproc
 515              	.LFE11:
 516              		.size	Infrared_ADC_SetLowLimit, .-Infrared_ADC_SetLowLimit
 517              		.section	.text.Infrared_ADC_SetHighLimit,"ax",%progbits
 518              		.align	2
 519              		.global	Infrared_ADC_SetHighLimit
 520              		.code	16
 521              		.thumb_func
 522              		.type	Infrared_ADC_SetHighLimit, %function
 523              	Infrared_ADC_SetHighLimit:
 524              	.LFB12:
 598:.\Generated_Source\PSoC4/Infrared_ADC.c **** 
 599:.\Generated_Source\PSoC4/Infrared_ADC.c **** 
 600:.\Generated_Source\PSoC4/Infrared_ADC.c **** /*******************************************************************************
 601:.\Generated_Source\PSoC4/Infrared_ADC.c **** * Function Name: Infrared_ADC_SetHighLimit
 602:.\Generated_Source\PSoC4/Infrared_ADC.c **** ********************************************************************************
 603:.\Generated_Source\PSoC4/Infrared_ADC.c **** *
 604:.\Generated_Source\PSoC4/Infrared_ADC.c **** * Summary:
 605:.\Generated_Source\PSoC4/Infrared_ADC.c **** *  Sets the low limit parameter for a limit condition.
ARM GAS  C:\Users\Tim\AppData\Local\Temp\ccLA4eUz.s 			page 21


 606:.\Generated_Source\PSoC4/Infrared_ADC.c **** *
 607:.\Generated_Source\PSoC4/Infrared_ADC.c **** * Parameters:
 608:.\Generated_Source\PSoC4/Infrared_ADC.c **** *  highLimit: The high limit for a limit condition.
 609:.\Generated_Source\PSoC4/Infrared_ADC.c **** *
 610:.\Generated_Source\PSoC4/Infrared_ADC.c **** * Return:
 611:.\Generated_Source\PSoC4/Infrared_ADC.c **** *  None.
 612:.\Generated_Source\PSoC4/Infrared_ADC.c **** *
 613:.\Generated_Source\PSoC4/Infrared_ADC.c **** *******************************************************************************/
 614:.\Generated_Source\PSoC4/Infrared_ADC.c **** void Infrared_ADC_SetHighLimit(uint32 highLimit)
 615:.\Generated_Source\PSoC4/Infrared_ADC.c **** {
 525              		.loc 1 615 0
 526              		.cfi_startproc
 527              	.LVL32:
 616:.\Generated_Source\PSoC4/Infrared_ADC.c ****     Infrared_ADC_SAR_RANGE_THRES_REG &= (uint32)(~Infrared_ADC_RANGE_HIGH_MASK);
 528              		.loc 1 616 0
 529 0000 044A     		ldr	r2, .L46
 530 0002 1368     		ldr	r3, [r2]
 531 0004 1B04     		lsl	r3, r3, #16
 532 0006 1B0C     		lsr	r3, r3, #16
 533 0008 1360     		str	r3, [r2]
 617:.\Generated_Source\PSoC4/Infrared_ADC.c ****     Infrared_ADC_SAR_RANGE_THRES_REG |= (uint32)(highLimit << Infrared_ADC_RANGE_HIGH_OFFSET);
 534              		.loc 1 617 0
 535 000a 1368     		ldr	r3, [r2]
 536 000c 0004     		lsl	r0, r0, #16
 537              	.LVL33:
 538 000e 1843     		orr	r0, r3
 539 0010 1060     		str	r0, [r2]
 618:.\Generated_Source\PSoC4/Infrared_ADC.c **** }
 540              		.loc 1 618 0
 541              		@ sp needed
 542 0012 7047     		bx	lr
 543              	.L47:
 544              		.align	2
 545              	.L46:
 546 0014 18003A40 		.word	1077542936
 547              		.cfi_endproc
 548              	.LFE12:
 549              		.size	Infrared_ADC_SetHighLimit, .-Infrared_ADC_SetHighLimit
 550              		.section	.text.Infrared_ADC_SetLimitMask,"ax",%progbits
 551              		.align	2
 552              		.global	Infrared_ADC_SetLimitMask
 553              		.code	16
 554              		.thumb_func
 555              		.type	Infrared_ADC_SetLimitMask, %function
 556              	Infrared_ADC_SetLimitMask:
 557              	.LFB13:
 619:.\Generated_Source\PSoC4/Infrared_ADC.c **** 
 620:.\Generated_Source\PSoC4/Infrared_ADC.c **** 
 621:.\Generated_Source\PSoC4/Infrared_ADC.c **** /*******************************************************************************
 622:.\Generated_Source\PSoC4/Infrared_ADC.c **** * Function Name: Infrared_ADC_SetLimitMask
 623:.\Generated_Source\PSoC4/Infrared_ADC.c **** ********************************************************************************
 624:.\Generated_Source\PSoC4/Infrared_ADC.c **** *
 625:.\Generated_Source\PSoC4/Infrared_ADC.c **** * Summary:
 626:.\Generated_Source\PSoC4/Infrared_ADC.c **** *  Sets the channel limit condition mask.
 627:.\Generated_Source\PSoC4/Infrared_ADC.c **** *
 628:.\Generated_Source\PSoC4/Infrared_ADC.c **** * Parameters:
 629:.\Generated_Source\PSoC4/Infrared_ADC.c **** *  mask: Sets which channels that may cause a
ARM GAS  C:\Users\Tim\AppData\Local\Temp\ccLA4eUz.s 			page 22


 630:.\Generated_Source\PSoC4/Infrared_ADC.c **** *  limit condition interrupt. Setting bits for channels that do not exist
 631:.\Generated_Source\PSoC4/Infrared_ADC.c **** *  will have no effect. For example, if only 6 channels were enabled,
 632:.\Generated_Source\PSoC4/Infrared_ADC.c **** *  setting a mask of 0x0103 would only enable the last two channels (0 and 1).
 633:.\Generated_Source\PSoC4/Infrared_ADC.c **** *
 634:.\Generated_Source\PSoC4/Infrared_ADC.c **** * Return:
 635:.\Generated_Source\PSoC4/Infrared_ADC.c **** *  None.
 636:.\Generated_Source\PSoC4/Infrared_ADC.c **** *
 637:.\Generated_Source\PSoC4/Infrared_ADC.c **** *******************************************************************************/
 638:.\Generated_Source\PSoC4/Infrared_ADC.c **** void Infrared_ADC_SetLimitMask(uint32 mask)
 639:.\Generated_Source\PSoC4/Infrared_ADC.c **** {
 558              		.loc 1 639 0
 559              		.cfi_startproc
 560              	.LVL34:
 640:.\Generated_Source\PSoC4/Infrared_ADC.c ****     Infrared_ADC_SAR_RANGE_INTR_MASK_REG = mask & Infrared_ADC_MAX_CHANNELS_EN_MASK;
 561              		.loc 1 640 0
 562 0000 0123     		mov	r3, #1
 563 0002 1840     		and	r0, r3
 564              	.LVL35:
 565 0004 014B     		ldr	r3, .L49
 566 0006 1860     		str	r0, [r3]
 641:.\Generated_Source\PSoC4/Infrared_ADC.c **** }
 567              		.loc 1 641 0
 568              		@ sp needed
 569 0008 7047     		bx	lr
 570              	.L50:
 571 000a C046     		.align	2
 572              	.L49:
 573 000c 38023A40 		.word	1077543480
 574              		.cfi_endproc
 575              	.LFE13:
 576              		.size	Infrared_ADC_SetLimitMask, .-Infrared_ADC_SetLimitMask
 577              		.section	.text.Infrared_ADC_SetSatMask,"ax",%progbits
 578              		.align	2
 579              		.global	Infrared_ADC_SetSatMask
 580              		.code	16
 581              		.thumb_func
 582              		.type	Infrared_ADC_SetSatMask, %function
 583              	Infrared_ADC_SetSatMask:
 584              	.LFB14:
 642:.\Generated_Source\PSoC4/Infrared_ADC.c **** 
 643:.\Generated_Source\PSoC4/Infrared_ADC.c **** 
 644:.\Generated_Source\PSoC4/Infrared_ADC.c **** /*******************************************************************************
 645:.\Generated_Source\PSoC4/Infrared_ADC.c **** * Function Name: Infrared_ADC_SetSatMask
 646:.\Generated_Source\PSoC4/Infrared_ADC.c **** ********************************************************************************
 647:.\Generated_Source\PSoC4/Infrared_ADC.c **** *
 648:.\Generated_Source\PSoC4/Infrared_ADC.c **** * Summary:
 649:.\Generated_Source\PSoC4/Infrared_ADC.c **** *  Sets the channel saturation event mask.
 650:.\Generated_Source\PSoC4/Infrared_ADC.c **** *
 651:.\Generated_Source\PSoC4/Infrared_ADC.c **** * Parameters:
 652:.\Generated_Source\PSoC4/Infrared_ADC.c **** *  mask: Sets which channels that may cause a
 653:.\Generated_Source\PSoC4/Infrared_ADC.c **** *  saturation event interrupt. Setting bits for channels that do not exist
 654:.\Generated_Source\PSoC4/Infrared_ADC.c **** *  will have no effect. For example, if only 8 channels were enabled,
 655:.\Generated_Source\PSoC4/Infrared_ADC.c **** *  setting a mask of 0x01C0 would only enable two channels (6 and 7).
 656:.\Generated_Source\PSoC4/Infrared_ADC.c **** *
 657:.\Generated_Source\PSoC4/Infrared_ADC.c **** * Return:
 658:.\Generated_Source\PSoC4/Infrared_ADC.c **** *  None.
 659:.\Generated_Source\PSoC4/Infrared_ADC.c **** *
ARM GAS  C:\Users\Tim\AppData\Local\Temp\ccLA4eUz.s 			page 23


 660:.\Generated_Source\PSoC4/Infrared_ADC.c **** *******************************************************************************/
 661:.\Generated_Source\PSoC4/Infrared_ADC.c **** void Infrared_ADC_SetSatMask(uint32 mask)
 662:.\Generated_Source\PSoC4/Infrared_ADC.c **** {
 585              		.loc 1 662 0
 586              		.cfi_startproc
 587              	.LVL36:
 663:.\Generated_Source\PSoC4/Infrared_ADC.c ****     Infrared_ADC_SAR_SATURATE_INTR_MASK_REG = mask & Infrared_ADC_MAX_CHANNELS_EN_MASK;
 588              		.loc 1 663 0
 589 0000 0123     		mov	r3, #1
 590 0002 1840     		and	r0, r3
 591              	.LVL37:
 592 0004 014B     		ldr	r3, .L52
 593 0006 1860     		str	r0, [r3]
 664:.\Generated_Source\PSoC4/Infrared_ADC.c **** }
 594              		.loc 1 664 0
 595              		@ sp needed
 596 0008 7047     		bx	lr
 597              	.L53:
 598 000a C046     		.align	2
 599              	.L52:
 600 000c 28023A40 		.word	1077543464
 601              		.cfi_endproc
 602              	.LFE14:
 603              		.size	Infrared_ADC_SetSatMask, .-Infrared_ADC_SetSatMask
 604              		.section	.text.Infrared_ADC_SetOffset,"ax",%progbits
 605              		.align	2
 606              		.global	Infrared_ADC_SetOffset
 607              		.code	16
 608              		.thumb_func
 609              		.type	Infrared_ADC_SetOffset, %function
 610              	Infrared_ADC_SetOffset:
 611              	.LFB15:
 665:.\Generated_Source\PSoC4/Infrared_ADC.c **** 
 666:.\Generated_Source\PSoC4/Infrared_ADC.c **** 
 667:.\Generated_Source\PSoC4/Infrared_ADC.c **** /*******************************************************************************
 668:.\Generated_Source\PSoC4/Infrared_ADC.c **** * Function Name: Infrared_ADC_SetOffset
 669:.\Generated_Source\PSoC4/Infrared_ADC.c **** ********************************************************************************
 670:.\Generated_Source\PSoC4/Infrared_ADC.c **** *
 671:.\Generated_Source\PSoC4/Infrared_ADC.c **** * Summary:
 672:.\Generated_Source\PSoC4/Infrared_ADC.c **** *   Description: Sets the ADC offset which is used by the functions
 673:.\Generated_Source\PSoC4/Infrared_ADC.c **** *   ADC_CountsTo_uVolts, ADC_CountsTo_mVolts and ADC_CountsTo_Volts
 674:.\Generated_Source\PSoC4/Infrared_ADC.c **** *   to substract the offset from the given reading
 675:.\Generated_Source\PSoC4/Infrared_ADC.c **** *   before calculating the voltage conversion.
 676:.\Generated_Source\PSoC4/Infrared_ADC.c **** *
 677:.\Generated_Source\PSoC4/Infrared_ADC.c **** * Parameters:
 678:.\Generated_Source\PSoC4/Infrared_ADC.c **** *  chan: ADC channel number.
 679:.\Generated_Source\PSoC4/Infrared_ADC.c **** *  offset: This value is a measured value when the
 680:.\Generated_Source\PSoC4/Infrared_ADC.c **** *          inputs are shorted or connected to the same input voltage.
 681:.\Generated_Source\PSoC4/Infrared_ADC.c **** *
 682:.\Generated_Source\PSoC4/Infrared_ADC.c **** * Return:
 683:.\Generated_Source\PSoC4/Infrared_ADC.c **** *  None.
 684:.\Generated_Source\PSoC4/Infrared_ADC.c **** *
 685:.\Generated_Source\PSoC4/Infrared_ADC.c **** * Global variables:
 686:.\Generated_Source\PSoC4/Infrared_ADC.c **** *  Infrared_ADC_Offset:  Modified to set the user provided offset.
 687:.\Generated_Source\PSoC4/Infrared_ADC.c **** *
 688:.\Generated_Source\PSoC4/Infrared_ADC.c **** *******************************************************************************/
 689:.\Generated_Source\PSoC4/Infrared_ADC.c **** void Infrared_ADC_SetOffset(uint32 chan, int16 offset)
ARM GAS  C:\Users\Tim\AppData\Local\Temp\ccLA4eUz.s 			page 24


 690:.\Generated_Source\PSoC4/Infrared_ADC.c **** {
 612              		.loc 1 690 0
 613              		.cfi_startproc
 614              	.LVL38:
 615 0000 38B5     		push	{r3, r4, r5, lr}
 616              		.cfi_def_cfa_offset 16
 617              		.cfi_offset 3, -16
 618              		.cfi_offset 4, -12
 619              		.cfi_offset 5, -8
 620              		.cfi_offset 14, -4
 621 0002 041C     		mov	r4, r0
 622 0004 0D1C     		mov	r5, r1
 691:.\Generated_Source\PSoC4/Infrared_ADC.c ****     /* Halt CPU in debug mode if channel is out of valid range */
 692:.\Generated_Source\PSoC4/Infrared_ADC.c ****     CYASSERT(chan < Infrared_ADC_TOTAL_CHANNELS_NUM);
 623              		.loc 1 692 0
 624 0006 0028     		cmp	r0, #0
 625 0008 02D0     		beq	.L55
 626              		.loc 1 692 0 is_stmt 0 discriminator 1
 627 000a 0020     		mov	r0, #0
 628              	.LVL39:
 629 000c FFF7FEFF 		bl	CyHalt
 630              	.LVL40:
 631              	.L55:
 693:.\Generated_Source\PSoC4/Infrared_ADC.c **** 
 694:.\Generated_Source\PSoC4/Infrared_ADC.c ****     Infrared_ADC_offset[chan] = offset;
 632              		.loc 1 694 0 is_stmt 1
 633 0010 6400     		lsl	r4, r4, #1
 634              	.LVL41:
 635 0012 014B     		ldr	r3, .L56
 636 0014 E552     		strh	r5, [r4, r3]
 695:.\Generated_Source\PSoC4/Infrared_ADC.c **** }
 637              		.loc 1 695 0
 638              		@ sp needed
 639 0016 38BD     		pop	{r3, r4, r5, pc}
 640              	.L57:
 641              		.align	2
 642              	.L56:
 643 0018 00000000 		.word	Infrared_ADC_offset
 644              		.cfi_endproc
 645              	.LFE15:
 646              		.size	Infrared_ADC_SetOffset, .-Infrared_ADC_SetOffset
 647              		.section	.text.Infrared_ADC_SetGain,"ax",%progbits
 648              		.align	2
 649              		.global	Infrared_ADC_SetGain
 650              		.code	16
 651              		.thumb_func
 652              		.type	Infrared_ADC_SetGain, %function
 653              	Infrared_ADC_SetGain:
 654              	.LFB16:
 696:.\Generated_Source\PSoC4/Infrared_ADC.c **** 
 697:.\Generated_Source\PSoC4/Infrared_ADC.c **** 
 698:.\Generated_Source\PSoC4/Infrared_ADC.c **** /*******************************************************************************
 699:.\Generated_Source\PSoC4/Infrared_ADC.c **** * Function Name: Infrared_ADC_SetGain
 700:.\Generated_Source\PSoC4/Infrared_ADC.c **** ********************************************************************************
 701:.\Generated_Source\PSoC4/Infrared_ADC.c **** *
 702:.\Generated_Source\PSoC4/Infrared_ADC.c **** * Summary:
 703:.\Generated_Source\PSoC4/Infrared_ADC.c **** *  Description: Sets the ADC gain in counts per 10 volt for the voltage
ARM GAS  C:\Users\Tim\AppData\Local\Temp\ccLA4eUz.s 			page 25


 704:.\Generated_Source\PSoC4/Infrared_ADC.c **** *  conversion functions below. This value is set by default by the
 705:.\Generated_Source\PSoC4/Infrared_ADC.c **** *  reference and input range settings. It should only be used to further
 706:.\Generated_Source\PSoC4/Infrared_ADC.c **** *  calibrate the ADC with a known input or if an external reference is
 707:.\Generated_Source\PSoC4/Infrared_ADC.c **** *  used. Affects the ADC_CountsTo_uVolts, ADC_CountsTo_mVolts
 708:.\Generated_Source\PSoC4/Infrared_ADC.c **** *  and ADC_CountsTo_Volts functions by supplying the correct
 709:.\Generated_Source\PSoC4/Infrared_ADC.c **** *  conversion between ADC counts and voltage.
 710:.\Generated_Source\PSoC4/Infrared_ADC.c **** *
 711:.\Generated_Source\PSoC4/Infrared_ADC.c **** * Parameters:
 712:.\Generated_Source\PSoC4/Infrared_ADC.c **** *  chan: ADC channel number.
 713:.\Generated_Source\PSoC4/Infrared_ADC.c **** *  adcGain: ADC gain in counts per 10 volts.
 714:.\Generated_Source\PSoC4/Infrared_ADC.c **** *
 715:.\Generated_Source\PSoC4/Infrared_ADC.c **** * Return:
 716:.\Generated_Source\PSoC4/Infrared_ADC.c **** *  None.
 717:.\Generated_Source\PSoC4/Infrared_ADC.c **** *
 718:.\Generated_Source\PSoC4/Infrared_ADC.c **** * Global variables:
 719:.\Generated_Source\PSoC4/Infrared_ADC.c **** *  Infrared_ADC_CountsPer10Volt:  modified to set the ADC gain in counts
 720:.\Generated_Source\PSoC4/Infrared_ADC.c **** *   per 10 volt.
 721:.\Generated_Source\PSoC4/Infrared_ADC.c **** *
 722:.\Generated_Source\PSoC4/Infrared_ADC.c **** *******************************************************************************/
 723:.\Generated_Source\PSoC4/Infrared_ADC.c **** void Infrared_ADC_SetGain(uint32 chan, int32 adcGain)
 724:.\Generated_Source\PSoC4/Infrared_ADC.c **** {
 655              		.loc 1 724 0
 656              		.cfi_startproc
 657              	.LVL42:
 658 0000 38B5     		push	{r3, r4, r5, lr}
 659              		.cfi_def_cfa_offset 16
 660              		.cfi_offset 3, -16
 661              		.cfi_offset 4, -12
 662              		.cfi_offset 5, -8
 663              		.cfi_offset 14, -4
 664 0002 041C     		mov	r4, r0
 665 0004 0D1C     		mov	r5, r1
 725:.\Generated_Source\PSoC4/Infrared_ADC.c ****     /* Halt CPU in debug mode if channel is out of valid range */
 726:.\Generated_Source\PSoC4/Infrared_ADC.c ****     CYASSERT(chan < Infrared_ADC_TOTAL_CHANNELS_NUM);
 666              		.loc 1 726 0
 667 0006 0028     		cmp	r0, #0
 668 0008 02D0     		beq	.L59
 669              		.loc 1 726 0 is_stmt 0 discriminator 1
 670 000a 0020     		mov	r0, #0
 671              	.LVL43:
 672 000c FFF7FEFF 		bl	CyHalt
 673              	.LVL44:
 674              	.L59:
 727:.\Generated_Source\PSoC4/Infrared_ADC.c **** 
 728:.\Generated_Source\PSoC4/Infrared_ADC.c ****     Infrared_ADC_countsPer10Volt[chan] = adcGain;
 675              		.loc 1 728 0 is_stmt 1
 676 0010 A400     		lsl	r4, r4, #2
 677              	.LVL45:
 678 0012 014B     		ldr	r3, .L60
 679 0014 E550     		str	r5, [r4, r3]
 729:.\Generated_Source\PSoC4/Infrared_ADC.c **** }
 680              		.loc 1 729 0
 681              		@ sp needed
 682              	.LVL46:
 683 0016 38BD     		pop	{r3, r4, r5, pc}
 684              	.L61:
 685              		.align	2
ARM GAS  C:\Users\Tim\AppData\Local\Temp\ccLA4eUz.s 			page 26


 686              	.L60:
 687 0018 00000000 		.word	Infrared_ADC_countsPer10Volt
 688              		.cfi_endproc
 689              	.LFE16:
 690              		.size	Infrared_ADC_SetGain, .-Infrared_ADC_SetGain
 691              		.global	__aeabi_idiv
 692              		.section	.text.Infrared_ADC_CountsTo_mVolts,"ax",%progbits
 693              		.align	2
 694              		.global	Infrared_ADC_CountsTo_mVolts
 695              		.code	16
 696              		.thumb_func
 697              		.type	Infrared_ADC_CountsTo_mVolts, %function
 698              	Infrared_ADC_CountsTo_mVolts:
 699              	.LFB17:
 730:.\Generated_Source\PSoC4/Infrared_ADC.c **** 
 731:.\Generated_Source\PSoC4/Infrared_ADC.c **** 
 732:.\Generated_Source\PSoC4/Infrared_ADC.c **** #if(Infrared_ADC_DEFAULT_JUSTIFICATION_SEL == Infrared_ADC__RIGHT)
 733:.\Generated_Source\PSoC4/Infrared_ADC.c **** 
 734:.\Generated_Source\PSoC4/Infrared_ADC.c **** 
 735:.\Generated_Source\PSoC4/Infrared_ADC.c ****     /*******************************************************************************
 736:.\Generated_Source\PSoC4/Infrared_ADC.c ****     * Function Name: Infrared_ADC_CountsTo_mVolts
 737:.\Generated_Source\PSoC4/Infrared_ADC.c ****     ********************************************************************************
 738:.\Generated_Source\PSoC4/Infrared_ADC.c ****     *
 739:.\Generated_Source\PSoC4/Infrared_ADC.c ****     * Summary:
 740:.\Generated_Source\PSoC4/Infrared_ADC.c ****     *  This function converts ADC counts to mVolts
 741:.\Generated_Source\PSoC4/Infrared_ADC.c ****     *  This function is not available when left data format justification selected.
 742:.\Generated_Source\PSoC4/Infrared_ADC.c ****     *
 743:.\Generated_Source\PSoC4/Infrared_ADC.c ****     * Parameters:
 744:.\Generated_Source\PSoC4/Infrared_ADC.c ****     *  chan: The ADC channel number.
 745:.\Generated_Source\PSoC4/Infrared_ADC.c ****     *  adcCounts: Result from the ADC conversion
 746:.\Generated_Source\PSoC4/Infrared_ADC.c ****     *
 747:.\Generated_Source\PSoC4/Infrared_ADC.c ****     * Return:
 748:.\Generated_Source\PSoC4/Infrared_ADC.c ****     *  Results in mVolts
 749:.\Generated_Source\PSoC4/Infrared_ADC.c ****     *
 750:.\Generated_Source\PSoC4/Infrared_ADC.c ****     * Global variables:
 751:.\Generated_Source\PSoC4/Infrared_ADC.c ****     *  Infrared_ADC_countsPer10Volt:  used to convert ADC counts to mVolts.
 752:.\Generated_Source\PSoC4/Infrared_ADC.c ****     *  Infrared_ADC_Offset:  Used as the offset while converting ADC counts
 753:.\Generated_Source\PSoC4/Infrared_ADC.c ****     *   to mVolts.
 754:.\Generated_Source\PSoC4/Infrared_ADC.c ****     *
 755:.\Generated_Source\PSoC4/Infrared_ADC.c ****     *******************************************************************************/
 756:.\Generated_Source\PSoC4/Infrared_ADC.c ****     int16 Infrared_ADC_CountsTo_mVolts(uint32 chan, int16 adcCounts)
 757:.\Generated_Source\PSoC4/Infrared_ADC.c ****     {
 700              		.loc 1 757 0
 701              		.cfi_startproc
 702              	.LVL47:
 703 0000 38B5     		push	{r3, r4, r5, lr}
 704              		.cfi_def_cfa_offset 16
 705              		.cfi_offset 3, -16
 706              		.cfi_offset 4, -12
 707              		.cfi_offset 5, -8
 708              		.cfi_offset 14, -4
 709 0002 041C     		mov	r4, r0
 710 0004 0D1C     		mov	r5, r1
 758:.\Generated_Source\PSoC4/Infrared_ADC.c ****         int16 mVolts;
 759:.\Generated_Source\PSoC4/Infrared_ADC.c **** 
 760:.\Generated_Source\PSoC4/Infrared_ADC.c ****         /* Halt CPU in debug mode if channel is out of valid range */
 761:.\Generated_Source\PSoC4/Infrared_ADC.c ****         CYASSERT(chan < Infrared_ADC_TOTAL_CHANNELS_NUM);
ARM GAS  C:\Users\Tim\AppData\Local\Temp\ccLA4eUz.s 			page 27


 711              		.loc 1 761 0
 712 0006 0028     		cmp	r0, #0
 713 0008 02D0     		beq	.L63
 714              		.loc 1 761 0 is_stmt 0 discriminator 1
 715 000a 0020     		mov	r0, #0
 716              	.LVL48:
 717 000c FFF7FEFF 		bl	CyHalt
 718              	.LVL49:
 719              	.L63:
 762:.\Generated_Source\PSoC4/Infrared_ADC.c **** 
 763:.\Generated_Source\PSoC4/Infrared_ADC.c ****         /* Divide the adcCount when accumulate averaging mode selected */
 764:.\Generated_Source\PSoC4/Infrared_ADC.c ****         #if(Infrared_ADC_DEFAULT_AVG_MODE == Infrared_ADC__ACCUMULATE)
 765:.\Generated_Source\PSoC4/Infrared_ADC.c ****             if((Infrared_ADC_channelsConfig[chan] & Infrared_ADC_AVERAGING_EN) != 0u)
 766:.\Generated_Source\PSoC4/Infrared_ADC.c ****             {
 767:.\Generated_Source\PSoC4/Infrared_ADC.c ****                 adcCounts /= Infrared_ADC_DEFAULT_AVG_SAMPLES_DIV;
 768:.\Generated_Source\PSoC4/Infrared_ADC.c ****             }
 769:.\Generated_Source\PSoC4/Infrared_ADC.c ****         #endif /* Infrared_ADC_DEFAULT_AVG_MODE == Infrared_ADC__ACCUMULATE */
 770:.\Generated_Source\PSoC4/Infrared_ADC.c **** 
 771:.\Generated_Source\PSoC4/Infrared_ADC.c ****         /* Subtract ADC offset */
 772:.\Generated_Source\PSoC4/Infrared_ADC.c ****         adcCounts -= Infrared_ADC_offset[chan];
 720              		.loc 1 772 0 is_stmt 1
 721 0010 6300     		lsl	r3, r4, #1
 722 0012 0F4A     		ldr	r2, .L66
 723 0014 995A     		ldrh	r1, [r3, r2]
 724 0016 691A     		sub	r1, r5, r1
 725 0018 09B2     		sxth	r1, r1
 726              	.LVL50:
 773:.\Generated_Source\PSoC4/Infrared_ADC.c **** 
 774:.\Generated_Source\PSoC4/Infrared_ADC.c ****         mVolts = (int16)((((int32)adcCounts * Infrared_ADC_10MV_COUNTS) + ( (adcCounts > 0) ?
 727              		.loc 1 774 0
 728 001a 0E48     		ldr	r0, .L66+4
 729 001c 021C     		mov	r2, r0
 730 001e 4A43     		mul	r2, r1
 775:.\Generated_Source\PSoC4/Infrared_ADC.c ****                  (Infrared_ADC_countsPer10Volt[chan] / 2) : (-(Infrared_ADC_countsPer10Volt[chan] /
 731              		.loc 1 775 0
 732 0020 0029     		cmp	r1, #0
 733 0022 06DD     		ble	.L64
 734              		.loc 1 775 0 is_stmt 0 discriminator 1
 735 0024 A300     		lsl	r3, r4, #2
 736 0026 0C49     		ldr	r1, .L66+8
 737              	.LVL51:
 738 0028 5B58     		ldr	r3, [r3, r1]
 739 002a D80F     		lsr	r0, r3, #31
 740 002c C018     		add	r0, r0, r3
 741 002e 4310     		asr	r3, r0, #1
 742 0030 06E0     		b	.L65
 743              	.LVL52:
 744              	.L64:
 745              		.loc 1 775 0 discriminator 2
 746 0032 A300     		lsl	r3, r4, #2
 747 0034 0849     		ldr	r1, .L66+8
 748              	.LVL53:
 749 0036 5B58     		ldr	r3, [r3, r1]
 750 0038 D80F     		lsr	r0, r3, #31
 751 003a C318     		add	r3, r0, r3
 752 003c 5B10     		asr	r3, r3, #1
 753 003e 5B42     		neg	r3, r3
ARM GAS  C:\Users\Tim\AppData\Local\Temp\ccLA4eUz.s 			page 28


 754              	.L65:
 774:.\Generated_Source\PSoC4/Infrared_ADC.c ****                  (Infrared_ADC_countsPer10Volt[chan] / 2) : (-(Infrared_ADC_countsPer10Volt[chan] /
 755              		.loc 1 774 0 is_stmt 1
 756 0040 D018     		add	r0, r2, r3
 776:.\Generated_Source\PSoC4/Infrared_ADC.c ****                  / Infrared_ADC_countsPer10Volt[chan]);
 757              		.loc 1 776 0
 758 0042 A400     		lsl	r4, r4, #2
 759              	.LVL54:
 760 0044 044B     		ldr	r3, .L66+8
 761 0046 E158     		ldr	r1, [r4, r3]
 762 0048 FFF7FEFF 		bl	__aeabi_idiv
 763              	.LVL55:
 777:.\Generated_Source\PSoC4/Infrared_ADC.c **** 
 778:.\Generated_Source\PSoC4/Infrared_ADC.c ****         return( mVolts );
 764              		.loc 1 778 0
 765 004c 00B2     		sxth	r0, r0
 779:.\Generated_Source\PSoC4/Infrared_ADC.c ****     }
 766              		.loc 1 779 0
 767              		@ sp needed
 768 004e 38BD     		pop	{r3, r4, r5, pc}
 769              	.L67:
 770              		.align	2
 771              	.L66:
 772 0050 00000000 		.word	Infrared_ADC_offset
 773 0054 10270000 		.word	10000
 774 0058 00000000 		.word	Infrared_ADC_countsPer10Volt
 775              		.cfi_endproc
 776              	.LFE17:
 777              		.size	Infrared_ADC_CountsTo_mVolts, .-Infrared_ADC_CountsTo_mVolts
 778              		.global	__aeabi_lmul
 779              		.global	__aeabi_ldivmod
 780              		.section	.text.Infrared_ADC_CountsTo_uVolts,"ax",%progbits
 781              		.align	2
 782              		.global	Infrared_ADC_CountsTo_uVolts
 783              		.code	16
 784              		.thumb_func
 785              		.type	Infrared_ADC_CountsTo_uVolts, %function
 786              	Infrared_ADC_CountsTo_uVolts:
 787              	.LFB18:
 780:.\Generated_Source\PSoC4/Infrared_ADC.c **** 
 781:.\Generated_Source\PSoC4/Infrared_ADC.c **** 
 782:.\Generated_Source\PSoC4/Infrared_ADC.c ****     /*******************************************************************************
 783:.\Generated_Source\PSoC4/Infrared_ADC.c ****     * Function Name: Infrared_ADC_CountsTo_uVolts
 784:.\Generated_Source\PSoC4/Infrared_ADC.c ****     ********************************************************************************
 785:.\Generated_Source\PSoC4/Infrared_ADC.c ****     *
 786:.\Generated_Source\PSoC4/Infrared_ADC.c ****     * Summary:
 787:.\Generated_Source\PSoC4/Infrared_ADC.c ****     *  This function converts ADC counts to micro Volts
 788:.\Generated_Source\PSoC4/Infrared_ADC.c ****     *  This function is not available when left data format justification selected.
 789:.\Generated_Source\PSoC4/Infrared_ADC.c ****     *
 790:.\Generated_Source\PSoC4/Infrared_ADC.c ****     * Parameters:
 791:.\Generated_Source\PSoC4/Infrared_ADC.c ****     *  chan: The ADC channel number.
 792:.\Generated_Source\PSoC4/Infrared_ADC.c ****     *  adcCounts: Result from the ADC conversion
 793:.\Generated_Source\PSoC4/Infrared_ADC.c ****     *
 794:.\Generated_Source\PSoC4/Infrared_ADC.c ****     * Return:
 795:.\Generated_Source\PSoC4/Infrared_ADC.c ****     *  Results in uVolts
 796:.\Generated_Source\PSoC4/Infrared_ADC.c ****     *
 797:.\Generated_Source\PSoC4/Infrared_ADC.c ****     * Global variables:
ARM GAS  C:\Users\Tim\AppData\Local\Temp\ccLA4eUz.s 			page 29


 798:.\Generated_Source\PSoC4/Infrared_ADC.c ****     *  Infrared_ADC_countsPer10Volt:  used to convert ADC counts to uVolts.
 799:.\Generated_Source\PSoC4/Infrared_ADC.c ****     *  Infrared_ADC_Offset:  Used as the offset while converting ADC counts
 800:.\Generated_Source\PSoC4/Infrared_ADC.c ****     *   to mVolts.
 801:.\Generated_Source\PSoC4/Infrared_ADC.c ****     *
 802:.\Generated_Source\PSoC4/Infrared_ADC.c ****     * Theory:
 803:.\Generated_Source\PSoC4/Infrared_ADC.c ****     *  Care must be taken to not exceed the maximum value for a 31 bit signed
 804:.\Generated_Source\PSoC4/Infrared_ADC.c ****     *  number in the conversion to uVolts and at the same time not loose
 805:.\Generated_Source\PSoC4/Infrared_ADC.c ****     *  resolution.
 806:.\Generated_Source\PSoC4/Infrared_ADC.c ****     *  To convert adcCounts to microVolts it is required to be multiplied
 807:.\Generated_Source\PSoC4/Infrared_ADC.c ****     *  on 10 million and later divide on gain in counts per 10V.
 808:.\Generated_Source\PSoC4/Infrared_ADC.c ****     *
 809:.\Generated_Source\PSoC4/Infrared_ADC.c ****     *******************************************************************************/
 810:.\Generated_Source\PSoC4/Infrared_ADC.c ****     int32 Infrared_ADC_CountsTo_uVolts(uint32 chan, int16 adcCounts)
 811:.\Generated_Source\PSoC4/Infrared_ADC.c ****     {
 788              		.loc 1 811 0
 789              		.cfi_startproc
 790              	.LVL56:
 791 0000 38B5     		push	{r3, r4, r5, lr}
 792              		.cfi_def_cfa_offset 16
 793              		.cfi_offset 3, -16
 794              		.cfi_offset 4, -12
 795              		.cfi_offset 5, -8
 796              		.cfi_offset 14, -4
 797 0002 051C     		mov	r5, r0
 798 0004 0C1C     		mov	r4, r1
 812:.\Generated_Source\PSoC4/Infrared_ADC.c ****         int64 uVolts;
 813:.\Generated_Source\PSoC4/Infrared_ADC.c **** 
 814:.\Generated_Source\PSoC4/Infrared_ADC.c ****         /* Halt CPU in debug mode if channel is out of valid range */
 815:.\Generated_Source\PSoC4/Infrared_ADC.c ****         CYASSERT(chan < Infrared_ADC_TOTAL_CHANNELS_NUM);
 799              		.loc 1 815 0
 800 0006 0028     		cmp	r0, #0
 801 0008 02D0     		beq	.L69
 802              		.loc 1 815 0 is_stmt 0 discriminator 1
 803 000a 0020     		mov	r0, #0
 804              	.LVL57:
 805 000c FFF7FEFF 		bl	CyHalt
 806              	.LVL58:
 807              	.L69:
 816:.\Generated_Source\PSoC4/Infrared_ADC.c **** 
 817:.\Generated_Source\PSoC4/Infrared_ADC.c ****         /* Divide the adcCount when accumulate averaging mode selected */
 818:.\Generated_Source\PSoC4/Infrared_ADC.c ****         #if(Infrared_ADC_DEFAULT_AVG_MODE == Infrared_ADC__ACCUMULATE)
 819:.\Generated_Source\PSoC4/Infrared_ADC.c ****             if((Infrared_ADC_channelsConfig[chan] & Infrared_ADC_AVERAGING_EN) != 0u)
 820:.\Generated_Source\PSoC4/Infrared_ADC.c ****             {
 821:.\Generated_Source\PSoC4/Infrared_ADC.c ****                 adcCounts /= Infrared_ADC_DEFAULT_AVG_SAMPLES_DIV;
 822:.\Generated_Source\PSoC4/Infrared_ADC.c ****             }
 823:.\Generated_Source\PSoC4/Infrared_ADC.c ****         #endif /* Infrared_ADC_DEFAULT_AVG_MODE == Infrared_ADC__ACCUMULATE */
 824:.\Generated_Source\PSoC4/Infrared_ADC.c **** 
 825:.\Generated_Source\PSoC4/Infrared_ADC.c ****         /* Subtract ADC offset */
 826:.\Generated_Source\PSoC4/Infrared_ADC.c ****         adcCounts -= Infrared_ADC_offset[chan];
 808              		.loc 1 826 0 is_stmt 1
 809 0010 6A00     		lsl	r2, r5, #1
 810 0012 084B     		ldr	r3, .L70
 811 0014 D05A     		ldrh	r0, [r2, r3]
 812 0016 201A     		sub	r0, r4, r0
 813 0018 00B2     		sxth	r0, r0
 814              	.LVL59:
 827:.\Generated_Source\PSoC4/Infrared_ADC.c **** 
ARM GAS  C:\Users\Tim\AppData\Local\Temp\ccLA4eUz.s 			page 30


 828:.\Generated_Source\PSoC4/Infrared_ADC.c ****         uVolts = ((int64)adcCounts * Infrared_ADC_10UV_COUNTS) / Infrared_ADC_countsPer10Volt[chan]
 815              		.loc 1 828 0
 816 001a C117     		asr	r1, r0, #31
 817 001c 064A     		ldr	r2, .L70+4
 818 001e 0023     		mov	r3, #0
 819 0020 FFF7FEFF 		bl	__aeabi_lmul
 820              	.LVL60:
 821 0024 AD00     		lsl	r5, r5, #2
 822              	.LVL61:
 823 0026 054B     		ldr	r3, .L70+8
 824 0028 EA58     		ldr	r2, [r5, r3]
 825 002a D317     		asr	r3, r2, #31
 826 002c FFF7FEFF 		bl	__aeabi_ldivmod
 827              	.LVL62:
 829:.\Generated_Source\PSoC4/Infrared_ADC.c **** 
 830:.\Generated_Source\PSoC4/Infrared_ADC.c ****         return( (int32)uVolts );
 831:.\Generated_Source\PSoC4/Infrared_ADC.c ****     }
 828              		.loc 1 831 0
 829              		@ sp needed
 830 0030 38BD     		pop	{r3, r4, r5, pc}
 831              	.L71:
 832 0032 C046     		.align	2
 833              	.L70:
 834 0034 00000000 		.word	Infrared_ADC_offset
 835 0038 80969800 		.word	10000000
 836 003c 00000000 		.word	Infrared_ADC_countsPer10Volt
 837              		.cfi_endproc
 838              	.LFE18:
 839              		.size	Infrared_ADC_CountsTo_uVolts, .-Infrared_ADC_CountsTo_uVolts
 840              		.global	__aeabi_i2f
 841              		.global	__aeabi_fmul
 842              		.global	__aeabi_fdiv
 843              		.section	.text.Infrared_ADC_CountsTo_Volts,"ax",%progbits
 844              		.align	2
 845              		.global	Infrared_ADC_CountsTo_Volts
 846              		.code	16
 847              		.thumb_func
 848              		.type	Infrared_ADC_CountsTo_Volts, %function
 849              	Infrared_ADC_CountsTo_Volts:
 850              	.LFB19:
 832:.\Generated_Source\PSoC4/Infrared_ADC.c **** 
 833:.\Generated_Source\PSoC4/Infrared_ADC.c **** 
 834:.\Generated_Source\PSoC4/Infrared_ADC.c ****     /*******************************************************************************
 835:.\Generated_Source\PSoC4/Infrared_ADC.c ****     * Function Name: Infrared_ADC_CountsTo_Volts
 836:.\Generated_Source\PSoC4/Infrared_ADC.c ****     ********************************************************************************
 837:.\Generated_Source\PSoC4/Infrared_ADC.c ****     *
 838:.\Generated_Source\PSoC4/Infrared_ADC.c ****     * Summary:
 839:.\Generated_Source\PSoC4/Infrared_ADC.c ****     *  Converts the ADC output to Volts as a floating point number.
 840:.\Generated_Source\PSoC4/Infrared_ADC.c ****     *  This function is not available when left data format justification selected.
 841:.\Generated_Source\PSoC4/Infrared_ADC.c ****     *
 842:.\Generated_Source\PSoC4/Infrared_ADC.c ****     * Parameters:
 843:.\Generated_Source\PSoC4/Infrared_ADC.c ****     *  chan: The ADC channel number.
 844:.\Generated_Source\PSoC4/Infrared_ADC.c ****     *  Result from the ADC conversion
 845:.\Generated_Source\PSoC4/Infrared_ADC.c ****     *
 846:.\Generated_Source\PSoC4/Infrared_ADC.c ****     * Return:
 847:.\Generated_Source\PSoC4/Infrared_ADC.c ****     *  Results in Volts
 848:.\Generated_Source\PSoC4/Infrared_ADC.c ****     *
ARM GAS  C:\Users\Tim\AppData\Local\Temp\ccLA4eUz.s 			page 31


 849:.\Generated_Source\PSoC4/Infrared_ADC.c ****     * Global variables:
 850:.\Generated_Source\PSoC4/Infrared_ADC.c ****     *  Infrared_ADC_countsPer10Volt:  used to convert ADC counts to Volts.
 851:.\Generated_Source\PSoC4/Infrared_ADC.c ****     *  Infrared_ADC_Offset:  Used as the offset while converting ADC counts
 852:.\Generated_Source\PSoC4/Infrared_ADC.c ****     *   to mVolts.
 853:.\Generated_Source\PSoC4/Infrared_ADC.c ****     *
 854:.\Generated_Source\PSoC4/Infrared_ADC.c ****     *******************************************************************************/
 855:.\Generated_Source\PSoC4/Infrared_ADC.c ****     float32 Infrared_ADC_CountsTo_Volts(uint32 chan, int16 adcCounts)
 856:.\Generated_Source\PSoC4/Infrared_ADC.c ****     {
 851              		.loc 1 856 0
 852              		.cfi_startproc
 853              	.LVL63:
 854 0000 38B5     		push	{r3, r4, r5, lr}
 855              		.cfi_def_cfa_offset 16
 856              		.cfi_offset 3, -16
 857              		.cfi_offset 4, -12
 858              		.cfi_offset 5, -8
 859              		.cfi_offset 14, -4
 860 0002 041C     		mov	r4, r0
 861 0004 0D1C     		mov	r5, r1
 857:.\Generated_Source\PSoC4/Infrared_ADC.c ****         float32 volts;
 858:.\Generated_Source\PSoC4/Infrared_ADC.c **** 
 859:.\Generated_Source\PSoC4/Infrared_ADC.c ****         /* Halt CPU in debug mode if channel is out of valid range */
 860:.\Generated_Source\PSoC4/Infrared_ADC.c ****         CYASSERT(chan < Infrared_ADC_TOTAL_CHANNELS_NUM);
 862              		.loc 1 860 0
 863 0006 0028     		cmp	r0, #0
 864 0008 02D0     		beq	.L73
 865              		.loc 1 860 0 is_stmt 0 discriminator 1
 866 000a 0020     		mov	r0, #0
 867              	.LVL64:
 868 000c FFF7FEFF 		bl	CyHalt
 869              	.LVL65:
 870              	.L73:
 861:.\Generated_Source\PSoC4/Infrared_ADC.c **** 
 862:.\Generated_Source\PSoC4/Infrared_ADC.c ****         /* Divide the adcCount when accumulate averaging mode selected */
 863:.\Generated_Source\PSoC4/Infrared_ADC.c ****         #if(Infrared_ADC_DEFAULT_AVG_MODE == Infrared_ADC__ACCUMULATE)
 864:.\Generated_Source\PSoC4/Infrared_ADC.c ****             if((Infrared_ADC_channelsConfig[chan] & Infrared_ADC_AVERAGING_EN) != 0u)
 865:.\Generated_Source\PSoC4/Infrared_ADC.c ****             {
 866:.\Generated_Source\PSoC4/Infrared_ADC.c ****                 adcCounts /= Infrared_ADC_DEFAULT_AVG_SAMPLES_DIV;
 867:.\Generated_Source\PSoC4/Infrared_ADC.c ****             }
 868:.\Generated_Source\PSoC4/Infrared_ADC.c ****         #endif /* Infrared_ADC_DEFAULT_AVG_MODE == Infrared_ADC__ACCUMULATE */
 869:.\Generated_Source\PSoC4/Infrared_ADC.c **** 
 870:.\Generated_Source\PSoC4/Infrared_ADC.c ****         /* Subtract ADC offset */
 871:.\Generated_Source\PSoC4/Infrared_ADC.c ****         adcCounts -= Infrared_ADC_offset[chan];
 871              		.loc 1 871 0 is_stmt 1
 872 0010 6200     		lsl	r2, r4, #1
 873 0012 0A4B     		ldr	r3, .L74
 874 0014 D05A     		ldrh	r0, [r2, r3]
 875 0016 281A     		sub	r0, r5, r0
 876 0018 00B2     		sxth	r0, r0
 877              	.LVL66:
 872:.\Generated_Source\PSoC4/Infrared_ADC.c **** 
 873:.\Generated_Source\PSoC4/Infrared_ADC.c ****         volts = ((float32)adcCounts * Infrared_ADC_10V_COUNTS) / (float32)Infrared_ADC_countsPer10V
 878              		.loc 1 873 0
 879 001a FFF7FEFF 		bl	__aeabi_i2f
 880              	.LVL67:
 881 001e 0849     		ldr	r1, .L74+4
 882 0020 FFF7FEFF 		bl	__aeabi_fmul
ARM GAS  C:\Users\Tim\AppData\Local\Temp\ccLA4eUz.s 			page 32


 883              	.LVL68:
 884 0024 051C     		add	r5, r0, #0
 885 0026 A400     		lsl	r4, r4, #2
 886              	.LVL69:
 887 0028 064B     		ldr	r3, .L74+8
 888 002a E058     		ldr	r0, [r4, r3]
 889 002c FFF7FEFF 		bl	__aeabi_i2f
 890              	.LVL70:
 891 0030 011C     		add	r1, r0, #0
 892 0032 281C     		add	r0, r5, #0
 893 0034 FFF7FEFF 		bl	__aeabi_fdiv
 894              	.LVL71:
 874:.\Generated_Source\PSoC4/Infrared_ADC.c **** 
 875:.\Generated_Source\PSoC4/Infrared_ADC.c ****         return( volts );
 876:.\Generated_Source\PSoC4/Infrared_ADC.c ****     }
 895              		.loc 1 876 0
 896              		@ sp needed
 897 0038 38BD     		pop	{r3, r4, r5, pc}
 898              	.L75:
 899 003a C046     		.align	2
 900              	.L74:
 901 003c 00000000 		.word	Infrared_ADC_offset
 902 0040 00002041 		.word	1092616192
 903 0044 00000000 		.word	Infrared_ADC_countsPer10Volt
 904              		.cfi_endproc
 905              	.LFE19:
 906              		.size	Infrared_ADC_CountsTo_Volts, .-Infrared_ADC_CountsTo_Volts
 907              		.comm	Infrared_ADC_countsPer10Volt,4,4
 908              		.comm	Infrared_ADC_offset,2,4
 909              		.global	Infrared_ADC_initVar
 910              		.bss
 911              		.set	.LANCHOR0,. + 0
 912              		.type	Infrared_ADC_initVar, %object
 913              		.size	Infrared_ADC_initVar, 1
 914              	Infrared_ADC_initVar:
 915 0000 00       		.space	1
 916              		.text
 917              	.Letext0:
 918              		.file 2 ".\\Generated_Source\\PSoC4\\cytypes.h"
 919              		.file 3 ".\\Generated_Source\\PSoC4\\CyLib.h"