ARM GAS  C:\Users\Tim\AppData\Local\Temp\ccP2yGz9.s 			page 1


   1              		.cpu cortex-m0
   2              		.fpu softvfp
   3              		.eabi_attribute 20, 1
   4              		.eabi_attribute 21, 1
   5              		.eabi_attribute 23, 3
   6              		.eabi_attribute 24, 1
   7              		.eabi_attribute 25, 1
   8              		.eabi_attribute 26, 1
   9              		.eabi_attribute 30, 1
  10              		.eabi_attribute 34, 0
  11              		.eabi_attribute 18, 4
  12              		.code	16
  13              		.file	"Left_Phase_Counter.c"
  14              		.text
  15              	.Ltext0:
  16              		.cfi_sections	.debug_frame
  17              		.section	.text.Left_Phase_Counter_Enable,"ax",%progbits
  18              		.align	2
  19              		.global	Left_Phase_Counter_Enable
  20              		.code	16
  21              		.thumb_func
  22              		.type	Left_Phase_Counter_Enable, %function
  23              	Left_Phase_Counter_Enable:
  24              	.LFB3:
  25              		.file 1 ".\\Generated_Source\\PSoC4\\Left_Phase_Counter.c"
   1:.\Generated_Source\PSoC4/Left_Phase_Counter.c **** /*******************************************************************************
   2:.\Generated_Source\PSoC4/Left_Phase_Counter.c **** * File Name: Left_Phase_Counter.c  
   3:.\Generated_Source\PSoC4/Left_Phase_Counter.c **** * Version 3.0
   4:.\Generated_Source\PSoC4/Left_Phase_Counter.c **** *
   5:.\Generated_Source\PSoC4/Left_Phase_Counter.c **** *  Description:
   6:.\Generated_Source\PSoC4/Left_Phase_Counter.c **** *     The Counter component consists of a 8, 16, 24 or 32-bit counter with
   7:.\Generated_Source\PSoC4/Left_Phase_Counter.c **** *     a selectable period between 2 and 2^Width - 1.  
   8:.\Generated_Source\PSoC4/Left_Phase_Counter.c **** *
   9:.\Generated_Source\PSoC4/Left_Phase_Counter.c **** *   Note:
  10:.\Generated_Source\PSoC4/Left_Phase_Counter.c **** *     None
  11:.\Generated_Source\PSoC4/Left_Phase_Counter.c **** *
  12:.\Generated_Source\PSoC4/Left_Phase_Counter.c **** ********************************************************************************
  13:.\Generated_Source\PSoC4/Left_Phase_Counter.c **** * Copyright 2008-2012, Cypress Semiconductor Corporation.  All rights reserved.
  14:.\Generated_Source\PSoC4/Left_Phase_Counter.c **** * You may use this file only in accordance with the license, terms, conditions, 
  15:.\Generated_Source\PSoC4/Left_Phase_Counter.c **** * disclaimers, and limitations in the end user license agreement accompanying 
  16:.\Generated_Source\PSoC4/Left_Phase_Counter.c **** * the software package with which this file was provided.
  17:.\Generated_Source\PSoC4/Left_Phase_Counter.c **** *******************************************************************************/
  18:.\Generated_Source\PSoC4/Left_Phase_Counter.c **** 
  19:.\Generated_Source\PSoC4/Left_Phase_Counter.c **** #include "Left_Phase_Counter.h"
  20:.\Generated_Source\PSoC4/Left_Phase_Counter.c **** 
  21:.\Generated_Source\PSoC4/Left_Phase_Counter.c **** uint8 Left_Phase_Counter_initVar = 0u;
  22:.\Generated_Source\PSoC4/Left_Phase_Counter.c **** 
  23:.\Generated_Source\PSoC4/Left_Phase_Counter.c **** 
  24:.\Generated_Source\PSoC4/Left_Phase_Counter.c **** /*******************************************************************************
  25:.\Generated_Source\PSoC4/Left_Phase_Counter.c **** * Function Name: Left_Phase_Counter_Init
  26:.\Generated_Source\PSoC4/Left_Phase_Counter.c **** ********************************************************************************
  27:.\Generated_Source\PSoC4/Left_Phase_Counter.c **** * Summary:
  28:.\Generated_Source\PSoC4/Left_Phase_Counter.c **** *     Initialize to the schematic state
  29:.\Generated_Source\PSoC4/Left_Phase_Counter.c **** * 
  30:.\Generated_Source\PSoC4/Left_Phase_Counter.c **** * Parameters:  
  31:.\Generated_Source\PSoC4/Left_Phase_Counter.c **** *  void  
  32:.\Generated_Source\PSoC4/Left_Phase_Counter.c **** *
ARM GAS  C:\Users\Tim\AppData\Local\Temp\ccP2yGz9.s 			page 2


  33:.\Generated_Source\PSoC4/Left_Phase_Counter.c **** * Return: 
  34:.\Generated_Source\PSoC4/Left_Phase_Counter.c **** *  void
  35:.\Generated_Source\PSoC4/Left_Phase_Counter.c **** *
  36:.\Generated_Source\PSoC4/Left_Phase_Counter.c **** *******************************************************************************/
  37:.\Generated_Source\PSoC4/Left_Phase_Counter.c **** void Left_Phase_Counter_Init(void) 
  38:.\Generated_Source\PSoC4/Left_Phase_Counter.c **** {
  39:.\Generated_Source\PSoC4/Left_Phase_Counter.c ****         #if (!Left_Phase_Counter_UsingFixedFunction && !Left_Phase_Counter_ControlRegRemoved)
  40:.\Generated_Source\PSoC4/Left_Phase_Counter.c ****             uint8 ctrl;
  41:.\Generated_Source\PSoC4/Left_Phase_Counter.c ****         #endif /* (!Left_Phase_Counter_UsingFixedFunction && !Left_Phase_Counter_ControlRegRemoved)
  42:.\Generated_Source\PSoC4/Left_Phase_Counter.c ****         
  43:.\Generated_Source\PSoC4/Left_Phase_Counter.c ****         #if(!Left_Phase_Counter_UsingFixedFunction) 
  44:.\Generated_Source\PSoC4/Left_Phase_Counter.c ****             /* Interrupt State Backup for Critical Region*/
  45:.\Generated_Source\PSoC4/Left_Phase_Counter.c ****             uint8 Left_Phase_Counter_interruptState;
  46:.\Generated_Source\PSoC4/Left_Phase_Counter.c ****         #endif /* (!Left_Phase_Counter_UsingFixedFunction) */
  47:.\Generated_Source\PSoC4/Left_Phase_Counter.c ****         
  48:.\Generated_Source\PSoC4/Left_Phase_Counter.c ****         #if (Left_Phase_Counter_UsingFixedFunction)
  49:.\Generated_Source\PSoC4/Left_Phase_Counter.c ****             /* Clear all bits but the enable bit (if it's already set for Timer operation */
  50:.\Generated_Source\PSoC4/Left_Phase_Counter.c ****             Left_Phase_Counter_CONTROL &= Left_Phase_Counter_CTRL_ENABLE;
  51:.\Generated_Source\PSoC4/Left_Phase_Counter.c ****             
  52:.\Generated_Source\PSoC4/Left_Phase_Counter.c ****             /* Clear the mode bits for continuous run mode */
  53:.\Generated_Source\PSoC4/Left_Phase_Counter.c ****             #if (CY_PSOC5A)
  54:.\Generated_Source\PSoC4/Left_Phase_Counter.c ****                 Left_Phase_Counter_CONTROL2 &= ((uint8)(~Left_Phase_Counter_CTRL_MODE_MASK));
  55:.\Generated_Source\PSoC4/Left_Phase_Counter.c ****             #endif /* (CY_PSOC5A) */
  56:.\Generated_Source\PSoC4/Left_Phase_Counter.c ****             #if (CY_PSOC3 || CY_PSOC5LP)
  57:.\Generated_Source\PSoC4/Left_Phase_Counter.c ****                 Left_Phase_Counter_CONTROL3 &= ((uint8)(~Left_Phase_Counter_CTRL_MODE_MASK));      
  58:.\Generated_Source\PSoC4/Left_Phase_Counter.c ****             #endif /* (CY_PSOC3 || CY_PSOC5LP) */
  59:.\Generated_Source\PSoC4/Left_Phase_Counter.c ****             /* Check if One Shot mode is enabled i.e. RunMode !=0*/
  60:.\Generated_Source\PSoC4/Left_Phase_Counter.c ****             #if (Left_Phase_Counter_RunModeUsed != 0x0u)
  61:.\Generated_Source\PSoC4/Left_Phase_Counter.c ****                 /* Set 3rd bit of Control register to enable one shot mode */
  62:.\Generated_Source\PSoC4/Left_Phase_Counter.c ****                 Left_Phase_Counter_CONTROL |= Left_Phase_Counter_ONESHOT;
  63:.\Generated_Source\PSoC4/Left_Phase_Counter.c ****             #endif /* (Left_Phase_Counter_RunModeUsed != 0x0u) */
  64:.\Generated_Source\PSoC4/Left_Phase_Counter.c ****             
  65:.\Generated_Source\PSoC4/Left_Phase_Counter.c ****             /* Set the IRQ to use the status register interrupts */
  66:.\Generated_Source\PSoC4/Left_Phase_Counter.c ****             Left_Phase_Counter_CONTROL2 |= Left_Phase_Counter_CTRL2_IRQ_SEL;
  67:.\Generated_Source\PSoC4/Left_Phase_Counter.c ****             
  68:.\Generated_Source\PSoC4/Left_Phase_Counter.c ****             /* Clear and Set SYNCTC and SYNCCMP bits of RT1 register */
  69:.\Generated_Source\PSoC4/Left_Phase_Counter.c ****             Left_Phase_Counter_RT1 &= ((uint8)(~Left_Phase_Counter_RT1_MASK));
  70:.\Generated_Source\PSoC4/Left_Phase_Counter.c ****             Left_Phase_Counter_RT1 |= Left_Phase_Counter_SYNC;     
  71:.\Generated_Source\PSoC4/Left_Phase_Counter.c ****                     
  72:.\Generated_Source\PSoC4/Left_Phase_Counter.c ****             /*Enable DSI Sync all all inputs of the Timer*/
  73:.\Generated_Source\PSoC4/Left_Phase_Counter.c ****             Left_Phase_Counter_RT1 &= ((uint8)(~Left_Phase_Counter_SYNCDSI_MASK));
  74:.\Generated_Source\PSoC4/Left_Phase_Counter.c ****             Left_Phase_Counter_RT1 |= Left_Phase_Counter_SYNCDSI_EN;
  75:.\Generated_Source\PSoC4/Left_Phase_Counter.c **** 
  76:.\Generated_Source\PSoC4/Left_Phase_Counter.c ****         #else
  77:.\Generated_Source\PSoC4/Left_Phase_Counter.c ****             #if(!Left_Phase_Counter_ControlRegRemoved)
  78:.\Generated_Source\PSoC4/Left_Phase_Counter.c ****             /* Set the default compare mode defined in the parameter */
  79:.\Generated_Source\PSoC4/Left_Phase_Counter.c ****             ctrl = Left_Phase_Counter_CONTROL & ((uint8)(~Left_Phase_Counter_CTRL_CMPMODE_MASK));
  80:.\Generated_Source\PSoC4/Left_Phase_Counter.c ****             Left_Phase_Counter_CONTROL = ctrl | Left_Phase_Counter_DEFAULT_COMPARE_MODE;
  81:.\Generated_Source\PSoC4/Left_Phase_Counter.c ****             
  82:.\Generated_Source\PSoC4/Left_Phase_Counter.c ****             /* Set the default capture mode defined in the parameter */
  83:.\Generated_Source\PSoC4/Left_Phase_Counter.c ****             ctrl = Left_Phase_Counter_CONTROL & ((uint8)(~Left_Phase_Counter_CTRL_CAPMODE_MASK));
  84:.\Generated_Source\PSoC4/Left_Phase_Counter.c ****             
  85:.\Generated_Source\PSoC4/Left_Phase_Counter.c ****             #if( 0 != Left_Phase_Counter_CAPTURE_MODE_CONF)
  86:.\Generated_Source\PSoC4/Left_Phase_Counter.c ****                 Left_Phase_Counter_CONTROL = ctrl | Left_Phase_Counter_DEFAULT_CAPTURE_MODE;
  87:.\Generated_Source\PSoC4/Left_Phase_Counter.c ****             #else
  88:.\Generated_Source\PSoC4/Left_Phase_Counter.c ****                 Left_Phase_Counter_CONTROL = ctrl;
  89:.\Generated_Source\PSoC4/Left_Phase_Counter.c ****             #endif /* 0 != Left_Phase_Counter_CAPTURE_MODE */ 
ARM GAS  C:\Users\Tim\AppData\Local\Temp\ccP2yGz9.s 			page 3


  90:.\Generated_Source\PSoC4/Left_Phase_Counter.c ****             
  91:.\Generated_Source\PSoC4/Left_Phase_Counter.c ****             #endif /* (!Left_Phase_Counter_ControlRegRemoved) */
  92:.\Generated_Source\PSoC4/Left_Phase_Counter.c ****         #endif /* (Left_Phase_Counter_UsingFixedFunction) */
  93:.\Generated_Source\PSoC4/Left_Phase_Counter.c ****         
  94:.\Generated_Source\PSoC4/Left_Phase_Counter.c ****         /* Clear all data in the FIFO's */
  95:.\Generated_Source\PSoC4/Left_Phase_Counter.c ****         #if (!Left_Phase_Counter_UsingFixedFunction)
  96:.\Generated_Source\PSoC4/Left_Phase_Counter.c ****             Left_Phase_Counter_ClearFIFO();
  97:.\Generated_Source\PSoC4/Left_Phase_Counter.c ****         #endif /* (!Left_Phase_Counter_UsingFixedFunction) */
  98:.\Generated_Source\PSoC4/Left_Phase_Counter.c ****         
  99:.\Generated_Source\PSoC4/Left_Phase_Counter.c ****         /* Set Initial values from Configuration */
 100:.\Generated_Source\PSoC4/Left_Phase_Counter.c ****         Left_Phase_Counter_WritePeriod(Left_Phase_Counter_INIT_PERIOD_VALUE);
 101:.\Generated_Source\PSoC4/Left_Phase_Counter.c ****         #if (!(Left_Phase_Counter_UsingFixedFunction && (CY_PSOC5A)))
 102:.\Generated_Source\PSoC4/Left_Phase_Counter.c ****             Left_Phase_Counter_WriteCounter(Left_Phase_Counter_INIT_COUNTER_VALUE);
 103:.\Generated_Source\PSoC4/Left_Phase_Counter.c ****         #endif /* (!(Left_Phase_Counter_UsingFixedFunction && (CY_PSOC5A))) */
 104:.\Generated_Source\PSoC4/Left_Phase_Counter.c ****         Left_Phase_Counter_SetInterruptMode(Left_Phase_Counter_INIT_INTERRUPTS_MASK);
 105:.\Generated_Source\PSoC4/Left_Phase_Counter.c ****         
 106:.\Generated_Source\PSoC4/Left_Phase_Counter.c ****         #if (!Left_Phase_Counter_UsingFixedFunction)
 107:.\Generated_Source\PSoC4/Left_Phase_Counter.c ****             /* Read the status register to clear the unwanted interrupts */
 108:.\Generated_Source\PSoC4/Left_Phase_Counter.c ****             (void)Left_Phase_Counter_ReadStatusRegister();
 109:.\Generated_Source\PSoC4/Left_Phase_Counter.c ****             /* Set the compare value (only available to non-fixed function implementation */
 110:.\Generated_Source\PSoC4/Left_Phase_Counter.c ****             Left_Phase_Counter_WriteCompare(Left_Phase_Counter_INIT_COMPARE_VALUE);
 111:.\Generated_Source\PSoC4/Left_Phase_Counter.c ****             /* Use the interrupt output of the status register for IRQ output */
 112:.\Generated_Source\PSoC4/Left_Phase_Counter.c ****             
 113:.\Generated_Source\PSoC4/Left_Phase_Counter.c ****             /* CyEnterCriticalRegion and CyExitCriticalRegion are used to mark following region cri
 114:.\Generated_Source\PSoC4/Left_Phase_Counter.c ****             /* Enter Critical Region*/
 115:.\Generated_Source\PSoC4/Left_Phase_Counter.c ****             Left_Phase_Counter_interruptState = CyEnterCriticalSection();
 116:.\Generated_Source\PSoC4/Left_Phase_Counter.c ****             
 117:.\Generated_Source\PSoC4/Left_Phase_Counter.c ****             Left_Phase_Counter_STATUS_AUX_CTRL |= Left_Phase_Counter_STATUS_ACTL_INT_EN_MASK;
 118:.\Generated_Source\PSoC4/Left_Phase_Counter.c ****             
 119:.\Generated_Source\PSoC4/Left_Phase_Counter.c ****             /* Exit Critical Region*/
 120:.\Generated_Source\PSoC4/Left_Phase_Counter.c ****             CyExitCriticalSection(Left_Phase_Counter_interruptState);
 121:.\Generated_Source\PSoC4/Left_Phase_Counter.c ****             
 122:.\Generated_Source\PSoC4/Left_Phase_Counter.c ****         #endif /* (!Left_Phase_Counter_UsingFixedFunction) */
 123:.\Generated_Source\PSoC4/Left_Phase_Counter.c **** }
 124:.\Generated_Source\PSoC4/Left_Phase_Counter.c **** 
 125:.\Generated_Source\PSoC4/Left_Phase_Counter.c **** 
 126:.\Generated_Source\PSoC4/Left_Phase_Counter.c **** /*******************************************************************************
 127:.\Generated_Source\PSoC4/Left_Phase_Counter.c **** * Function Name: Left_Phase_Counter_Enable
 128:.\Generated_Source\PSoC4/Left_Phase_Counter.c **** ********************************************************************************
 129:.\Generated_Source\PSoC4/Left_Phase_Counter.c **** * Summary:
 130:.\Generated_Source\PSoC4/Left_Phase_Counter.c **** *     Enable the Counter
 131:.\Generated_Source\PSoC4/Left_Phase_Counter.c **** * 
 132:.\Generated_Source\PSoC4/Left_Phase_Counter.c **** * Parameters:  
 133:.\Generated_Source\PSoC4/Left_Phase_Counter.c **** *  void  
 134:.\Generated_Source\PSoC4/Left_Phase_Counter.c **** *
 135:.\Generated_Source\PSoC4/Left_Phase_Counter.c **** * Return: 
 136:.\Generated_Source\PSoC4/Left_Phase_Counter.c **** *  void
 137:.\Generated_Source\PSoC4/Left_Phase_Counter.c **** *
 138:.\Generated_Source\PSoC4/Left_Phase_Counter.c **** * Side Effects: 
 139:.\Generated_Source\PSoC4/Left_Phase_Counter.c **** *   If the Enable mode is set to Hardware only then this function has no effect 
 140:.\Generated_Source\PSoC4/Left_Phase_Counter.c **** *   on the operation of the counter.
 141:.\Generated_Source\PSoC4/Left_Phase_Counter.c **** *
 142:.\Generated_Source\PSoC4/Left_Phase_Counter.c **** *******************************************************************************/
 143:.\Generated_Source\PSoC4/Left_Phase_Counter.c **** void Left_Phase_Counter_Enable(void) 
 144:.\Generated_Source\PSoC4/Left_Phase_Counter.c **** {
  26              		.loc 1 144 0
  27              		.cfi_startproc
ARM GAS  C:\Users\Tim\AppData\Local\Temp\ccP2yGz9.s 			page 4


 145:.\Generated_Source\PSoC4/Left_Phase_Counter.c ****     /* Globally Enable the Fixed Function Block chosen */
 146:.\Generated_Source\PSoC4/Left_Phase_Counter.c ****     #if (Left_Phase_Counter_UsingFixedFunction)
 147:.\Generated_Source\PSoC4/Left_Phase_Counter.c ****         Left_Phase_Counter_GLOBAL_ENABLE |= Left_Phase_Counter_BLOCK_EN_MASK;
 148:.\Generated_Source\PSoC4/Left_Phase_Counter.c ****         Left_Phase_Counter_GLOBAL_STBY_ENABLE |= Left_Phase_Counter_BLOCK_STBY_EN_MASK;
 149:.\Generated_Source\PSoC4/Left_Phase_Counter.c ****     #endif /* (Left_Phase_Counter_UsingFixedFunction) */  
 150:.\Generated_Source\PSoC4/Left_Phase_Counter.c ****         
 151:.\Generated_Source\PSoC4/Left_Phase_Counter.c ****     /* Enable the counter from the control register  */
 152:.\Generated_Source\PSoC4/Left_Phase_Counter.c ****     /* If Fixed Function then make sure Mode is set correctly */
 153:.\Generated_Source\PSoC4/Left_Phase_Counter.c ****     /* else make sure reset is clear */
 154:.\Generated_Source\PSoC4/Left_Phase_Counter.c ****     #if(!Left_Phase_Counter_ControlRegRemoved || Left_Phase_Counter_UsingFixedFunction)
 155:.\Generated_Source\PSoC4/Left_Phase_Counter.c ****         Left_Phase_Counter_CONTROL |= Left_Phase_Counter_CTRL_ENABLE;                
 156:.\Generated_Source\PSoC4/Left_Phase_Counter.c ****     #endif /* (!Left_Phase_Counter_ControlRegRemoved || Left_Phase_Counter_UsingFixedFunction) */
 157:.\Generated_Source\PSoC4/Left_Phase_Counter.c ****     
 158:.\Generated_Source\PSoC4/Left_Phase_Counter.c **** }
  28              		.loc 1 158 0
  29              		@ sp needed
  30 0000 7047     		bx	lr
  31              		.cfi_endproc
  32              	.LFE3:
  33              		.size	Left_Phase_Counter_Enable, .-Left_Phase_Counter_Enable
  34 0002 C046     		.section	.text.Left_Phase_Counter_Stop,"ax",%progbits
  35              		.align	2
  36              		.global	Left_Phase_Counter_Stop
  37              		.code	16
  38              		.thumb_func
  39              		.type	Left_Phase_Counter_Stop, %function
  40              	Left_Phase_Counter_Stop:
  41              	.LFB5:
 159:.\Generated_Source\PSoC4/Left_Phase_Counter.c **** 
 160:.\Generated_Source\PSoC4/Left_Phase_Counter.c **** 
 161:.\Generated_Source\PSoC4/Left_Phase_Counter.c **** /*******************************************************************************
 162:.\Generated_Source\PSoC4/Left_Phase_Counter.c **** * Function Name: Left_Phase_Counter_Start
 163:.\Generated_Source\PSoC4/Left_Phase_Counter.c **** ********************************************************************************
 164:.\Generated_Source\PSoC4/Left_Phase_Counter.c **** * Summary:
 165:.\Generated_Source\PSoC4/Left_Phase_Counter.c **** *  Enables the counter for operation 
 166:.\Generated_Source\PSoC4/Left_Phase_Counter.c **** *
 167:.\Generated_Source\PSoC4/Left_Phase_Counter.c **** * Parameters:  
 168:.\Generated_Source\PSoC4/Left_Phase_Counter.c **** *  void  
 169:.\Generated_Source\PSoC4/Left_Phase_Counter.c **** *
 170:.\Generated_Source\PSoC4/Left_Phase_Counter.c **** * Return: 
 171:.\Generated_Source\PSoC4/Left_Phase_Counter.c **** *  void
 172:.\Generated_Source\PSoC4/Left_Phase_Counter.c **** *
 173:.\Generated_Source\PSoC4/Left_Phase_Counter.c **** * Global variables:
 174:.\Generated_Source\PSoC4/Left_Phase_Counter.c **** *  Left_Phase_Counter_initVar: Is modified when this function is called for the  
 175:.\Generated_Source\PSoC4/Left_Phase_Counter.c **** *   first time. Is used to ensure that initialization happens only once.
 176:.\Generated_Source\PSoC4/Left_Phase_Counter.c **** *
 177:.\Generated_Source\PSoC4/Left_Phase_Counter.c **** *******************************************************************************/
 178:.\Generated_Source\PSoC4/Left_Phase_Counter.c **** void Left_Phase_Counter_Start(void) 
 179:.\Generated_Source\PSoC4/Left_Phase_Counter.c **** {
 180:.\Generated_Source\PSoC4/Left_Phase_Counter.c ****     if(Left_Phase_Counter_initVar == 0u)
 181:.\Generated_Source\PSoC4/Left_Phase_Counter.c ****     {
 182:.\Generated_Source\PSoC4/Left_Phase_Counter.c ****         Left_Phase_Counter_Init();
 183:.\Generated_Source\PSoC4/Left_Phase_Counter.c ****         
 184:.\Generated_Source\PSoC4/Left_Phase_Counter.c ****         Left_Phase_Counter_initVar = 1u; /* Clear this bit for Initialization */        
 185:.\Generated_Source\PSoC4/Left_Phase_Counter.c ****     }
 186:.\Generated_Source\PSoC4/Left_Phase_Counter.c ****     
 187:.\Generated_Source\PSoC4/Left_Phase_Counter.c ****     /* Enable the Counter */
ARM GAS  C:\Users\Tim\AppData\Local\Temp\ccP2yGz9.s 			page 5


 188:.\Generated_Source\PSoC4/Left_Phase_Counter.c ****     Left_Phase_Counter_Enable();        
 189:.\Generated_Source\PSoC4/Left_Phase_Counter.c **** }
 190:.\Generated_Source\PSoC4/Left_Phase_Counter.c **** 
 191:.\Generated_Source\PSoC4/Left_Phase_Counter.c **** 
 192:.\Generated_Source\PSoC4/Left_Phase_Counter.c **** /*******************************************************************************
 193:.\Generated_Source\PSoC4/Left_Phase_Counter.c **** * Function Name: Left_Phase_Counter_Stop
 194:.\Generated_Source\PSoC4/Left_Phase_Counter.c **** ********************************************************************************
 195:.\Generated_Source\PSoC4/Left_Phase_Counter.c **** * Summary:
 196:.\Generated_Source\PSoC4/Left_Phase_Counter.c **** * Halts the counter, but does not change any modes or disable interrupts.
 197:.\Generated_Source\PSoC4/Left_Phase_Counter.c **** *
 198:.\Generated_Source\PSoC4/Left_Phase_Counter.c **** * Parameters:  
 199:.\Generated_Source\PSoC4/Left_Phase_Counter.c **** *  void  
 200:.\Generated_Source\PSoC4/Left_Phase_Counter.c **** *
 201:.\Generated_Source\PSoC4/Left_Phase_Counter.c **** * Return: 
 202:.\Generated_Source\PSoC4/Left_Phase_Counter.c **** *  void
 203:.\Generated_Source\PSoC4/Left_Phase_Counter.c **** *
 204:.\Generated_Source\PSoC4/Left_Phase_Counter.c **** * Side Effects: If the Enable mode is set to Hardware only then this function
 205:.\Generated_Source\PSoC4/Left_Phase_Counter.c **** *               has no effect on the operation of the counter.
 206:.\Generated_Source\PSoC4/Left_Phase_Counter.c **** *
 207:.\Generated_Source\PSoC4/Left_Phase_Counter.c **** *******************************************************************************/
 208:.\Generated_Source\PSoC4/Left_Phase_Counter.c **** void Left_Phase_Counter_Stop(void) 
 209:.\Generated_Source\PSoC4/Left_Phase_Counter.c **** {
  42              		.loc 1 209 0
  43              		.cfi_startproc
 210:.\Generated_Source\PSoC4/Left_Phase_Counter.c ****     /* Disable Counter */
 211:.\Generated_Source\PSoC4/Left_Phase_Counter.c ****     #if(!Left_Phase_Counter_ControlRegRemoved || Left_Phase_Counter_UsingFixedFunction)
 212:.\Generated_Source\PSoC4/Left_Phase_Counter.c ****         Left_Phase_Counter_CONTROL &= ((uint8)(~Left_Phase_Counter_CTRL_ENABLE));        
 213:.\Generated_Source\PSoC4/Left_Phase_Counter.c ****     #endif /* (!Left_Phase_Counter_ControlRegRemoved || Left_Phase_Counter_UsingFixedFunction) */
 214:.\Generated_Source\PSoC4/Left_Phase_Counter.c ****     
 215:.\Generated_Source\PSoC4/Left_Phase_Counter.c ****     /* Globally disable the Fixed Function Block chosen */
 216:.\Generated_Source\PSoC4/Left_Phase_Counter.c ****     #if (Left_Phase_Counter_UsingFixedFunction)
 217:.\Generated_Source\PSoC4/Left_Phase_Counter.c ****         Left_Phase_Counter_GLOBAL_ENABLE &= ((uint8)(~Left_Phase_Counter_BLOCK_EN_MASK));
 218:.\Generated_Source\PSoC4/Left_Phase_Counter.c ****         Left_Phase_Counter_GLOBAL_STBY_ENABLE &= ((uint8)(~Left_Phase_Counter_BLOCK_STBY_EN_MASK));
 219:.\Generated_Source\PSoC4/Left_Phase_Counter.c ****     #endif /* (Left_Phase_Counter_UsingFixedFunction) */
 220:.\Generated_Source\PSoC4/Left_Phase_Counter.c **** }
  44              		.loc 1 220 0
  45              		@ sp needed
  46 0000 7047     		bx	lr
  47              		.cfi_endproc
  48              	.LFE5:
  49              		.size	Left_Phase_Counter_Stop, .-Left_Phase_Counter_Stop
  50 0002 C046     		.section	.text.Left_Phase_Counter_SetInterruptMode,"ax",%progbits
  51              		.align	2
  52              		.global	Left_Phase_Counter_SetInterruptMode
  53              		.code	16
  54              		.thumb_func
  55              		.type	Left_Phase_Counter_SetInterruptMode, %function
  56              	Left_Phase_Counter_SetInterruptMode:
  57              	.LFB6:
 221:.\Generated_Source\PSoC4/Left_Phase_Counter.c **** 
 222:.\Generated_Source\PSoC4/Left_Phase_Counter.c **** 
 223:.\Generated_Source\PSoC4/Left_Phase_Counter.c **** /*******************************************************************************
 224:.\Generated_Source\PSoC4/Left_Phase_Counter.c **** * Function Name: Left_Phase_Counter_SetInterruptMode
 225:.\Generated_Source\PSoC4/Left_Phase_Counter.c **** ********************************************************************************
 226:.\Generated_Source\PSoC4/Left_Phase_Counter.c **** * Summary:
 227:.\Generated_Source\PSoC4/Left_Phase_Counter.c **** * Configures which interrupt sources are enabled to generate the final interrupt
 228:.\Generated_Source\PSoC4/Left_Phase_Counter.c **** *
ARM GAS  C:\Users\Tim\AppData\Local\Temp\ccP2yGz9.s 			page 6


 229:.\Generated_Source\PSoC4/Left_Phase_Counter.c **** * Parameters:  
 230:.\Generated_Source\PSoC4/Left_Phase_Counter.c **** *  InterruptsMask: This parameter is an or'd collection of the status bits
 231:.\Generated_Source\PSoC4/Left_Phase_Counter.c **** *                   which will be allowed to generate the counters interrupt.   
 232:.\Generated_Source\PSoC4/Left_Phase_Counter.c **** *
 233:.\Generated_Source\PSoC4/Left_Phase_Counter.c **** * Return: 
 234:.\Generated_Source\PSoC4/Left_Phase_Counter.c **** *  void
 235:.\Generated_Source\PSoC4/Left_Phase_Counter.c **** *
 236:.\Generated_Source\PSoC4/Left_Phase_Counter.c **** *******************************************************************************/
 237:.\Generated_Source\PSoC4/Left_Phase_Counter.c **** void Left_Phase_Counter_SetInterruptMode(uint8 interruptsMask) 
 238:.\Generated_Source\PSoC4/Left_Phase_Counter.c **** {
  58              		.loc 1 238 0
  59              		.cfi_startproc
  60              	.LVL0:
 239:.\Generated_Source\PSoC4/Left_Phase_Counter.c ****     Left_Phase_Counter_STATUS_MASK = interruptsMask;
  61              		.loc 1 239 0
  62 0000 014B     		ldr	r3, .L4
  63 0002 1870     		strb	r0, [r3]
 240:.\Generated_Source\PSoC4/Left_Phase_Counter.c **** }
  64              		.loc 1 240 0
  65              		@ sp needed
  66 0004 7047     		bx	lr
  67              	.L5:
  68 0006 C046     		.align	2
  69              	.L4:
  70 0008 87000F40 		.word	1074724999
  71              		.cfi_endproc
  72              	.LFE6:
  73              		.size	Left_Phase_Counter_SetInterruptMode, .-Left_Phase_Counter_SetInterruptMode
  74              		.section	.text.Left_Phase_Counter_ReadStatusRegister,"ax",%progbits
  75              		.align	2
  76              		.global	Left_Phase_Counter_ReadStatusRegister
  77              		.code	16
  78              		.thumb_func
  79              		.type	Left_Phase_Counter_ReadStatusRegister, %function
  80              	Left_Phase_Counter_ReadStatusRegister:
  81              	.LFB7:
 241:.\Generated_Source\PSoC4/Left_Phase_Counter.c **** 
 242:.\Generated_Source\PSoC4/Left_Phase_Counter.c **** 
 243:.\Generated_Source\PSoC4/Left_Phase_Counter.c **** /*******************************************************************************
 244:.\Generated_Source\PSoC4/Left_Phase_Counter.c **** * Function Name: Left_Phase_Counter_ReadStatusRegister
 245:.\Generated_Source\PSoC4/Left_Phase_Counter.c **** ********************************************************************************
 246:.\Generated_Source\PSoC4/Left_Phase_Counter.c **** * Summary:
 247:.\Generated_Source\PSoC4/Left_Phase_Counter.c **** *   Reads the status register and returns it's state. This function should use
 248:.\Generated_Source\PSoC4/Left_Phase_Counter.c **** *       defined types for the bit-field information as the bits in this
 249:.\Generated_Source\PSoC4/Left_Phase_Counter.c **** *       register may be permuteable.
 250:.\Generated_Source\PSoC4/Left_Phase_Counter.c **** *
 251:.\Generated_Source\PSoC4/Left_Phase_Counter.c **** * Parameters:  
 252:.\Generated_Source\PSoC4/Left_Phase_Counter.c **** *  void
 253:.\Generated_Source\PSoC4/Left_Phase_Counter.c **** *
 254:.\Generated_Source\PSoC4/Left_Phase_Counter.c **** * Return: 
 255:.\Generated_Source\PSoC4/Left_Phase_Counter.c **** *  (uint8) The contents of the status register
 256:.\Generated_Source\PSoC4/Left_Phase_Counter.c **** *
 257:.\Generated_Source\PSoC4/Left_Phase_Counter.c **** * Side Effects:
 258:.\Generated_Source\PSoC4/Left_Phase_Counter.c **** *   Status register bits may be clear on read. 
 259:.\Generated_Source\PSoC4/Left_Phase_Counter.c **** *
 260:.\Generated_Source\PSoC4/Left_Phase_Counter.c **** *******************************************************************************/
 261:.\Generated_Source\PSoC4/Left_Phase_Counter.c **** uint8   Left_Phase_Counter_ReadStatusRegister(void) 
ARM GAS  C:\Users\Tim\AppData\Local\Temp\ccP2yGz9.s 			page 7


 262:.\Generated_Source\PSoC4/Left_Phase_Counter.c **** {
  82              		.loc 1 262 0
  83              		.cfi_startproc
 263:.\Generated_Source\PSoC4/Left_Phase_Counter.c ****     return Left_Phase_Counter_STATUS;
  84              		.loc 1 263 0
  85 0000 014B     		ldr	r3, .L7
  86 0002 1878     		ldrb	r0, [r3]
  87 0004 C0B2     		uxtb	r0, r0
 264:.\Generated_Source\PSoC4/Left_Phase_Counter.c **** }
  88              		.loc 1 264 0
  89              		@ sp needed
  90 0006 7047     		bx	lr
  91              	.L8:
  92              		.align	2
  93              	.L7:
  94 0008 67000F40 		.word	1074724967
  95              		.cfi_endproc
  96              	.LFE7:
  97              		.size	Left_Phase_Counter_ReadStatusRegister, .-Left_Phase_Counter_ReadStatusRegister
  98              		.section	.text.Left_Phase_Counter_WriteCounter,"ax",%progbits
  99              		.align	2
 100              		.global	Left_Phase_Counter_WriteCounter
 101              		.code	16
 102              		.thumb_func
 103              		.type	Left_Phase_Counter_WriteCounter, %function
 104              	Left_Phase_Counter_WriteCounter:
 105              	.LFB8:
 265:.\Generated_Source\PSoC4/Left_Phase_Counter.c **** 
 266:.\Generated_Source\PSoC4/Left_Phase_Counter.c **** 
 267:.\Generated_Source\PSoC4/Left_Phase_Counter.c **** #if(!Left_Phase_Counter_ControlRegRemoved)
 268:.\Generated_Source\PSoC4/Left_Phase_Counter.c **** /*******************************************************************************
 269:.\Generated_Source\PSoC4/Left_Phase_Counter.c **** * Function Name: Left_Phase_Counter_ReadControlRegister
 270:.\Generated_Source\PSoC4/Left_Phase_Counter.c **** ********************************************************************************
 271:.\Generated_Source\PSoC4/Left_Phase_Counter.c **** * Summary:
 272:.\Generated_Source\PSoC4/Left_Phase_Counter.c **** *   Reads the control register and returns it's state. This function should use
 273:.\Generated_Source\PSoC4/Left_Phase_Counter.c **** *       defined types for the bit-field information as the bits in this
 274:.\Generated_Source\PSoC4/Left_Phase_Counter.c **** *       register may be permuteable.
 275:.\Generated_Source\PSoC4/Left_Phase_Counter.c **** *
 276:.\Generated_Source\PSoC4/Left_Phase_Counter.c **** * Parameters:  
 277:.\Generated_Source\PSoC4/Left_Phase_Counter.c **** *  void
 278:.\Generated_Source\PSoC4/Left_Phase_Counter.c **** *
 279:.\Generated_Source\PSoC4/Left_Phase_Counter.c **** * Return: 
 280:.\Generated_Source\PSoC4/Left_Phase_Counter.c **** *  (uint8) The contents of the control register
 281:.\Generated_Source\PSoC4/Left_Phase_Counter.c **** *
 282:.\Generated_Source\PSoC4/Left_Phase_Counter.c **** *******************************************************************************/
 283:.\Generated_Source\PSoC4/Left_Phase_Counter.c **** uint8   Left_Phase_Counter_ReadControlRegister(void) 
 284:.\Generated_Source\PSoC4/Left_Phase_Counter.c **** {
 285:.\Generated_Source\PSoC4/Left_Phase_Counter.c ****     return Left_Phase_Counter_CONTROL;
 286:.\Generated_Source\PSoC4/Left_Phase_Counter.c **** }
 287:.\Generated_Source\PSoC4/Left_Phase_Counter.c **** 
 288:.\Generated_Source\PSoC4/Left_Phase_Counter.c **** 
 289:.\Generated_Source\PSoC4/Left_Phase_Counter.c **** /*******************************************************************************
 290:.\Generated_Source\PSoC4/Left_Phase_Counter.c **** * Function Name: Left_Phase_Counter_WriteControlRegister
 291:.\Generated_Source\PSoC4/Left_Phase_Counter.c **** ********************************************************************************
 292:.\Generated_Source\PSoC4/Left_Phase_Counter.c **** * Summary:
 293:.\Generated_Source\PSoC4/Left_Phase_Counter.c **** *   Sets the bit-field of the control register.  This function should use
 294:.\Generated_Source\PSoC4/Left_Phase_Counter.c **** *       defined types for the bit-field information as the bits in this
ARM GAS  C:\Users\Tim\AppData\Local\Temp\ccP2yGz9.s 			page 8


 295:.\Generated_Source\PSoC4/Left_Phase_Counter.c **** *       register may be permuteable.
 296:.\Generated_Source\PSoC4/Left_Phase_Counter.c **** *
 297:.\Generated_Source\PSoC4/Left_Phase_Counter.c **** * Parameters:  
 298:.\Generated_Source\PSoC4/Left_Phase_Counter.c **** *  void
 299:.\Generated_Source\PSoC4/Left_Phase_Counter.c **** *
 300:.\Generated_Source\PSoC4/Left_Phase_Counter.c **** * Return: 
 301:.\Generated_Source\PSoC4/Left_Phase_Counter.c **** *  (uint8) The contents of the control register
 302:.\Generated_Source\PSoC4/Left_Phase_Counter.c **** *
 303:.\Generated_Source\PSoC4/Left_Phase_Counter.c **** *******************************************************************************/
 304:.\Generated_Source\PSoC4/Left_Phase_Counter.c **** void    Left_Phase_Counter_WriteControlRegister(uint8 control) 
 305:.\Generated_Source\PSoC4/Left_Phase_Counter.c **** {
 306:.\Generated_Source\PSoC4/Left_Phase_Counter.c ****     Left_Phase_Counter_CONTROL = control;
 307:.\Generated_Source\PSoC4/Left_Phase_Counter.c **** }
 308:.\Generated_Source\PSoC4/Left_Phase_Counter.c **** 
 309:.\Generated_Source\PSoC4/Left_Phase_Counter.c **** #endif  /* (!Left_Phase_Counter_ControlRegRemoved) */
 310:.\Generated_Source\PSoC4/Left_Phase_Counter.c **** 
 311:.\Generated_Source\PSoC4/Left_Phase_Counter.c **** 
 312:.\Generated_Source\PSoC4/Left_Phase_Counter.c **** #if (!(Left_Phase_Counter_UsingFixedFunction && (CY_PSOC5A)))
 313:.\Generated_Source\PSoC4/Left_Phase_Counter.c **** /*******************************************************************************
 314:.\Generated_Source\PSoC4/Left_Phase_Counter.c **** * Function Name: Left_Phase_Counter_WriteCounter
 315:.\Generated_Source\PSoC4/Left_Phase_Counter.c **** ********************************************************************************
 316:.\Generated_Source\PSoC4/Left_Phase_Counter.c **** * Summary:
 317:.\Generated_Source\PSoC4/Left_Phase_Counter.c **** *   This funtion is used to set the counter to a specific value
 318:.\Generated_Source\PSoC4/Left_Phase_Counter.c **** *
 319:.\Generated_Source\PSoC4/Left_Phase_Counter.c **** * Parameters:  
 320:.\Generated_Source\PSoC4/Left_Phase_Counter.c **** *  counter:  New counter value. 
 321:.\Generated_Source\PSoC4/Left_Phase_Counter.c **** *
 322:.\Generated_Source\PSoC4/Left_Phase_Counter.c **** * Return: 
 323:.\Generated_Source\PSoC4/Left_Phase_Counter.c **** *  void 
 324:.\Generated_Source\PSoC4/Left_Phase_Counter.c **** *
 325:.\Generated_Source\PSoC4/Left_Phase_Counter.c **** *******************************************************************************/
 326:.\Generated_Source\PSoC4/Left_Phase_Counter.c **** void Left_Phase_Counter_WriteCounter(uint32 counter) \
 327:.\Generated_Source\PSoC4/Left_Phase_Counter.c ****                                    
 328:.\Generated_Source\PSoC4/Left_Phase_Counter.c **** {
 106              		.loc 1 328 0
 107              		.cfi_startproc
 108              	.LVL1:
 329:.\Generated_Source\PSoC4/Left_Phase_Counter.c ****     #if(Left_Phase_Counter_UsingFixedFunction)
 330:.\Generated_Source\PSoC4/Left_Phase_Counter.c ****         /* assert if block is already enabled */
 331:.\Generated_Source\PSoC4/Left_Phase_Counter.c ****         CYASSERT (0u == (Left_Phase_Counter_GLOBAL_ENABLE & Left_Phase_Counter_BLOCK_EN_MASK));
 332:.\Generated_Source\PSoC4/Left_Phase_Counter.c ****         /* If block is disabled, enable it and then write the counter */
 333:.\Generated_Source\PSoC4/Left_Phase_Counter.c ****         Left_Phase_Counter_GLOBAL_ENABLE |= Left_Phase_Counter_BLOCK_EN_MASK;
 334:.\Generated_Source\PSoC4/Left_Phase_Counter.c ****         CY_SET_REG16(Left_Phase_Counter_COUNTER_LSB_PTR, (uint16)counter);
 335:.\Generated_Source\PSoC4/Left_Phase_Counter.c ****         Left_Phase_Counter_GLOBAL_ENABLE &= ((uint8)(~Left_Phase_Counter_BLOCK_EN_MASK));
 336:.\Generated_Source\PSoC4/Left_Phase_Counter.c ****     #else
 337:.\Generated_Source\PSoC4/Left_Phase_Counter.c ****         CY_SET_REG32(Left_Phase_Counter_COUNTER_LSB_PTR, counter);
 109              		.loc 1 337 0
 110 0000 014B     		ldr	r3, .L10
 111 0002 1860     		str	r0, [r3]
 338:.\Generated_Source\PSoC4/Left_Phase_Counter.c ****     #endif /* (Left_Phase_Counter_UsingFixedFunction) */
 339:.\Generated_Source\PSoC4/Left_Phase_Counter.c **** }
 112              		.loc 1 339 0
 113              		@ sp needed
 114 0004 7047     		bx	lr
 115              	.L11:
 116 0006 C046     		.align	2
 117              	.L10:
ARM GAS  C:\Users\Tim\AppData\Local\Temp\ccP2yGz9.s 			page 9


 118 0008 10200F40 		.word	1074733072
 119              		.cfi_endproc
 120              	.LFE8:
 121              		.size	Left_Phase_Counter_WriteCounter, .-Left_Phase_Counter_WriteCounter
 122              		.section	.text.Left_Phase_Counter_ReadCounter,"ax",%progbits
 123              		.align	2
 124              		.global	Left_Phase_Counter_ReadCounter
 125              		.code	16
 126              		.thumb_func
 127              		.type	Left_Phase_Counter_ReadCounter, %function
 128              	Left_Phase_Counter_ReadCounter:
 129              	.LFB9:
 340:.\Generated_Source\PSoC4/Left_Phase_Counter.c **** #endif /* (!(Left_Phase_Counter_UsingFixedFunction && (CY_PSOC5A))) */
 341:.\Generated_Source\PSoC4/Left_Phase_Counter.c **** 
 342:.\Generated_Source\PSoC4/Left_Phase_Counter.c **** 
 343:.\Generated_Source\PSoC4/Left_Phase_Counter.c **** /*******************************************************************************
 344:.\Generated_Source\PSoC4/Left_Phase_Counter.c **** * Function Name: Left_Phase_Counter_ReadCounter
 345:.\Generated_Source\PSoC4/Left_Phase_Counter.c **** ********************************************************************************
 346:.\Generated_Source\PSoC4/Left_Phase_Counter.c **** * Summary:
 347:.\Generated_Source\PSoC4/Left_Phase_Counter.c **** * Returns the current value of the counter.  It doesn't matter
 348:.\Generated_Source\PSoC4/Left_Phase_Counter.c **** * if the counter is enabled or running.
 349:.\Generated_Source\PSoC4/Left_Phase_Counter.c **** *
 350:.\Generated_Source\PSoC4/Left_Phase_Counter.c **** * Parameters:  
 351:.\Generated_Source\PSoC4/Left_Phase_Counter.c **** *  void:  
 352:.\Generated_Source\PSoC4/Left_Phase_Counter.c **** *
 353:.\Generated_Source\PSoC4/Left_Phase_Counter.c **** * Return: 
 354:.\Generated_Source\PSoC4/Left_Phase_Counter.c **** *  (uint32) The present value of the counter.
 355:.\Generated_Source\PSoC4/Left_Phase_Counter.c **** *
 356:.\Generated_Source\PSoC4/Left_Phase_Counter.c **** *******************************************************************************/
 357:.\Generated_Source\PSoC4/Left_Phase_Counter.c **** uint32 Left_Phase_Counter_ReadCounter(void) 
 358:.\Generated_Source\PSoC4/Left_Phase_Counter.c **** {
 130              		.loc 1 358 0
 131              		.cfi_startproc
 359:.\Generated_Source\PSoC4/Left_Phase_Counter.c ****     /* Force capture by reading Accumulator */
 360:.\Generated_Source\PSoC4/Left_Phase_Counter.c ****     /* Must first do a software capture to be able to read the counter */
 361:.\Generated_Source\PSoC4/Left_Phase_Counter.c ****     /* It is up to the user code to make sure there isn't already captured data in the FIFO */
 362:.\Generated_Source\PSoC4/Left_Phase_Counter.c ****     #if(Left_Phase_Counter_UsingFixedFunction)
 363:.\Generated_Source\PSoC4/Left_Phase_Counter.c **** 		(void)CY_GET_REG16(Left_Phase_Counter_COUNTER_LSB_PTR);
 364:.\Generated_Source\PSoC4/Left_Phase_Counter.c **** 	#else
 365:.\Generated_Source\PSoC4/Left_Phase_Counter.c **** 		(void)CY_GET_REG8(Left_Phase_Counter_COUNTER_LSB_PTR_8BIT);
 132              		.loc 1 365 0
 133 0000 024B     		ldr	r3, .L13
 134 0002 1B78     		ldrb	r3, [r3]
 366:.\Generated_Source\PSoC4/Left_Phase_Counter.c **** 	#endif/* (Left_Phase_Counter_UsingFixedFunction) */
 367:.\Generated_Source\PSoC4/Left_Phase_Counter.c ****     
 368:.\Generated_Source\PSoC4/Left_Phase_Counter.c ****     /* Read the data from the FIFO (or capture register for Fixed Function)*/
 369:.\Generated_Source\PSoC4/Left_Phase_Counter.c ****     #if(Left_Phase_Counter_UsingFixedFunction)
 370:.\Generated_Source\PSoC4/Left_Phase_Counter.c ****         return ((uint32)CY_GET_REG16(Left_Phase_Counter_STATICCOUNT_LSB_PTR));
 371:.\Generated_Source\PSoC4/Left_Phase_Counter.c ****     #else
 372:.\Generated_Source\PSoC4/Left_Phase_Counter.c ****         return (CY_GET_REG32(Left_Phase_Counter_STATICCOUNT_LSB_PTR));
 135              		.loc 1 372 0
 136 0004 024B     		ldr	r3, .L13+4
 137 0006 1868     		ldr	r0, [r3]
 373:.\Generated_Source\PSoC4/Left_Phase_Counter.c ****     #endif /* (Left_Phase_Counter_UsingFixedFunction) */
 374:.\Generated_Source\PSoC4/Left_Phase_Counter.c **** }
 138              		.loc 1 374 0
 139              		@ sp needed
ARM GAS  C:\Users\Tim\AppData\Local\Temp\ccP2yGz9.s 			page 10


 140 0008 7047     		bx	lr
 141              	.L14:
 142 000a C046     		.align	2
 143              	.L13:
 144 000c 04000F40 		.word	1074724868
 145 0010 10210F40 		.word	1074733328
 146              		.cfi_endproc
 147              	.LFE9:
 148              		.size	Left_Phase_Counter_ReadCounter, .-Left_Phase_Counter_ReadCounter
 149              		.section	.text.Left_Phase_Counter_ReadCapture,"ax",%progbits
 150              		.align	2
 151              		.global	Left_Phase_Counter_ReadCapture
 152              		.code	16
 153              		.thumb_func
 154              		.type	Left_Phase_Counter_ReadCapture, %function
 155              	Left_Phase_Counter_ReadCapture:
 156              	.LFB10:
 375:.\Generated_Source\PSoC4/Left_Phase_Counter.c **** 
 376:.\Generated_Source\PSoC4/Left_Phase_Counter.c **** 
 377:.\Generated_Source\PSoC4/Left_Phase_Counter.c **** /*******************************************************************************
 378:.\Generated_Source\PSoC4/Left_Phase_Counter.c **** * Function Name: Left_Phase_Counter_ReadCapture
 379:.\Generated_Source\PSoC4/Left_Phase_Counter.c **** ********************************************************************************
 380:.\Generated_Source\PSoC4/Left_Phase_Counter.c **** * Summary:
 381:.\Generated_Source\PSoC4/Left_Phase_Counter.c **** *   This function returns the last value captured.
 382:.\Generated_Source\PSoC4/Left_Phase_Counter.c **** *
 383:.\Generated_Source\PSoC4/Left_Phase_Counter.c **** * Parameters:  
 384:.\Generated_Source\PSoC4/Left_Phase_Counter.c **** *  void
 385:.\Generated_Source\PSoC4/Left_Phase_Counter.c **** *
 386:.\Generated_Source\PSoC4/Left_Phase_Counter.c **** * Return: 
 387:.\Generated_Source\PSoC4/Left_Phase_Counter.c **** *  (uint32) Present Capture value.
 388:.\Generated_Source\PSoC4/Left_Phase_Counter.c **** *
 389:.\Generated_Source\PSoC4/Left_Phase_Counter.c **** *******************************************************************************/
 390:.\Generated_Source\PSoC4/Left_Phase_Counter.c **** uint32 Left_Phase_Counter_ReadCapture(void) 
 391:.\Generated_Source\PSoC4/Left_Phase_Counter.c **** {
 157              		.loc 1 391 0
 158              		.cfi_startproc
 392:.\Generated_Source\PSoC4/Left_Phase_Counter.c ****     #if(Left_Phase_Counter_UsingFixedFunction)
 393:.\Generated_Source\PSoC4/Left_Phase_Counter.c ****         return ((uint32)CY_GET_REG16(Left_Phase_Counter_STATICCOUNT_LSB_PTR));
 394:.\Generated_Source\PSoC4/Left_Phase_Counter.c ****     #else
 395:.\Generated_Source\PSoC4/Left_Phase_Counter.c ****         return (CY_GET_REG32(Left_Phase_Counter_STATICCOUNT_LSB_PTR));
 159              		.loc 1 395 0
 160 0000 014B     		ldr	r3, .L16
 161 0002 1868     		ldr	r0, [r3]
 396:.\Generated_Source\PSoC4/Left_Phase_Counter.c ****     #endif /* (Left_Phase_Counter_UsingFixedFunction) */
 397:.\Generated_Source\PSoC4/Left_Phase_Counter.c **** }
 162              		.loc 1 397 0
 163              		@ sp needed
 164 0004 7047     		bx	lr
 165              	.L17:
 166 0006 C046     		.align	2
 167              	.L16:
 168 0008 10210F40 		.word	1074733328
 169              		.cfi_endproc
 170              	.LFE10:
 171              		.size	Left_Phase_Counter_ReadCapture, .-Left_Phase_Counter_ReadCapture
 172              		.section	.text.Left_Phase_Counter_WritePeriod,"ax",%progbits
 173              		.align	2
ARM GAS  C:\Users\Tim\AppData\Local\Temp\ccP2yGz9.s 			page 11


 174              		.global	Left_Phase_Counter_WritePeriod
 175              		.code	16
 176              		.thumb_func
 177              		.type	Left_Phase_Counter_WritePeriod, %function
 178              	Left_Phase_Counter_WritePeriod:
 179              	.LFB11:
 398:.\Generated_Source\PSoC4/Left_Phase_Counter.c **** 
 399:.\Generated_Source\PSoC4/Left_Phase_Counter.c **** 
 400:.\Generated_Source\PSoC4/Left_Phase_Counter.c **** /*******************************************************************************
 401:.\Generated_Source\PSoC4/Left_Phase_Counter.c **** * Function Name: Left_Phase_Counter_WritePeriod
 402:.\Generated_Source\PSoC4/Left_Phase_Counter.c **** ********************************************************************************
 403:.\Generated_Source\PSoC4/Left_Phase_Counter.c **** * Summary:
 404:.\Generated_Source\PSoC4/Left_Phase_Counter.c **** * Changes the period of the counter.  The new period 
 405:.\Generated_Source\PSoC4/Left_Phase_Counter.c **** * will be loaded the next time terminal count is detected.
 406:.\Generated_Source\PSoC4/Left_Phase_Counter.c **** *
 407:.\Generated_Source\PSoC4/Left_Phase_Counter.c **** * Parameters:  
 408:.\Generated_Source\PSoC4/Left_Phase_Counter.c **** *  period: (uint32) A value of 0 will result in
 409:.\Generated_Source\PSoC4/Left_Phase_Counter.c **** *         the counter remaining at zero.  
 410:.\Generated_Source\PSoC4/Left_Phase_Counter.c **** *
 411:.\Generated_Source\PSoC4/Left_Phase_Counter.c **** * Return: 
 412:.\Generated_Source\PSoC4/Left_Phase_Counter.c **** *  void
 413:.\Generated_Source\PSoC4/Left_Phase_Counter.c **** *
 414:.\Generated_Source\PSoC4/Left_Phase_Counter.c **** *******************************************************************************/
 415:.\Generated_Source\PSoC4/Left_Phase_Counter.c **** void Left_Phase_Counter_WritePeriod(uint32 period) 
 416:.\Generated_Source\PSoC4/Left_Phase_Counter.c **** {
 180              		.loc 1 416 0
 181              		.cfi_startproc
 182              	.LVL2:
 417:.\Generated_Source\PSoC4/Left_Phase_Counter.c ****     #if(Left_Phase_Counter_UsingFixedFunction)
 418:.\Generated_Source\PSoC4/Left_Phase_Counter.c ****         CY_SET_REG16(Left_Phase_Counter_PERIOD_LSB_PTR,(uint16)period);
 419:.\Generated_Source\PSoC4/Left_Phase_Counter.c ****     #else
 420:.\Generated_Source\PSoC4/Left_Phase_Counter.c ****         CY_SET_REG32(Left_Phase_Counter_PERIOD_LSB_PTR, period);
 183              		.loc 1 420 0
 184 0000 014B     		ldr	r3, .L19
 185 0002 1860     		str	r0, [r3]
 421:.\Generated_Source\PSoC4/Left_Phase_Counter.c ****     #endif /* (Left_Phase_Counter_UsingFixedFunction) */
 422:.\Generated_Source\PSoC4/Left_Phase_Counter.c **** }
 186              		.loc 1 422 0
 187              		@ sp needed
 188 0004 7047     		bx	lr
 189              	.L20:
 190 0006 C046     		.align	2
 191              	.L19:
 192 0008 90200F40 		.word	1074733200
 193              		.cfi_endproc
 194              	.LFE11:
 195              		.size	Left_Phase_Counter_WritePeriod, .-Left_Phase_Counter_WritePeriod
 196              		.section	.text.Left_Phase_Counter_ReadPeriod,"ax",%progbits
 197              		.align	2
 198              		.global	Left_Phase_Counter_ReadPeriod
 199              		.code	16
 200              		.thumb_func
 201              		.type	Left_Phase_Counter_ReadPeriod, %function
 202              	Left_Phase_Counter_ReadPeriod:
 203              	.LFB12:
 423:.\Generated_Source\PSoC4/Left_Phase_Counter.c **** 
 424:.\Generated_Source\PSoC4/Left_Phase_Counter.c **** 
ARM GAS  C:\Users\Tim\AppData\Local\Temp\ccP2yGz9.s 			page 12


 425:.\Generated_Source\PSoC4/Left_Phase_Counter.c **** /*******************************************************************************
 426:.\Generated_Source\PSoC4/Left_Phase_Counter.c **** * Function Name: Left_Phase_Counter_ReadPeriod
 427:.\Generated_Source\PSoC4/Left_Phase_Counter.c **** ********************************************************************************
 428:.\Generated_Source\PSoC4/Left_Phase_Counter.c **** * Summary:
 429:.\Generated_Source\PSoC4/Left_Phase_Counter.c **** * Reads the current period value without affecting counter operation.
 430:.\Generated_Source\PSoC4/Left_Phase_Counter.c **** *
 431:.\Generated_Source\PSoC4/Left_Phase_Counter.c **** * Parameters:  
 432:.\Generated_Source\PSoC4/Left_Phase_Counter.c **** *  void:  
 433:.\Generated_Source\PSoC4/Left_Phase_Counter.c **** *
 434:.\Generated_Source\PSoC4/Left_Phase_Counter.c **** * Return: 
 435:.\Generated_Source\PSoC4/Left_Phase_Counter.c **** *  (uint32) Present period value.
 436:.\Generated_Source\PSoC4/Left_Phase_Counter.c **** *
 437:.\Generated_Source\PSoC4/Left_Phase_Counter.c **** *******************************************************************************/
 438:.\Generated_Source\PSoC4/Left_Phase_Counter.c **** uint32 Left_Phase_Counter_ReadPeriod(void) 
 439:.\Generated_Source\PSoC4/Left_Phase_Counter.c **** {
 204              		.loc 1 439 0
 205              		.cfi_startproc
 440:.\Generated_Source\PSoC4/Left_Phase_Counter.c ****     #if(Left_Phase_Counter_UsingFixedFunction)
 441:.\Generated_Source\PSoC4/Left_Phase_Counter.c ****         return ((uint32)CY_GET_REG16(Left_Phase_Counter_PERIOD_LSB_PTR));
 442:.\Generated_Source\PSoC4/Left_Phase_Counter.c ****     #else
 443:.\Generated_Source\PSoC4/Left_Phase_Counter.c ****         return (CY_GET_REG32(Left_Phase_Counter_PERIOD_LSB_PTR));
 206              		.loc 1 443 0
 207 0000 014B     		ldr	r3, .L22
 208 0002 1868     		ldr	r0, [r3]
 444:.\Generated_Source\PSoC4/Left_Phase_Counter.c ****     #endif /* (Left_Phase_Counter_UsingFixedFunction) */
 445:.\Generated_Source\PSoC4/Left_Phase_Counter.c **** }
 209              		.loc 1 445 0
 210              		@ sp needed
 211 0004 7047     		bx	lr
 212              	.L23:
 213 0006 C046     		.align	2
 214              	.L22:
 215 0008 90200F40 		.word	1074733200
 216              		.cfi_endproc
 217              	.LFE12:
 218              		.size	Left_Phase_Counter_ReadPeriod, .-Left_Phase_Counter_ReadPeriod
 219              		.section	.text.Left_Phase_Counter_WriteCompare,"ax",%progbits
 220              		.align	2
 221              		.global	Left_Phase_Counter_WriteCompare
 222              		.code	16
 223              		.thumb_func
 224              		.type	Left_Phase_Counter_WriteCompare, %function
 225              	Left_Phase_Counter_WriteCompare:
 226              	.LFB13:
 446:.\Generated_Source\PSoC4/Left_Phase_Counter.c **** 
 447:.\Generated_Source\PSoC4/Left_Phase_Counter.c **** 
 448:.\Generated_Source\PSoC4/Left_Phase_Counter.c **** #if (!Left_Phase_Counter_UsingFixedFunction)
 449:.\Generated_Source\PSoC4/Left_Phase_Counter.c **** /*******************************************************************************
 450:.\Generated_Source\PSoC4/Left_Phase_Counter.c **** * Function Name: Left_Phase_Counter_WriteCompare
 451:.\Generated_Source\PSoC4/Left_Phase_Counter.c **** ********************************************************************************
 452:.\Generated_Source\PSoC4/Left_Phase_Counter.c **** * Summary:
 453:.\Generated_Source\PSoC4/Left_Phase_Counter.c **** * Changes the compare value.  The compare output will 
 454:.\Generated_Source\PSoC4/Left_Phase_Counter.c **** * reflect the new value on the next UDB clock.  The compare output will be 
 455:.\Generated_Source\PSoC4/Left_Phase_Counter.c **** * driven high when the present counter value compares true based on the 
 456:.\Generated_Source\PSoC4/Left_Phase_Counter.c **** * configured compare mode setting. 
 457:.\Generated_Source\PSoC4/Left_Phase_Counter.c **** *
 458:.\Generated_Source\PSoC4/Left_Phase_Counter.c **** * Parameters:  
ARM GAS  C:\Users\Tim\AppData\Local\Temp\ccP2yGz9.s 			page 13


 459:.\Generated_Source\PSoC4/Left_Phase_Counter.c **** *  Compare:  New compare value. 
 460:.\Generated_Source\PSoC4/Left_Phase_Counter.c **** *
 461:.\Generated_Source\PSoC4/Left_Phase_Counter.c **** * Return: 
 462:.\Generated_Source\PSoC4/Left_Phase_Counter.c **** *  void
 463:.\Generated_Source\PSoC4/Left_Phase_Counter.c **** *
 464:.\Generated_Source\PSoC4/Left_Phase_Counter.c **** *******************************************************************************/
 465:.\Generated_Source\PSoC4/Left_Phase_Counter.c **** void Left_Phase_Counter_WriteCompare(uint32 compare) \
 466:.\Generated_Source\PSoC4/Left_Phase_Counter.c ****                                    
 467:.\Generated_Source\PSoC4/Left_Phase_Counter.c **** {
 227              		.loc 1 467 0
 228              		.cfi_startproc
 229              	.LVL3:
 468:.\Generated_Source\PSoC4/Left_Phase_Counter.c ****     #if(Left_Phase_Counter_UsingFixedFunction)
 469:.\Generated_Source\PSoC4/Left_Phase_Counter.c ****         CY_SET_REG16(Left_Phase_Counter_COMPARE_LSB_PTR, (uint16)compare);
 470:.\Generated_Source\PSoC4/Left_Phase_Counter.c ****     #else
 471:.\Generated_Source\PSoC4/Left_Phase_Counter.c ****         CY_SET_REG32(Left_Phase_Counter_COMPARE_LSB_PTR, compare);
 230              		.loc 1 471 0
 231 0000 014B     		ldr	r3, .L25
 232 0002 1860     		str	r0, [r3]
 472:.\Generated_Source\PSoC4/Left_Phase_Counter.c ****     #endif /* (Left_Phase_Counter_UsingFixedFunction) */
 473:.\Generated_Source\PSoC4/Left_Phase_Counter.c **** }
 233              		.loc 1 473 0
 234              		@ sp needed
 235 0004 7047     		bx	lr
 236              	.L26:
 237 0006 C046     		.align	2
 238              	.L25:
 239 0008 D0200F40 		.word	1074733264
 240              		.cfi_endproc
 241              	.LFE13:
 242              		.size	Left_Phase_Counter_WriteCompare, .-Left_Phase_Counter_WriteCompare
 243              		.section	.text.Left_Phase_Counter_ReadCompare,"ax",%progbits
 244              		.align	2
 245              		.global	Left_Phase_Counter_ReadCompare
 246              		.code	16
 247              		.thumb_func
 248              		.type	Left_Phase_Counter_ReadCompare, %function
 249              	Left_Phase_Counter_ReadCompare:
 250              	.LFB14:
 474:.\Generated_Source\PSoC4/Left_Phase_Counter.c **** 
 475:.\Generated_Source\PSoC4/Left_Phase_Counter.c **** 
 476:.\Generated_Source\PSoC4/Left_Phase_Counter.c **** /*******************************************************************************
 477:.\Generated_Source\PSoC4/Left_Phase_Counter.c **** * Function Name: Left_Phase_Counter_ReadCompare
 478:.\Generated_Source\PSoC4/Left_Phase_Counter.c **** ********************************************************************************
 479:.\Generated_Source\PSoC4/Left_Phase_Counter.c **** * Summary:
 480:.\Generated_Source\PSoC4/Left_Phase_Counter.c **** * Returns the compare value.
 481:.\Generated_Source\PSoC4/Left_Phase_Counter.c **** *
 482:.\Generated_Source\PSoC4/Left_Phase_Counter.c **** * Parameters:  
 483:.\Generated_Source\PSoC4/Left_Phase_Counter.c **** *  void:
 484:.\Generated_Source\PSoC4/Left_Phase_Counter.c **** *
 485:.\Generated_Source\PSoC4/Left_Phase_Counter.c **** * Return: 
 486:.\Generated_Source\PSoC4/Left_Phase_Counter.c **** *  (uint32) Present compare value.
 487:.\Generated_Source\PSoC4/Left_Phase_Counter.c **** *
 488:.\Generated_Source\PSoC4/Left_Phase_Counter.c **** *******************************************************************************/
 489:.\Generated_Source\PSoC4/Left_Phase_Counter.c **** uint32 Left_Phase_Counter_ReadCompare(void) 
 490:.\Generated_Source\PSoC4/Left_Phase_Counter.c **** {
 251              		.loc 1 490 0
ARM GAS  C:\Users\Tim\AppData\Local\Temp\ccP2yGz9.s 			page 14


 252              		.cfi_startproc
 491:.\Generated_Source\PSoC4/Left_Phase_Counter.c ****     return (CY_GET_REG32(Left_Phase_Counter_COMPARE_LSB_PTR));
 253              		.loc 1 491 0
 254 0000 014B     		ldr	r3, .L28
 255 0002 1868     		ldr	r0, [r3]
 492:.\Generated_Source\PSoC4/Left_Phase_Counter.c **** }
 256              		.loc 1 492 0
 257              		@ sp needed
 258 0004 7047     		bx	lr
 259              	.L29:
 260 0006 C046     		.align	2
 261              	.L28:
 262 0008 D0200F40 		.word	1074733264
 263              		.cfi_endproc
 264              	.LFE14:
 265              		.size	Left_Phase_Counter_ReadCompare, .-Left_Phase_Counter_ReadCompare
 266              		.section	.text.Left_Phase_Counter_ClearFIFO,"ax",%progbits
 267              		.align	2
 268              		.global	Left_Phase_Counter_ClearFIFO
 269              		.code	16
 270              		.thumb_func
 271              		.type	Left_Phase_Counter_ClearFIFO, %function
 272              	Left_Phase_Counter_ClearFIFO:
 273              	.LFB15:
 493:.\Generated_Source\PSoC4/Left_Phase_Counter.c **** 
 494:.\Generated_Source\PSoC4/Left_Phase_Counter.c **** 
 495:.\Generated_Source\PSoC4/Left_Phase_Counter.c **** #if (Left_Phase_Counter_COMPARE_MODE_SOFTWARE)
 496:.\Generated_Source\PSoC4/Left_Phase_Counter.c **** /*******************************************************************************
 497:.\Generated_Source\PSoC4/Left_Phase_Counter.c **** * Function Name: Left_Phase_Counter_SetCompareMode
 498:.\Generated_Source\PSoC4/Left_Phase_Counter.c **** ********************************************************************************
 499:.\Generated_Source\PSoC4/Left_Phase_Counter.c **** * Summary:
 500:.\Generated_Source\PSoC4/Left_Phase_Counter.c **** *  Sets the software controlled Compare Mode.
 501:.\Generated_Source\PSoC4/Left_Phase_Counter.c **** *
 502:.\Generated_Source\PSoC4/Left_Phase_Counter.c **** * Parameters:
 503:.\Generated_Source\PSoC4/Left_Phase_Counter.c **** *  compareMode:  Compare Mode Enumerated Type.
 504:.\Generated_Source\PSoC4/Left_Phase_Counter.c **** *
 505:.\Generated_Source\PSoC4/Left_Phase_Counter.c **** * Return:
 506:.\Generated_Source\PSoC4/Left_Phase_Counter.c **** *  void
 507:.\Generated_Source\PSoC4/Left_Phase_Counter.c **** *
 508:.\Generated_Source\PSoC4/Left_Phase_Counter.c **** *******************************************************************************/
 509:.\Generated_Source\PSoC4/Left_Phase_Counter.c **** void Left_Phase_Counter_SetCompareMode(uint8 compareMode) 
 510:.\Generated_Source\PSoC4/Left_Phase_Counter.c **** {
 511:.\Generated_Source\PSoC4/Left_Phase_Counter.c ****     /* Clear the compare mode bits in the control register */
 512:.\Generated_Source\PSoC4/Left_Phase_Counter.c ****     Left_Phase_Counter_CONTROL &= ((uint8)(~Left_Phase_Counter_CTRL_CMPMODE_MASK));
 513:.\Generated_Source\PSoC4/Left_Phase_Counter.c ****     
 514:.\Generated_Source\PSoC4/Left_Phase_Counter.c ****     /* Write the new setting */
 515:.\Generated_Source\PSoC4/Left_Phase_Counter.c ****     Left_Phase_Counter_CONTROL |= compareMode;
 516:.\Generated_Source\PSoC4/Left_Phase_Counter.c **** }
 517:.\Generated_Source\PSoC4/Left_Phase_Counter.c **** #endif  /* (Left_Phase_Counter_COMPARE_MODE_SOFTWARE) */
 518:.\Generated_Source\PSoC4/Left_Phase_Counter.c **** 
 519:.\Generated_Source\PSoC4/Left_Phase_Counter.c **** 
 520:.\Generated_Source\PSoC4/Left_Phase_Counter.c **** #if (Left_Phase_Counter_CAPTURE_MODE_SOFTWARE)
 521:.\Generated_Source\PSoC4/Left_Phase_Counter.c **** /*******************************************************************************
 522:.\Generated_Source\PSoC4/Left_Phase_Counter.c **** * Function Name: Left_Phase_Counter_SetCaptureMode
 523:.\Generated_Source\PSoC4/Left_Phase_Counter.c **** ********************************************************************************
 524:.\Generated_Source\PSoC4/Left_Phase_Counter.c **** * Summary:
 525:.\Generated_Source\PSoC4/Left_Phase_Counter.c **** *  Sets the software controlled Capture Mode.
ARM GAS  C:\Users\Tim\AppData\Local\Temp\ccP2yGz9.s 			page 15


 526:.\Generated_Source\PSoC4/Left_Phase_Counter.c **** *
 527:.\Generated_Source\PSoC4/Left_Phase_Counter.c **** * Parameters:
 528:.\Generated_Source\PSoC4/Left_Phase_Counter.c **** *  captureMode:  Capture Mode Enumerated Type.
 529:.\Generated_Source\PSoC4/Left_Phase_Counter.c **** *
 530:.\Generated_Source\PSoC4/Left_Phase_Counter.c **** * Return:
 531:.\Generated_Source\PSoC4/Left_Phase_Counter.c **** *  void
 532:.\Generated_Source\PSoC4/Left_Phase_Counter.c **** *
 533:.\Generated_Source\PSoC4/Left_Phase_Counter.c **** *******************************************************************************/
 534:.\Generated_Source\PSoC4/Left_Phase_Counter.c **** void Left_Phase_Counter_SetCaptureMode(uint8 captureMode) 
 535:.\Generated_Source\PSoC4/Left_Phase_Counter.c **** {
 536:.\Generated_Source\PSoC4/Left_Phase_Counter.c ****     /* Clear the capture mode bits in the control register */
 537:.\Generated_Source\PSoC4/Left_Phase_Counter.c ****     Left_Phase_Counter_CONTROL &= ((uint8)(~Left_Phase_Counter_CTRL_CAPMODE_MASK));
 538:.\Generated_Source\PSoC4/Left_Phase_Counter.c ****     
 539:.\Generated_Source\PSoC4/Left_Phase_Counter.c ****     /* Write the new setting */
 540:.\Generated_Source\PSoC4/Left_Phase_Counter.c ****     Left_Phase_Counter_CONTROL |= ((uint8)((uint8)captureMode << Left_Phase_Counter_CTRL_CAPMODE0_S
 541:.\Generated_Source\PSoC4/Left_Phase_Counter.c **** }
 542:.\Generated_Source\PSoC4/Left_Phase_Counter.c **** #endif  /* (Left_Phase_Counter_CAPTURE_MODE_SOFTWARE) */
 543:.\Generated_Source\PSoC4/Left_Phase_Counter.c **** 
 544:.\Generated_Source\PSoC4/Left_Phase_Counter.c **** 
 545:.\Generated_Source\PSoC4/Left_Phase_Counter.c **** /*******************************************************************************
 546:.\Generated_Source\PSoC4/Left_Phase_Counter.c **** * Function Name: Left_Phase_Counter_ClearFIFO
 547:.\Generated_Source\PSoC4/Left_Phase_Counter.c **** ********************************************************************************
 548:.\Generated_Source\PSoC4/Left_Phase_Counter.c **** * Summary:
 549:.\Generated_Source\PSoC4/Left_Phase_Counter.c **** *   This function clears all capture data from the capture FIFO
 550:.\Generated_Source\PSoC4/Left_Phase_Counter.c **** *
 551:.\Generated_Source\PSoC4/Left_Phase_Counter.c **** * Parameters:  
 552:.\Generated_Source\PSoC4/Left_Phase_Counter.c **** *  void:
 553:.\Generated_Source\PSoC4/Left_Phase_Counter.c **** *
 554:.\Generated_Source\PSoC4/Left_Phase_Counter.c **** * Return: 
 555:.\Generated_Source\PSoC4/Left_Phase_Counter.c **** *  None
 556:.\Generated_Source\PSoC4/Left_Phase_Counter.c **** *
 557:.\Generated_Source\PSoC4/Left_Phase_Counter.c **** *******************************************************************************/
 558:.\Generated_Source\PSoC4/Left_Phase_Counter.c **** void Left_Phase_Counter_ClearFIFO(void) 
 559:.\Generated_Source\PSoC4/Left_Phase_Counter.c **** {
 274              		.loc 1 559 0
 275              		.cfi_startproc
 276 0000 08B5     		push	{r3, lr}
 277              		.cfi_def_cfa_offset 8
 278              		.cfi_offset 3, -8
 279              		.cfi_offset 14, -4
 560:.\Generated_Source\PSoC4/Left_Phase_Counter.c **** 
 561:.\Generated_Source\PSoC4/Left_Phase_Counter.c ****     while(0u != (Left_Phase_Counter_ReadStatusRegister() & Left_Phase_Counter_STATUS_FIFONEMP))
 280              		.loc 1 561 0
 281 0002 01E0     		b	.L31
 282              	.L32:
 562:.\Generated_Source\PSoC4/Left_Phase_Counter.c ****     {
 563:.\Generated_Source\PSoC4/Left_Phase_Counter.c ****         (void)Left_Phase_Counter_ReadCapture();
 283              		.loc 1 563 0
 284 0004 FFF7FEFF 		bl	Left_Phase_Counter_ReadCapture
 285              	.LVL4:
 286              	.L31:
 561:.\Generated_Source\PSoC4/Left_Phase_Counter.c ****     {
 287              		.loc 1 561 0
 288 0008 FFF7FEFF 		bl	Left_Phase_Counter_ReadStatusRegister
 289              	.LVL5:
 290 000c 4306     		lsl	r3, r0, #25
 291 000e F9D4     		bmi	.L32
ARM GAS  C:\Users\Tim\AppData\Local\Temp\ccP2yGz9.s 			page 16


 564:.\Generated_Source\PSoC4/Left_Phase_Counter.c ****     }
 565:.\Generated_Source\PSoC4/Left_Phase_Counter.c **** 
 566:.\Generated_Source\PSoC4/Left_Phase_Counter.c **** }
 292              		.loc 1 566 0
 293              		@ sp needed
 294 0010 08BD     		pop	{r3, pc}
 295              		.cfi_endproc
 296              	.LFE15:
 297              		.size	Left_Phase_Counter_ClearFIFO, .-Left_Phase_Counter_ClearFIFO
 298 0012 C046     		.section	.text.Left_Phase_Counter_Init,"ax",%progbits
 299              		.align	2
 300              		.global	Left_Phase_Counter_Init
 301              		.code	16
 302              		.thumb_func
 303              		.type	Left_Phase_Counter_Init, %function
 304              	Left_Phase_Counter_Init:
 305              	.LFB2:
  38:.\Generated_Source\PSoC4/Left_Phase_Counter.c ****         #if (!Left_Phase_Counter_UsingFixedFunction && !Left_Phase_Counter_ControlRegRemoved)
 306              		.loc 1 38 0
 307              		.cfi_startproc
 308 0000 10B5     		push	{r4, lr}
 309              		.cfi_def_cfa_offset 8
 310              		.cfi_offset 4, -8
 311              		.cfi_offset 14, -4
  96:.\Generated_Source\PSoC4/Left_Phase_Counter.c ****         #endif /* (!Left_Phase_Counter_UsingFixedFunction) */
 312              		.loc 1 96 0
 313 0002 FFF7FEFF 		bl	Left_Phase_Counter_ClearFIFO
 314              	.LVL6:
 100:.\Generated_Source\PSoC4/Left_Phase_Counter.c ****         #if (!(Left_Phase_Counter_UsingFixedFunction && (CY_PSOC5A)))
 315              		.loc 1 100 0
 316 0006 0224     		mov	r4, #2
 317 0008 6442     		neg	r4, r4
 318 000a 201C     		mov	r0, r4
 319 000c FFF7FEFF 		bl	Left_Phase_Counter_WritePeriod
 320              	.LVL7:
 102:.\Generated_Source\PSoC4/Left_Phase_Counter.c ****         #endif /* (!(Left_Phase_Counter_UsingFixedFunction && (CY_PSOC5A))) */
 321              		.loc 1 102 0
 322 0010 201C     		mov	r0, r4
 323 0012 FFF7FEFF 		bl	Left_Phase_Counter_WriteCounter
 324              	.LVL8:
 104:.\Generated_Source\PSoC4/Left_Phase_Counter.c ****         
 325              		.loc 1 104 0
 326 0016 0C20     		mov	r0, #12
 327 0018 FFF7FEFF 		bl	Left_Phase_Counter_SetInterruptMode
 328              	.LVL9:
 108:.\Generated_Source\PSoC4/Left_Phase_Counter.c ****             /* Set the compare value (only available to non-fixed function implementation */
 329              		.loc 1 108 0
 330 001c FFF7FEFF 		bl	Left_Phase_Counter_ReadStatusRegister
 331              	.LVL10:
 110:.\Generated_Source\PSoC4/Left_Phase_Counter.c ****             /* Use the interrupt output of the status register for IRQ output */
 332              		.loc 1 110 0
 333 0020 0120     		mov	r0, #1
 334 0022 4042     		neg	r0, r0
 335 0024 FFF7FEFF 		bl	Left_Phase_Counter_WriteCompare
 336              	.LVL11:
 115:.\Generated_Source\PSoC4/Left_Phase_Counter.c ****             
 337              		.loc 1 115 0
ARM GAS  C:\Users\Tim\AppData\Local\Temp\ccP2yGz9.s 			page 17


 338 0028 FFF7FEFF 		bl	CyEnterCriticalSection
 339              	.LVL12:
 117:.\Generated_Source\PSoC4/Left_Phase_Counter.c ****             
 340              		.loc 1 117 0
 341 002c 034A     		ldr	r2, .L34
 342 002e 1178     		ldrb	r1, [r2]
 343 0030 1023     		mov	r3, #16
 344 0032 0B43     		orr	r3, r1
 345 0034 1370     		strb	r3, [r2]
 120:.\Generated_Source\PSoC4/Left_Phase_Counter.c ****             
 346              		.loc 1 120 0
 347 0036 FFF7FEFF 		bl	CyExitCriticalSection
 348              	.LVL13:
 123:.\Generated_Source\PSoC4/Left_Phase_Counter.c **** 
 349              		.loc 1 123 0
 350              		@ sp needed
 351 003a 10BD     		pop	{r4, pc}
 352              	.L35:
 353              		.align	2
 354              	.L34:
 355 003c 97000F40 		.word	1074725015
 356              		.cfi_endproc
 357              	.LFE2:
 358              		.size	Left_Phase_Counter_Init, .-Left_Phase_Counter_Init
 359              		.section	.text.Left_Phase_Counter_Start,"ax",%progbits
 360              		.align	2
 361              		.global	Left_Phase_Counter_Start
 362              		.code	16
 363              		.thumb_func
 364              		.type	Left_Phase_Counter_Start, %function
 365              	Left_Phase_Counter_Start:
 366              	.LFB4:
 179:.\Generated_Source\PSoC4/Left_Phase_Counter.c ****     if(Left_Phase_Counter_initVar == 0u)
 367              		.loc 1 179 0
 368              		.cfi_startproc
 369 0000 08B5     		push	{r3, lr}
 370              		.cfi_def_cfa_offset 8
 371              		.cfi_offset 3, -8
 372              		.cfi_offset 14, -4
 180:.\Generated_Source\PSoC4/Left_Phase_Counter.c ****     {
 373              		.loc 1 180 0
 374 0002 054B     		ldr	r3, .L38
 375 0004 1B78     		ldrb	r3, [r3]
 376 0006 002B     		cmp	r3, #0
 377 0008 04D1     		bne	.L36
 182:.\Generated_Source\PSoC4/Left_Phase_Counter.c ****         
 378              		.loc 1 182 0
 379 000a FFF7FEFF 		bl	Left_Phase_Counter_Init
 380              	.LVL14:
 184:.\Generated_Source\PSoC4/Left_Phase_Counter.c ****     }
 381              		.loc 1 184 0
 382 000e 0122     		mov	r2, #1
 383 0010 014B     		ldr	r3, .L38
 384 0012 1A70     		strb	r2, [r3]
 385              	.L36:
 189:.\Generated_Source\PSoC4/Left_Phase_Counter.c **** 
 386              		.loc 1 189 0
ARM GAS  C:\Users\Tim\AppData\Local\Temp\ccP2yGz9.s 			page 18


 387              		@ sp needed
 388 0014 08BD     		pop	{r3, pc}
 389              	.L39:
 390 0016 C046     		.align	2
 391              	.L38:
 392 0018 00000000 		.word	.LANCHOR0
 393              		.cfi_endproc
 394              	.LFE4:
 395              		.size	Left_Phase_Counter_Start, .-Left_Phase_Counter_Start
 396              		.global	Left_Phase_Counter_initVar
 397              		.bss
 398              		.set	.LANCHOR0,. + 0
 399              		.type	Left_Phase_Counter_initVar, %object
 400              		.size	Left_Phase_Counter_initVar, 1
 401              	Left_Phase_Counter_initVar:
 402 0000 00       		.space	1
 403              		.text
 404              	.Letext0:
 405              		.file 2 ".\\Generated_Source\\PSoC4\\cytypes.h"
 406              		.file 3 ".\\Generated_Source\\PSoC4\\CyLib.h"