ARM GAS  C:\Users\Tim\AppData\Local\Temp\cc5I8b53.s 			page 1


   1              		.cpu cortex-m0
   2              		.fpu softvfp
   3              		.eabi_attribute 20, 1
   4              		.eabi_attribute 21, 1
   5              		.eabi_attribute 23, 3
   6              		.eabi_attribute 24, 1
   7              		.eabi_attribute 25, 1
   8              		.eabi_attribute 26, 1
   9              		.eabi_attribute 30, 1
  10              		.eabi_attribute 34, 0
  11              		.eabi_attribute 18, 4
  12              		.code	16
  13              		.file	"Left_Phase_Counter_PM.c"
  14              		.text
  15              	.Ltext0:
  16              		.cfi_sections	.debug_frame
  17              		.section	.text.Left_Phase_Counter_SaveConfig,"ax",%progbits
  18              		.align	2
  19              		.global	Left_Phase_Counter_SaveConfig
  20              		.code	16
  21              		.thumb_func
  22              		.type	Left_Phase_Counter_SaveConfig, %function
  23              	Left_Phase_Counter_SaveConfig:
  24              	.LFB2:
  25              		.file 1 ".\\Generated_Source\\PSoC4\\Left_Phase_Counter_PM.c"
   1:.\Generated_Source\PSoC4/Left_Phase_Counter_PM.c **** /*******************************************************************************
   2:.\Generated_Source\PSoC4/Left_Phase_Counter_PM.c **** * File Name: Left_Phase_Counter_PM.c  
   3:.\Generated_Source\PSoC4/Left_Phase_Counter_PM.c **** * Version 3.0
   4:.\Generated_Source\PSoC4/Left_Phase_Counter_PM.c **** *
   5:.\Generated_Source\PSoC4/Left_Phase_Counter_PM.c **** *  Description:
   6:.\Generated_Source\PSoC4/Left_Phase_Counter_PM.c **** *    This file provides the power management source code to API for the
   7:.\Generated_Source\PSoC4/Left_Phase_Counter_PM.c **** *    Counter.  
   8:.\Generated_Source\PSoC4/Left_Phase_Counter_PM.c **** *
   9:.\Generated_Source\PSoC4/Left_Phase_Counter_PM.c **** *   Note:
  10:.\Generated_Source\PSoC4/Left_Phase_Counter_PM.c **** *     None
  11:.\Generated_Source\PSoC4/Left_Phase_Counter_PM.c **** *
  12:.\Generated_Source\PSoC4/Left_Phase_Counter_PM.c **** ********************************************************************************
  13:.\Generated_Source\PSoC4/Left_Phase_Counter_PM.c **** * Copyright 2008-2012, Cypress Semiconductor Corporation.  All rights reserved.
  14:.\Generated_Source\PSoC4/Left_Phase_Counter_PM.c **** * You may use this file only in accordance with the license, terms, conditions, 
  15:.\Generated_Source\PSoC4/Left_Phase_Counter_PM.c **** * disclaimers, and limitations in the end user license agreement accompanying 
  16:.\Generated_Source\PSoC4/Left_Phase_Counter_PM.c **** * the software package with which this file was provided.
  17:.\Generated_Source\PSoC4/Left_Phase_Counter_PM.c **** *******************************************************************************/
  18:.\Generated_Source\PSoC4/Left_Phase_Counter_PM.c **** 
  19:.\Generated_Source\PSoC4/Left_Phase_Counter_PM.c **** #include "Left_Phase_Counter.h"
  20:.\Generated_Source\PSoC4/Left_Phase_Counter_PM.c **** 
  21:.\Generated_Source\PSoC4/Left_Phase_Counter_PM.c **** static Left_Phase_Counter_backupStruct Left_Phase_Counter_backup;
  22:.\Generated_Source\PSoC4/Left_Phase_Counter_PM.c **** 
  23:.\Generated_Source\PSoC4/Left_Phase_Counter_PM.c **** 
  24:.\Generated_Source\PSoC4/Left_Phase_Counter_PM.c **** /*******************************************************************************
  25:.\Generated_Source\PSoC4/Left_Phase_Counter_PM.c **** * Function Name: Left_Phase_Counter_SaveConfig
  26:.\Generated_Source\PSoC4/Left_Phase_Counter_PM.c **** ********************************************************************************
  27:.\Generated_Source\PSoC4/Left_Phase_Counter_PM.c **** * Summary:
  28:.\Generated_Source\PSoC4/Left_Phase_Counter_PM.c **** *     Save the current user configuration
  29:.\Generated_Source\PSoC4/Left_Phase_Counter_PM.c **** *
  30:.\Generated_Source\PSoC4/Left_Phase_Counter_PM.c **** * Parameters:  
  31:.\Generated_Source\PSoC4/Left_Phase_Counter_PM.c **** *  void
  32:.\Generated_Source\PSoC4/Left_Phase_Counter_PM.c **** *
ARM GAS  C:\Users\Tim\AppData\Local\Temp\cc5I8b53.s 			page 2


  33:.\Generated_Source\PSoC4/Left_Phase_Counter_PM.c **** * Return: 
  34:.\Generated_Source\PSoC4/Left_Phase_Counter_PM.c **** *  void
  35:.\Generated_Source\PSoC4/Left_Phase_Counter_PM.c **** *
  36:.\Generated_Source\PSoC4/Left_Phase_Counter_PM.c **** * Global variables:
  37:.\Generated_Source\PSoC4/Left_Phase_Counter_PM.c **** *  Left_Phase_Counter_backup:  Variables of this global structure are modified to 
  38:.\Generated_Source\PSoC4/Left_Phase_Counter_PM.c **** *  store the values of non retention configuration registers when Sleep() API is 
  39:.\Generated_Source\PSoC4/Left_Phase_Counter_PM.c **** *  called.
  40:.\Generated_Source\PSoC4/Left_Phase_Counter_PM.c **** *
  41:.\Generated_Source\PSoC4/Left_Phase_Counter_PM.c **** *******************************************************************************/
  42:.\Generated_Source\PSoC4/Left_Phase_Counter_PM.c **** void Left_Phase_Counter_SaveConfig(void) 
  43:.\Generated_Source\PSoC4/Left_Phase_Counter_PM.c **** {
  26              		.loc 1 43 0
  27              		.cfi_startproc
  28 0000 08B5     		push	{r3, lr}
  29              		.cfi_def_cfa_offset 8
  30              		.cfi_offset 3, -8
  31              		.cfi_offset 14, -4
  44:.\Generated_Source\PSoC4/Left_Phase_Counter_PM.c ****     #if (!Left_Phase_Counter_UsingFixedFunction)
  45:.\Generated_Source\PSoC4/Left_Phase_Counter_PM.c **** 
  46:.\Generated_Source\PSoC4/Left_Phase_Counter_PM.c ****         Left_Phase_Counter_backup.CounterUdb = Left_Phase_Counter_ReadCounter();
  32              		.loc 1 46 0
  33 0002 FFF7FEFF 		bl	Left_Phase_Counter_ReadCounter
  34              	.LVL0:
  35 0006 014B     		ldr	r3, .L2
  36 0008 5860     		str	r0, [r3, #4]
  47:.\Generated_Source\PSoC4/Left_Phase_Counter_PM.c **** 
  48:.\Generated_Source\PSoC4/Left_Phase_Counter_PM.c ****         #if(!Left_Phase_Counter_ControlRegRemoved)
  49:.\Generated_Source\PSoC4/Left_Phase_Counter_PM.c ****             Left_Phase_Counter_backup.CounterControlRegister = Left_Phase_Counter_ReadControlRegist
  50:.\Generated_Source\PSoC4/Left_Phase_Counter_PM.c ****         #endif /* (!Left_Phase_Counter_ControlRegRemoved) */
  51:.\Generated_Source\PSoC4/Left_Phase_Counter_PM.c **** 
  52:.\Generated_Source\PSoC4/Left_Phase_Counter_PM.c ****     #endif /* (!Left_Phase_Counter_UsingFixedFunction) */
  53:.\Generated_Source\PSoC4/Left_Phase_Counter_PM.c **** }
  37              		.loc 1 53 0
  38              		@ sp needed
  39 000a 08BD     		pop	{r3, pc}
  40              	.L3:
  41              		.align	2
  42              	.L2:
  43 000c 00000000 		.word	.LANCHOR0
  44              		.cfi_endproc
  45              	.LFE2:
  46              		.size	Left_Phase_Counter_SaveConfig, .-Left_Phase_Counter_SaveConfig
  47              		.section	.text.Left_Phase_Counter_RestoreConfig,"ax",%progbits
  48              		.align	2
  49              		.global	Left_Phase_Counter_RestoreConfig
  50              		.code	16
  51              		.thumb_func
  52              		.type	Left_Phase_Counter_RestoreConfig, %function
  53              	Left_Phase_Counter_RestoreConfig:
  54              	.LFB3:
  54:.\Generated_Source\PSoC4/Left_Phase_Counter_PM.c **** 
  55:.\Generated_Source\PSoC4/Left_Phase_Counter_PM.c **** 
  56:.\Generated_Source\PSoC4/Left_Phase_Counter_PM.c **** /*******************************************************************************
  57:.\Generated_Source\PSoC4/Left_Phase_Counter_PM.c **** * Function Name: Left_Phase_Counter_RestoreConfig
  58:.\Generated_Source\PSoC4/Left_Phase_Counter_PM.c **** ********************************************************************************
  59:.\Generated_Source\PSoC4/Left_Phase_Counter_PM.c **** *
  60:.\Generated_Source\PSoC4/Left_Phase_Counter_PM.c **** * Summary:
ARM GAS  C:\Users\Tim\AppData\Local\Temp\cc5I8b53.s 			page 3


  61:.\Generated_Source\PSoC4/Left_Phase_Counter_PM.c **** *  Restores the current user configuration.
  62:.\Generated_Source\PSoC4/Left_Phase_Counter_PM.c **** *
  63:.\Generated_Source\PSoC4/Left_Phase_Counter_PM.c **** * Parameters:  
  64:.\Generated_Source\PSoC4/Left_Phase_Counter_PM.c **** *  void
  65:.\Generated_Source\PSoC4/Left_Phase_Counter_PM.c **** *
  66:.\Generated_Source\PSoC4/Left_Phase_Counter_PM.c **** * Return: 
  67:.\Generated_Source\PSoC4/Left_Phase_Counter_PM.c **** *  void
  68:.\Generated_Source\PSoC4/Left_Phase_Counter_PM.c **** *
  69:.\Generated_Source\PSoC4/Left_Phase_Counter_PM.c **** * Global variables:
  70:.\Generated_Source\PSoC4/Left_Phase_Counter_PM.c **** *  Left_Phase_Counter_backup:  Variables of this global structure are used to 
  71:.\Generated_Source\PSoC4/Left_Phase_Counter_PM.c **** *  restore the values of non retention registers on wakeup from sleep mode.
  72:.\Generated_Source\PSoC4/Left_Phase_Counter_PM.c **** *
  73:.\Generated_Source\PSoC4/Left_Phase_Counter_PM.c **** *******************************************************************************/
  74:.\Generated_Source\PSoC4/Left_Phase_Counter_PM.c **** void Left_Phase_Counter_RestoreConfig(void) 
  75:.\Generated_Source\PSoC4/Left_Phase_Counter_PM.c **** {      
  55              		.loc 1 75 0
  56              		.cfi_startproc
  57 0000 08B5     		push	{r3, lr}
  58              		.cfi_def_cfa_offset 8
  59              		.cfi_offset 3, -8
  60              		.cfi_offset 14, -4
  76:.\Generated_Source\PSoC4/Left_Phase_Counter_PM.c ****     #if (!Left_Phase_Counter_UsingFixedFunction)
  77:.\Generated_Source\PSoC4/Left_Phase_Counter_PM.c **** 
  78:.\Generated_Source\PSoC4/Left_Phase_Counter_PM.c ****        Left_Phase_Counter_WriteCounter(Left_Phase_Counter_backup.CounterUdb);
  61              		.loc 1 78 0
  62 0002 024B     		ldr	r3, .L5
  63 0004 5868     		ldr	r0, [r3, #4]
  64 0006 FFF7FEFF 		bl	Left_Phase_Counter_WriteCounter
  65              	.LVL1:
  79:.\Generated_Source\PSoC4/Left_Phase_Counter_PM.c **** 
  80:.\Generated_Source\PSoC4/Left_Phase_Counter_PM.c ****         #if(!Left_Phase_Counter_ControlRegRemoved)
  81:.\Generated_Source\PSoC4/Left_Phase_Counter_PM.c ****             Left_Phase_Counter_WriteControlRegister(Left_Phase_Counter_backup.CounterControlRegiste
  82:.\Generated_Source\PSoC4/Left_Phase_Counter_PM.c ****         #endif /* (!Left_Phase_Counter_ControlRegRemoved) */
  83:.\Generated_Source\PSoC4/Left_Phase_Counter_PM.c **** 
  84:.\Generated_Source\PSoC4/Left_Phase_Counter_PM.c ****     #endif /* (!Left_Phase_Counter_UsingFixedFunction) */
  85:.\Generated_Source\PSoC4/Left_Phase_Counter_PM.c **** }
  66              		.loc 1 85 0
  67              		@ sp needed
  68 000a 08BD     		pop	{r3, pc}
  69              	.L6:
  70              		.align	2
  71              	.L5:
  72 000c 00000000 		.word	.LANCHOR0
  73              		.cfi_endproc
  74              	.LFE3:
  75              		.size	Left_Phase_Counter_RestoreConfig, .-Left_Phase_Counter_RestoreConfig
  76              		.section	.text.Left_Phase_Counter_Sleep,"ax",%progbits
  77              		.align	2
  78              		.global	Left_Phase_Counter_Sleep
  79              		.code	16
  80              		.thumb_func
  81              		.type	Left_Phase_Counter_Sleep, %function
  82              	Left_Phase_Counter_Sleep:
  83              	.LFB4:
  86:.\Generated_Source\PSoC4/Left_Phase_Counter_PM.c **** 
  87:.\Generated_Source\PSoC4/Left_Phase_Counter_PM.c **** 
  88:.\Generated_Source\PSoC4/Left_Phase_Counter_PM.c **** /*******************************************************************************
ARM GAS  C:\Users\Tim\AppData\Local\Temp\cc5I8b53.s 			page 4


  89:.\Generated_Source\PSoC4/Left_Phase_Counter_PM.c **** * Function Name: Left_Phase_Counter_Sleep
  90:.\Generated_Source\PSoC4/Left_Phase_Counter_PM.c **** ********************************************************************************
  91:.\Generated_Source\PSoC4/Left_Phase_Counter_PM.c **** * Summary:
  92:.\Generated_Source\PSoC4/Left_Phase_Counter_PM.c **** *     Stop and Save the user configuration
  93:.\Generated_Source\PSoC4/Left_Phase_Counter_PM.c **** *
  94:.\Generated_Source\PSoC4/Left_Phase_Counter_PM.c **** * Parameters:  
  95:.\Generated_Source\PSoC4/Left_Phase_Counter_PM.c **** *  void
  96:.\Generated_Source\PSoC4/Left_Phase_Counter_PM.c **** *
  97:.\Generated_Source\PSoC4/Left_Phase_Counter_PM.c **** * Return: 
  98:.\Generated_Source\PSoC4/Left_Phase_Counter_PM.c **** *  void
  99:.\Generated_Source\PSoC4/Left_Phase_Counter_PM.c **** *
 100:.\Generated_Source\PSoC4/Left_Phase_Counter_PM.c **** * Global variables:
 101:.\Generated_Source\PSoC4/Left_Phase_Counter_PM.c **** *  Left_Phase_Counter_backup.enableState:  Is modified depending on the enable 
 102:.\Generated_Source\PSoC4/Left_Phase_Counter_PM.c **** *  state of the block before entering sleep mode.
 103:.\Generated_Source\PSoC4/Left_Phase_Counter_PM.c **** *
 104:.\Generated_Source\PSoC4/Left_Phase_Counter_PM.c **** *******************************************************************************/
 105:.\Generated_Source\PSoC4/Left_Phase_Counter_PM.c **** void Left_Phase_Counter_Sleep(void) 
 106:.\Generated_Source\PSoC4/Left_Phase_Counter_PM.c **** {
  84              		.loc 1 106 0
  85              		.cfi_startproc
  86 0000 08B5     		push	{r3, lr}
  87              		.cfi_def_cfa_offset 8
  88              		.cfi_offset 3, -8
  89              		.cfi_offset 14, -4
 107:.\Generated_Source\PSoC4/Left_Phase_Counter_PM.c ****     #if(!Left_Phase_Counter_ControlRegRemoved)
 108:.\Generated_Source\PSoC4/Left_Phase_Counter_PM.c ****         /* Save Counter's enable state */
 109:.\Generated_Source\PSoC4/Left_Phase_Counter_PM.c ****         if(Left_Phase_Counter_CTRL_ENABLE == (Left_Phase_Counter_CONTROL & Left_Phase_Counter_CTRL_
 110:.\Generated_Source\PSoC4/Left_Phase_Counter_PM.c ****         {
 111:.\Generated_Source\PSoC4/Left_Phase_Counter_PM.c ****             /* Counter is enabled */
 112:.\Generated_Source\PSoC4/Left_Phase_Counter_PM.c ****             Left_Phase_Counter_backup.CounterEnableState = 1u;
 113:.\Generated_Source\PSoC4/Left_Phase_Counter_PM.c ****         }
 114:.\Generated_Source\PSoC4/Left_Phase_Counter_PM.c ****         else
 115:.\Generated_Source\PSoC4/Left_Phase_Counter_PM.c ****         {
 116:.\Generated_Source\PSoC4/Left_Phase_Counter_PM.c ****             /* Counter is disabled */
 117:.\Generated_Source\PSoC4/Left_Phase_Counter_PM.c ****             Left_Phase_Counter_backup.CounterEnableState = 0u;
 118:.\Generated_Source\PSoC4/Left_Phase_Counter_PM.c ****         }
 119:.\Generated_Source\PSoC4/Left_Phase_Counter_PM.c ****     #else
 120:.\Generated_Source\PSoC4/Left_Phase_Counter_PM.c ****         Left_Phase_Counter_backup.CounterEnableState = 1u;
 121:.\Generated_Source\PSoC4/Left_Phase_Counter_PM.c ****         if(Left_Phase_Counter_backup.CounterEnableState != 0u)
 122:.\Generated_Source\PSoC4/Left_Phase_Counter_PM.c ****         {
 123:.\Generated_Source\PSoC4/Left_Phase_Counter_PM.c ****             Left_Phase_Counter_backup.CounterEnableState = 0u;
  90              		.loc 1 123 0
  91 0002 0022     		mov	r2, #0
  92 0004 034B     		ldr	r3, .L8
  93 0006 1A70     		strb	r2, [r3]
 124:.\Generated_Source\PSoC4/Left_Phase_Counter_PM.c ****         }
 125:.\Generated_Source\PSoC4/Left_Phase_Counter_PM.c ****     #endif /* (!Left_Phase_Counter_ControlRegRemoved) */
 126:.\Generated_Source\PSoC4/Left_Phase_Counter_PM.c ****     
 127:.\Generated_Source\PSoC4/Left_Phase_Counter_PM.c ****     Left_Phase_Counter_Stop();
  94              		.loc 1 127 0
  95 0008 FFF7FEFF 		bl	Left_Phase_Counter_Stop
  96              	.LVL2:
 128:.\Generated_Source\PSoC4/Left_Phase_Counter_PM.c ****     Left_Phase_Counter_SaveConfig();
  97              		.loc 1 128 0
  98 000c FFF7FEFF 		bl	Left_Phase_Counter_SaveConfig
  99              	.LVL3:
 129:.\Generated_Source\PSoC4/Left_Phase_Counter_PM.c **** }
ARM GAS  C:\Users\Tim\AppData\Local\Temp\cc5I8b53.s 			page 5


 100              		.loc 1 129 0
 101              		@ sp needed
 102 0010 08BD     		pop	{r3, pc}
 103              	.L9:
 104 0012 C046     		.align	2
 105              	.L8:
 106 0014 00000000 		.word	.LANCHOR0
 107              		.cfi_endproc
 108              	.LFE4:
 109              		.size	Left_Phase_Counter_Sleep, .-Left_Phase_Counter_Sleep
 110              		.section	.text.Left_Phase_Counter_Wakeup,"ax",%progbits
 111              		.align	2
 112              		.global	Left_Phase_Counter_Wakeup
 113              		.code	16
 114              		.thumb_func
 115              		.type	Left_Phase_Counter_Wakeup, %function
 116              	Left_Phase_Counter_Wakeup:
 117              	.LFB5:
 130:.\Generated_Source\PSoC4/Left_Phase_Counter_PM.c **** 
 131:.\Generated_Source\PSoC4/Left_Phase_Counter_PM.c **** 
 132:.\Generated_Source\PSoC4/Left_Phase_Counter_PM.c **** /*******************************************************************************
 133:.\Generated_Source\PSoC4/Left_Phase_Counter_PM.c **** * Function Name: Left_Phase_Counter_Wakeup
 134:.\Generated_Source\PSoC4/Left_Phase_Counter_PM.c **** ********************************************************************************
 135:.\Generated_Source\PSoC4/Left_Phase_Counter_PM.c **** *
 136:.\Generated_Source\PSoC4/Left_Phase_Counter_PM.c **** * Summary:
 137:.\Generated_Source\PSoC4/Left_Phase_Counter_PM.c **** *  Restores and enables the user configuration
 138:.\Generated_Source\PSoC4/Left_Phase_Counter_PM.c **** *  
 139:.\Generated_Source\PSoC4/Left_Phase_Counter_PM.c **** * Parameters:  
 140:.\Generated_Source\PSoC4/Left_Phase_Counter_PM.c **** *  void
 141:.\Generated_Source\PSoC4/Left_Phase_Counter_PM.c **** *
 142:.\Generated_Source\PSoC4/Left_Phase_Counter_PM.c **** * Return: 
 143:.\Generated_Source\PSoC4/Left_Phase_Counter_PM.c **** *  void
 144:.\Generated_Source\PSoC4/Left_Phase_Counter_PM.c **** *
 145:.\Generated_Source\PSoC4/Left_Phase_Counter_PM.c **** * Global variables:
 146:.\Generated_Source\PSoC4/Left_Phase_Counter_PM.c **** *  Left_Phase_Counter_backup.enableState:  Is used to restore the enable state of 
 147:.\Generated_Source\PSoC4/Left_Phase_Counter_PM.c **** *  block on wakeup from sleep mode.
 148:.\Generated_Source\PSoC4/Left_Phase_Counter_PM.c **** *
 149:.\Generated_Source\PSoC4/Left_Phase_Counter_PM.c **** *******************************************************************************/
 150:.\Generated_Source\PSoC4/Left_Phase_Counter_PM.c **** void Left_Phase_Counter_Wakeup(void) 
 151:.\Generated_Source\PSoC4/Left_Phase_Counter_PM.c **** {
 118              		.loc 1 151 0
 119              		.cfi_startproc
 120 0000 08B5     		push	{r3, lr}
 121              		.cfi_def_cfa_offset 8
 122              		.cfi_offset 3, -8
 123              		.cfi_offset 14, -4
 152:.\Generated_Source\PSoC4/Left_Phase_Counter_PM.c ****     Left_Phase_Counter_RestoreConfig();
 124              		.loc 1 152 0
 125 0002 FFF7FEFF 		bl	Left_Phase_Counter_RestoreConfig
 126              	.LVL4:
 153:.\Generated_Source\PSoC4/Left_Phase_Counter_PM.c ****     #if(!Left_Phase_Counter_ControlRegRemoved)
 154:.\Generated_Source\PSoC4/Left_Phase_Counter_PM.c ****         if(Left_Phase_Counter_backup.CounterEnableState == 1u)
 155:.\Generated_Source\PSoC4/Left_Phase_Counter_PM.c ****         {
 156:.\Generated_Source\PSoC4/Left_Phase_Counter_PM.c ****             /* Enable Counter's operation */
 157:.\Generated_Source\PSoC4/Left_Phase_Counter_PM.c ****             Left_Phase_Counter_Enable();
 158:.\Generated_Source\PSoC4/Left_Phase_Counter_PM.c ****         } /* Do nothing if Counter was disabled before */    
 159:.\Generated_Source\PSoC4/Left_Phase_Counter_PM.c ****     #endif /* (!Left_Phase_Counter_ControlRegRemoved) */
ARM GAS  C:\Users\Tim\AppData\Local\Temp\cc5I8b53.s 			page 6


 160:.\Generated_Source\PSoC4/Left_Phase_Counter_PM.c ****     
 161:.\Generated_Source\PSoC4/Left_Phase_Counter_PM.c **** }
 127              		.loc 1 161 0
 128              		@ sp needed
 129 0006 08BD     		pop	{r3, pc}
 130              		.cfi_endproc
 131              	.LFE5:
 132              		.size	Left_Phase_Counter_Wakeup, .-Left_Phase_Counter_Wakeup
 133              		.bss
 134              		.align	2
 135              		.set	.LANCHOR0,. + 0
 136              		.type	Left_Phase_Counter_backup, %object
 137              		.size	Left_Phase_Counter_backup, 8
 138              	Left_Phase_Counter_backup:
 139 0000 00000000 		.space	8
 139      00000000 
 140              		.text
 141              	.Letext0:
 142              		.file 2 ".\\Generated_Source\\PSoC4\\cytypes.h"
 143              		.file 3 ".\\Generated_Source\\PSoC4\\Left_Phase_Counter.h"