ARM GAS  C:\Users\Tim\AppData\Local\Temp\ccfXo006.s 			page 1


   1              		.cpu cortex-m0
   2              		.fpu softvfp
   3              		.eabi_attribute 20, 1
   4              		.eabi_attribute 21, 1
   5              		.eabi_attribute 23, 3
   6              		.eabi_attribute 24, 1
   7              		.eabi_attribute 25, 1
   8              		.eabi_attribute 26, 1
   9              		.eabi_attribute 30, 1
  10              		.eabi_attribute 34, 0
  11              		.eabi_attribute 18, 4
  12              		.code	16
  13              		.file	"UARTCOMMS_SPI_UART.c"
  14              		.text
  15              	.Ltext0:
  16              		.cfi_sections	.debug_frame
  17              		.section	.text.UARTCOMMS_SpiUartWriteTxData,"ax",%progbits
  18              		.align	2
  19              		.global	UARTCOMMS_SpiUartWriteTxData
  20              		.code	16
  21              		.thumb_func
  22              		.type	UARTCOMMS_SpiUartWriteTxData, %function
  23              	UARTCOMMS_SpiUartWriteTxData:
  24              	.LFB2:
  25              		.file 1 ".\\Generated_Source\\PSoC4\\UARTCOMMS_SPI_UART.c"
   1:.\Generated_Source\PSoC4/UARTCOMMS_SPI_UART.c **** /*******************************************************************************
   2:.\Generated_Source\PSoC4/UARTCOMMS_SPI_UART.c **** * File Name: UARTCOMMS_SPI_UART.c
   3:.\Generated_Source\PSoC4/UARTCOMMS_SPI_UART.c **** * Version 3.10
   4:.\Generated_Source\PSoC4/UARTCOMMS_SPI_UART.c **** *
   5:.\Generated_Source\PSoC4/UARTCOMMS_SPI_UART.c **** * Description:
   6:.\Generated_Source\PSoC4/UARTCOMMS_SPI_UART.c **** *  This file provides the source code to the API for the SCB Component in
   7:.\Generated_Source\PSoC4/UARTCOMMS_SPI_UART.c **** *  SPI and UART modes.
   8:.\Generated_Source\PSoC4/UARTCOMMS_SPI_UART.c **** *
   9:.\Generated_Source\PSoC4/UARTCOMMS_SPI_UART.c **** * Note:
  10:.\Generated_Source\PSoC4/UARTCOMMS_SPI_UART.c **** *
  11:.\Generated_Source\PSoC4/UARTCOMMS_SPI_UART.c **** *******************************************************************************
  12:.\Generated_Source\PSoC4/UARTCOMMS_SPI_UART.c **** * Copyright 2013-2015, Cypress Semiconductor Corporation.  All rights reserved.
  13:.\Generated_Source\PSoC4/UARTCOMMS_SPI_UART.c **** * You may use this file only in accordance with the license, terms, conditions,
  14:.\Generated_Source\PSoC4/UARTCOMMS_SPI_UART.c **** * disclaimers, and limitations in the end user license agreement accompanying
  15:.\Generated_Source\PSoC4/UARTCOMMS_SPI_UART.c **** * the software package with which this file was provided.
  16:.\Generated_Source\PSoC4/UARTCOMMS_SPI_UART.c **** *******************************************************************************/
  17:.\Generated_Source\PSoC4/UARTCOMMS_SPI_UART.c **** 
  18:.\Generated_Source\PSoC4/UARTCOMMS_SPI_UART.c **** #include "UARTCOMMS_PVT.h"
  19:.\Generated_Source\PSoC4/UARTCOMMS_SPI_UART.c **** #include "UARTCOMMS_SPI_UART_PVT.h"
  20:.\Generated_Source\PSoC4/UARTCOMMS_SPI_UART.c **** 
  21:.\Generated_Source\PSoC4/UARTCOMMS_SPI_UART.c **** /***************************************
  22:.\Generated_Source\PSoC4/UARTCOMMS_SPI_UART.c **** *        SPI/UART Private Vars
  23:.\Generated_Source\PSoC4/UARTCOMMS_SPI_UART.c **** ***************************************/
  24:.\Generated_Source\PSoC4/UARTCOMMS_SPI_UART.c **** 
  25:.\Generated_Source\PSoC4/UARTCOMMS_SPI_UART.c **** #if(UARTCOMMS_INTERNAL_RX_SW_BUFFER_CONST)
  26:.\Generated_Source\PSoC4/UARTCOMMS_SPI_UART.c ****     volatile uint32 UARTCOMMS_rxBufferHead;
  27:.\Generated_Source\PSoC4/UARTCOMMS_SPI_UART.c ****     volatile uint32 UARTCOMMS_rxBufferTail;
  28:.\Generated_Source\PSoC4/UARTCOMMS_SPI_UART.c ****     volatile uint8  UARTCOMMS_rxBufferOverflow;
  29:.\Generated_Source\PSoC4/UARTCOMMS_SPI_UART.c **** #endif /* (UARTCOMMS_INTERNAL_RX_SW_BUFFER_CONST) */
  30:.\Generated_Source\PSoC4/UARTCOMMS_SPI_UART.c **** 
  31:.\Generated_Source\PSoC4/UARTCOMMS_SPI_UART.c **** #if(UARTCOMMS_INTERNAL_TX_SW_BUFFER_CONST)
  32:.\Generated_Source\PSoC4/UARTCOMMS_SPI_UART.c ****     volatile uint32 UARTCOMMS_txBufferHead;
ARM GAS  C:\Users\Tim\AppData\Local\Temp\ccfXo006.s 			page 2


  33:.\Generated_Source\PSoC4/UARTCOMMS_SPI_UART.c ****     volatile uint32 UARTCOMMS_txBufferTail;
  34:.\Generated_Source\PSoC4/UARTCOMMS_SPI_UART.c **** #endif /* (UARTCOMMS_INTERNAL_TX_SW_BUFFER_CONST) */
  35:.\Generated_Source\PSoC4/UARTCOMMS_SPI_UART.c **** 
  36:.\Generated_Source\PSoC4/UARTCOMMS_SPI_UART.c **** #if(UARTCOMMS_INTERNAL_RX_SW_BUFFER)
  37:.\Generated_Source\PSoC4/UARTCOMMS_SPI_UART.c ****     /* Add one element to the buffer to receive full packet. One byte in receive buffer is always e
  38:.\Generated_Source\PSoC4/UARTCOMMS_SPI_UART.c ****     volatile uint8 UARTCOMMS_rxBufferInternal[UARTCOMMS_INTERNAL_RX_BUFFER_SIZE];
  39:.\Generated_Source\PSoC4/UARTCOMMS_SPI_UART.c **** #endif /* (UARTCOMMS_INTERNAL_RX_SW_BUFFER) */
  40:.\Generated_Source\PSoC4/UARTCOMMS_SPI_UART.c **** 
  41:.\Generated_Source\PSoC4/UARTCOMMS_SPI_UART.c **** #if(UARTCOMMS_INTERNAL_TX_SW_BUFFER)
  42:.\Generated_Source\PSoC4/UARTCOMMS_SPI_UART.c ****     volatile uint8 UARTCOMMS_txBufferInternal[UARTCOMMS_TX_BUFFER_SIZE];
  43:.\Generated_Source\PSoC4/UARTCOMMS_SPI_UART.c **** #endif /* (UARTCOMMS_INTERNAL_TX_SW_BUFFER) */
  44:.\Generated_Source\PSoC4/UARTCOMMS_SPI_UART.c **** 
  45:.\Generated_Source\PSoC4/UARTCOMMS_SPI_UART.c **** 
  46:.\Generated_Source\PSoC4/UARTCOMMS_SPI_UART.c **** #if(UARTCOMMS_RX_DIRECTION)
  47:.\Generated_Source\PSoC4/UARTCOMMS_SPI_UART.c ****     /*******************************************************************************
  48:.\Generated_Source\PSoC4/UARTCOMMS_SPI_UART.c ****     * Function Name: UARTCOMMS_SpiUartReadRxData
  49:.\Generated_Source\PSoC4/UARTCOMMS_SPI_UART.c ****     ********************************************************************************
  50:.\Generated_Source\PSoC4/UARTCOMMS_SPI_UART.c ****     *
  51:.\Generated_Source\PSoC4/UARTCOMMS_SPI_UART.c ****     * Summary:
  52:.\Generated_Source\PSoC4/UARTCOMMS_SPI_UART.c ****     *  Retrieves the next data element from the receive buffer.
  53:.\Generated_Source\PSoC4/UARTCOMMS_SPI_UART.c ****     *   - RX software buffer is disabled: Returns data element retrieved from
  54:.\Generated_Source\PSoC4/UARTCOMMS_SPI_UART.c ****     *     RX FIFO. Undefined data will be returned if the RX FIFO is empty.
  55:.\Generated_Source\PSoC4/UARTCOMMS_SPI_UART.c ****     *   - RX software buffer is enabled: Returns data element from the software
  56:.\Generated_Source\PSoC4/UARTCOMMS_SPI_UART.c ****     *     receive buffer. Zero value is returned if the software receive buffer
  57:.\Generated_Source\PSoC4/UARTCOMMS_SPI_UART.c ****     *     is empty.
  58:.\Generated_Source\PSoC4/UARTCOMMS_SPI_UART.c ****     *
  59:.\Generated_Source\PSoC4/UARTCOMMS_SPI_UART.c ****     * Parameters:
  60:.\Generated_Source\PSoC4/UARTCOMMS_SPI_UART.c ****     *  None
  61:.\Generated_Source\PSoC4/UARTCOMMS_SPI_UART.c ****     *
  62:.\Generated_Source\PSoC4/UARTCOMMS_SPI_UART.c ****     * Return:
  63:.\Generated_Source\PSoC4/UARTCOMMS_SPI_UART.c ****     *  Next data element from the receive buffer.
  64:.\Generated_Source\PSoC4/UARTCOMMS_SPI_UART.c ****     *
  65:.\Generated_Source\PSoC4/UARTCOMMS_SPI_UART.c ****     * Global Variables:
  66:.\Generated_Source\PSoC4/UARTCOMMS_SPI_UART.c ****     *  Look into UARTCOMMS_SpiInit for description.
  67:.\Generated_Source\PSoC4/UARTCOMMS_SPI_UART.c ****     *
  68:.\Generated_Source\PSoC4/UARTCOMMS_SPI_UART.c ****     *******************************************************************************/
  69:.\Generated_Source\PSoC4/UARTCOMMS_SPI_UART.c ****     uint32 UARTCOMMS_SpiUartReadRxData(void)
  70:.\Generated_Source\PSoC4/UARTCOMMS_SPI_UART.c ****     {
  71:.\Generated_Source\PSoC4/UARTCOMMS_SPI_UART.c ****         uint32 rxData = 0u;
  72:.\Generated_Source\PSoC4/UARTCOMMS_SPI_UART.c **** 
  73:.\Generated_Source\PSoC4/UARTCOMMS_SPI_UART.c ****     #if (UARTCOMMS_INTERNAL_RX_SW_BUFFER_CONST)
  74:.\Generated_Source\PSoC4/UARTCOMMS_SPI_UART.c ****         uint32 locTail;
  75:.\Generated_Source\PSoC4/UARTCOMMS_SPI_UART.c ****     #endif /* (UARTCOMMS_INTERNAL_RX_SW_BUFFER_CONST) */
  76:.\Generated_Source\PSoC4/UARTCOMMS_SPI_UART.c **** 
  77:.\Generated_Source\PSoC4/UARTCOMMS_SPI_UART.c ****         #if (UARTCOMMS_CHECK_RX_SW_BUFFER)
  78:.\Generated_Source\PSoC4/UARTCOMMS_SPI_UART.c ****         {
  79:.\Generated_Source\PSoC4/UARTCOMMS_SPI_UART.c ****             if (UARTCOMMS_rxBufferHead != UARTCOMMS_rxBufferTail)
  80:.\Generated_Source\PSoC4/UARTCOMMS_SPI_UART.c ****             {
  81:.\Generated_Source\PSoC4/UARTCOMMS_SPI_UART.c ****                 /* There is data in RX software buffer */
  82:.\Generated_Source\PSoC4/UARTCOMMS_SPI_UART.c **** 
  83:.\Generated_Source\PSoC4/UARTCOMMS_SPI_UART.c ****                 /* Calculate index to read from */
  84:.\Generated_Source\PSoC4/UARTCOMMS_SPI_UART.c ****                 locTail = (UARTCOMMS_rxBufferTail + 1u);
  85:.\Generated_Source\PSoC4/UARTCOMMS_SPI_UART.c **** 
  86:.\Generated_Source\PSoC4/UARTCOMMS_SPI_UART.c ****                 if (UARTCOMMS_INTERNAL_RX_BUFFER_SIZE == locTail)
  87:.\Generated_Source\PSoC4/UARTCOMMS_SPI_UART.c ****                 {
  88:.\Generated_Source\PSoC4/UARTCOMMS_SPI_UART.c ****                     locTail = 0u;
  89:.\Generated_Source\PSoC4/UARTCOMMS_SPI_UART.c ****                 }
ARM GAS  C:\Users\Tim\AppData\Local\Temp\ccfXo006.s 			page 3


  90:.\Generated_Source\PSoC4/UARTCOMMS_SPI_UART.c **** 
  91:.\Generated_Source\PSoC4/UARTCOMMS_SPI_UART.c ****                 /* Get data from RX software buffer */
  92:.\Generated_Source\PSoC4/UARTCOMMS_SPI_UART.c ****                 rxData = UARTCOMMS_GetWordFromRxBuffer(locTail);
  93:.\Generated_Source\PSoC4/UARTCOMMS_SPI_UART.c **** 
  94:.\Generated_Source\PSoC4/UARTCOMMS_SPI_UART.c ****                 /* Change index in the buffer */
  95:.\Generated_Source\PSoC4/UARTCOMMS_SPI_UART.c ****                 UARTCOMMS_rxBufferTail = locTail;
  96:.\Generated_Source\PSoC4/UARTCOMMS_SPI_UART.c **** 
  97:.\Generated_Source\PSoC4/UARTCOMMS_SPI_UART.c ****                 #if (UARTCOMMS_CHECK_UART_RTS_CONTROL_FLOW)
  98:.\Generated_Source\PSoC4/UARTCOMMS_SPI_UART.c ****                 {
  99:.\Generated_Source\PSoC4/UARTCOMMS_SPI_UART.c ****                     /* Check if RX Not Empty is disabled in the interrupt */
 100:.\Generated_Source\PSoC4/UARTCOMMS_SPI_UART.c ****                     if (0u == (UARTCOMMS_INTR_RX_MASK_REG & UARTCOMMS_INTR_RX_NOT_EMPTY))
 101:.\Generated_Source\PSoC4/UARTCOMMS_SPI_UART.c ****                     {
 102:.\Generated_Source\PSoC4/UARTCOMMS_SPI_UART.c ****                         /* Enable RX Not Empty interrupt source to continue
 103:.\Generated_Source\PSoC4/UARTCOMMS_SPI_UART.c ****                         * receiving data into software buffer.
 104:.\Generated_Source\PSoC4/UARTCOMMS_SPI_UART.c ****                         */
 105:.\Generated_Source\PSoC4/UARTCOMMS_SPI_UART.c ****                         UARTCOMMS_INTR_RX_MASK_REG |= UARTCOMMS_INTR_RX_NOT_EMPTY;
 106:.\Generated_Source\PSoC4/UARTCOMMS_SPI_UART.c ****                     }
 107:.\Generated_Source\PSoC4/UARTCOMMS_SPI_UART.c ****                 }
 108:.\Generated_Source\PSoC4/UARTCOMMS_SPI_UART.c ****                 #endif
 109:.\Generated_Source\PSoC4/UARTCOMMS_SPI_UART.c **** 
 110:.\Generated_Source\PSoC4/UARTCOMMS_SPI_UART.c ****             }
 111:.\Generated_Source\PSoC4/UARTCOMMS_SPI_UART.c ****         }
 112:.\Generated_Source\PSoC4/UARTCOMMS_SPI_UART.c ****         #else
 113:.\Generated_Source\PSoC4/UARTCOMMS_SPI_UART.c ****         {
 114:.\Generated_Source\PSoC4/UARTCOMMS_SPI_UART.c ****             /* Read data from RX FIFO */
 115:.\Generated_Source\PSoC4/UARTCOMMS_SPI_UART.c ****             rxData = UARTCOMMS_RX_FIFO_RD_REG;
 116:.\Generated_Source\PSoC4/UARTCOMMS_SPI_UART.c ****         }
 117:.\Generated_Source\PSoC4/UARTCOMMS_SPI_UART.c ****         #endif
 118:.\Generated_Source\PSoC4/UARTCOMMS_SPI_UART.c **** 
 119:.\Generated_Source\PSoC4/UARTCOMMS_SPI_UART.c ****         return (rxData);
 120:.\Generated_Source\PSoC4/UARTCOMMS_SPI_UART.c ****     }
 121:.\Generated_Source\PSoC4/UARTCOMMS_SPI_UART.c **** 
 122:.\Generated_Source\PSoC4/UARTCOMMS_SPI_UART.c **** 
 123:.\Generated_Source\PSoC4/UARTCOMMS_SPI_UART.c ****     /*******************************************************************************
 124:.\Generated_Source\PSoC4/UARTCOMMS_SPI_UART.c ****     * Function Name: UARTCOMMS_SpiUartGetRxBufferSize
 125:.\Generated_Source\PSoC4/UARTCOMMS_SPI_UART.c ****     ********************************************************************************
 126:.\Generated_Source\PSoC4/UARTCOMMS_SPI_UART.c ****     *
 127:.\Generated_Source\PSoC4/UARTCOMMS_SPI_UART.c ****     * Summary:
 128:.\Generated_Source\PSoC4/UARTCOMMS_SPI_UART.c ****     *  Returns the number of received data elements in the receive buffer.
 129:.\Generated_Source\PSoC4/UARTCOMMS_SPI_UART.c ****     *   - RX software buffer disabled: returns the number of used entries in
 130:.\Generated_Source\PSoC4/UARTCOMMS_SPI_UART.c ****     *     RX FIFO.
 131:.\Generated_Source\PSoC4/UARTCOMMS_SPI_UART.c ****     *   - RX software buffer enabled: returns the number of elements which were
 132:.\Generated_Source\PSoC4/UARTCOMMS_SPI_UART.c ****     *     placed in the receive buffer. This does not include the hardware RX FIFO.
 133:.\Generated_Source\PSoC4/UARTCOMMS_SPI_UART.c ****     *
 134:.\Generated_Source\PSoC4/UARTCOMMS_SPI_UART.c ****     * Parameters:
 135:.\Generated_Source\PSoC4/UARTCOMMS_SPI_UART.c ****     *  None
 136:.\Generated_Source\PSoC4/UARTCOMMS_SPI_UART.c ****     *
 137:.\Generated_Source\PSoC4/UARTCOMMS_SPI_UART.c ****     * Return:
 138:.\Generated_Source\PSoC4/UARTCOMMS_SPI_UART.c ****     *  Number of received data elements
 139:.\Generated_Source\PSoC4/UARTCOMMS_SPI_UART.c ****     *
 140:.\Generated_Source\PSoC4/UARTCOMMS_SPI_UART.c ****     *******************************************************************************/
 141:.\Generated_Source\PSoC4/UARTCOMMS_SPI_UART.c ****     uint32 UARTCOMMS_SpiUartGetRxBufferSize(void)
 142:.\Generated_Source\PSoC4/UARTCOMMS_SPI_UART.c ****     {
 143:.\Generated_Source\PSoC4/UARTCOMMS_SPI_UART.c ****         uint32 size;
 144:.\Generated_Source\PSoC4/UARTCOMMS_SPI_UART.c ****     #if (UARTCOMMS_INTERNAL_RX_SW_BUFFER_CONST)
 145:.\Generated_Source\PSoC4/UARTCOMMS_SPI_UART.c ****         uint32 locHead;
 146:.\Generated_Source\PSoC4/UARTCOMMS_SPI_UART.c ****     #endif /* (UARTCOMMS_INTERNAL_RX_SW_BUFFER_CONST) */
ARM GAS  C:\Users\Tim\AppData\Local\Temp\ccfXo006.s 			page 4


 147:.\Generated_Source\PSoC4/UARTCOMMS_SPI_UART.c **** 
 148:.\Generated_Source\PSoC4/UARTCOMMS_SPI_UART.c ****         #if (UARTCOMMS_CHECK_RX_SW_BUFFER)
 149:.\Generated_Source\PSoC4/UARTCOMMS_SPI_UART.c ****         {
 150:.\Generated_Source\PSoC4/UARTCOMMS_SPI_UART.c ****             locHead = UARTCOMMS_rxBufferHead;
 151:.\Generated_Source\PSoC4/UARTCOMMS_SPI_UART.c **** 
 152:.\Generated_Source\PSoC4/UARTCOMMS_SPI_UART.c ****             if(locHead >= UARTCOMMS_rxBufferTail)
 153:.\Generated_Source\PSoC4/UARTCOMMS_SPI_UART.c ****             {
 154:.\Generated_Source\PSoC4/UARTCOMMS_SPI_UART.c ****                 size = (locHead - UARTCOMMS_rxBufferTail);
 155:.\Generated_Source\PSoC4/UARTCOMMS_SPI_UART.c ****             }
 156:.\Generated_Source\PSoC4/UARTCOMMS_SPI_UART.c ****             else
 157:.\Generated_Source\PSoC4/UARTCOMMS_SPI_UART.c ****             {
 158:.\Generated_Source\PSoC4/UARTCOMMS_SPI_UART.c ****                 size = (locHead + (UARTCOMMS_INTERNAL_RX_BUFFER_SIZE - UARTCOMMS_rxBufferTail));
 159:.\Generated_Source\PSoC4/UARTCOMMS_SPI_UART.c ****             }
 160:.\Generated_Source\PSoC4/UARTCOMMS_SPI_UART.c ****         }
 161:.\Generated_Source\PSoC4/UARTCOMMS_SPI_UART.c ****         #else
 162:.\Generated_Source\PSoC4/UARTCOMMS_SPI_UART.c ****         {
 163:.\Generated_Source\PSoC4/UARTCOMMS_SPI_UART.c ****             size = UARTCOMMS_GET_RX_FIFO_ENTRIES;
 164:.\Generated_Source\PSoC4/UARTCOMMS_SPI_UART.c ****         }
 165:.\Generated_Source\PSoC4/UARTCOMMS_SPI_UART.c ****         #endif
 166:.\Generated_Source\PSoC4/UARTCOMMS_SPI_UART.c **** 
 167:.\Generated_Source\PSoC4/UARTCOMMS_SPI_UART.c ****         return (size);
 168:.\Generated_Source\PSoC4/UARTCOMMS_SPI_UART.c ****     }
 169:.\Generated_Source\PSoC4/UARTCOMMS_SPI_UART.c **** 
 170:.\Generated_Source\PSoC4/UARTCOMMS_SPI_UART.c **** 
 171:.\Generated_Source\PSoC4/UARTCOMMS_SPI_UART.c ****     /*******************************************************************************
 172:.\Generated_Source\PSoC4/UARTCOMMS_SPI_UART.c ****     * Function Name: UARTCOMMS_SpiUartClearRxBuffer
 173:.\Generated_Source\PSoC4/UARTCOMMS_SPI_UART.c ****     ********************************************************************************
 174:.\Generated_Source\PSoC4/UARTCOMMS_SPI_UART.c ****     *
 175:.\Generated_Source\PSoC4/UARTCOMMS_SPI_UART.c ****     * Summary:
 176:.\Generated_Source\PSoC4/UARTCOMMS_SPI_UART.c ****     *  Clears the receive buffer and RX FIFO.
 177:.\Generated_Source\PSoC4/UARTCOMMS_SPI_UART.c ****     *
 178:.\Generated_Source\PSoC4/UARTCOMMS_SPI_UART.c ****     * Parameters:
 179:.\Generated_Source\PSoC4/UARTCOMMS_SPI_UART.c ****     *  None
 180:.\Generated_Source\PSoC4/UARTCOMMS_SPI_UART.c ****     *
 181:.\Generated_Source\PSoC4/UARTCOMMS_SPI_UART.c ****     * Return:
 182:.\Generated_Source\PSoC4/UARTCOMMS_SPI_UART.c ****     *  None
 183:.\Generated_Source\PSoC4/UARTCOMMS_SPI_UART.c ****     *
 184:.\Generated_Source\PSoC4/UARTCOMMS_SPI_UART.c ****     *******************************************************************************/
 185:.\Generated_Source\PSoC4/UARTCOMMS_SPI_UART.c ****     void UARTCOMMS_SpiUartClearRxBuffer(void)
 186:.\Generated_Source\PSoC4/UARTCOMMS_SPI_UART.c ****     {
 187:.\Generated_Source\PSoC4/UARTCOMMS_SPI_UART.c ****         #if (UARTCOMMS_CHECK_RX_SW_BUFFER)
 188:.\Generated_Source\PSoC4/UARTCOMMS_SPI_UART.c ****         {
 189:.\Generated_Source\PSoC4/UARTCOMMS_SPI_UART.c ****             /* Lock from component interruption */
 190:.\Generated_Source\PSoC4/UARTCOMMS_SPI_UART.c ****             UARTCOMMS_DisableInt();
 191:.\Generated_Source\PSoC4/UARTCOMMS_SPI_UART.c **** 
 192:.\Generated_Source\PSoC4/UARTCOMMS_SPI_UART.c ****             /* Flush RX software buffer */
 193:.\Generated_Source\PSoC4/UARTCOMMS_SPI_UART.c ****             UARTCOMMS_rxBufferHead = UARTCOMMS_rxBufferTail;
 194:.\Generated_Source\PSoC4/UARTCOMMS_SPI_UART.c ****             UARTCOMMS_rxBufferOverflow = 0u;
 195:.\Generated_Source\PSoC4/UARTCOMMS_SPI_UART.c **** 
 196:.\Generated_Source\PSoC4/UARTCOMMS_SPI_UART.c ****             UARTCOMMS_CLEAR_RX_FIFO;
 197:.\Generated_Source\PSoC4/UARTCOMMS_SPI_UART.c ****             UARTCOMMS_ClearRxInterruptSource(UARTCOMMS_INTR_RX_ALL);
 198:.\Generated_Source\PSoC4/UARTCOMMS_SPI_UART.c **** 
 199:.\Generated_Source\PSoC4/UARTCOMMS_SPI_UART.c ****             #if (UARTCOMMS_CHECK_UART_RTS_CONTROL_FLOW)
 200:.\Generated_Source\PSoC4/UARTCOMMS_SPI_UART.c ****             {
 201:.\Generated_Source\PSoC4/UARTCOMMS_SPI_UART.c ****                 /* Enable RX Not Empty interrupt source to continue receiving
 202:.\Generated_Source\PSoC4/UARTCOMMS_SPI_UART.c ****                 * data into software buffer.
 203:.\Generated_Source\PSoC4/UARTCOMMS_SPI_UART.c ****                 */
ARM GAS  C:\Users\Tim\AppData\Local\Temp\ccfXo006.s 			page 5


 204:.\Generated_Source\PSoC4/UARTCOMMS_SPI_UART.c ****                 UARTCOMMS_INTR_RX_MASK_REG |= UARTCOMMS_INTR_RX_NOT_EMPTY;
 205:.\Generated_Source\PSoC4/UARTCOMMS_SPI_UART.c ****             }
 206:.\Generated_Source\PSoC4/UARTCOMMS_SPI_UART.c ****             #endif
 207:.\Generated_Source\PSoC4/UARTCOMMS_SPI_UART.c **** 
 208:.\Generated_Source\PSoC4/UARTCOMMS_SPI_UART.c ****             /* Release lock */
 209:.\Generated_Source\PSoC4/UARTCOMMS_SPI_UART.c ****             UARTCOMMS_EnableInt();
 210:.\Generated_Source\PSoC4/UARTCOMMS_SPI_UART.c ****         }
 211:.\Generated_Source\PSoC4/UARTCOMMS_SPI_UART.c ****         #else
 212:.\Generated_Source\PSoC4/UARTCOMMS_SPI_UART.c ****         {
 213:.\Generated_Source\PSoC4/UARTCOMMS_SPI_UART.c ****             UARTCOMMS_CLEAR_RX_FIFO;
 214:.\Generated_Source\PSoC4/UARTCOMMS_SPI_UART.c ****         }
 215:.\Generated_Source\PSoC4/UARTCOMMS_SPI_UART.c ****         #endif
 216:.\Generated_Source\PSoC4/UARTCOMMS_SPI_UART.c ****     }
 217:.\Generated_Source\PSoC4/UARTCOMMS_SPI_UART.c **** 
 218:.\Generated_Source\PSoC4/UARTCOMMS_SPI_UART.c **** #endif /* (UARTCOMMS_RX_DIRECTION) */
 219:.\Generated_Source\PSoC4/UARTCOMMS_SPI_UART.c **** 
 220:.\Generated_Source\PSoC4/UARTCOMMS_SPI_UART.c **** 
 221:.\Generated_Source\PSoC4/UARTCOMMS_SPI_UART.c **** #if(UARTCOMMS_TX_DIRECTION)
 222:.\Generated_Source\PSoC4/UARTCOMMS_SPI_UART.c ****     /*******************************************************************************
 223:.\Generated_Source\PSoC4/UARTCOMMS_SPI_UART.c ****     * Function Name: UARTCOMMS_SpiUartWriteTxData
 224:.\Generated_Source\PSoC4/UARTCOMMS_SPI_UART.c ****     ********************************************************************************
 225:.\Generated_Source\PSoC4/UARTCOMMS_SPI_UART.c ****     *
 226:.\Generated_Source\PSoC4/UARTCOMMS_SPI_UART.c ****     * Summary:
 227:.\Generated_Source\PSoC4/UARTCOMMS_SPI_UART.c ****     *  Places a data entry into the transmit buffer to be sent at the next available
 228:.\Generated_Source\PSoC4/UARTCOMMS_SPI_UART.c ****     *  bus time.
 229:.\Generated_Source\PSoC4/UARTCOMMS_SPI_UART.c ****     *  This function is blocking and waits until there is space available to put the
 230:.\Generated_Source\PSoC4/UARTCOMMS_SPI_UART.c ****     *  requested data in the transmit buffer.
 231:.\Generated_Source\PSoC4/UARTCOMMS_SPI_UART.c ****     *
 232:.\Generated_Source\PSoC4/UARTCOMMS_SPI_UART.c ****     * Parameters:
 233:.\Generated_Source\PSoC4/UARTCOMMS_SPI_UART.c ****     *  txDataByte: the data to be transmitted.
 234:.\Generated_Source\PSoC4/UARTCOMMS_SPI_UART.c ****     *
 235:.\Generated_Source\PSoC4/UARTCOMMS_SPI_UART.c ****     * Return:
 236:.\Generated_Source\PSoC4/UARTCOMMS_SPI_UART.c ****     *  None
 237:.\Generated_Source\PSoC4/UARTCOMMS_SPI_UART.c ****     *
 238:.\Generated_Source\PSoC4/UARTCOMMS_SPI_UART.c ****     *******************************************************************************/
 239:.\Generated_Source\PSoC4/UARTCOMMS_SPI_UART.c ****     void UARTCOMMS_SpiUartWriteTxData(uint32 txData)
 240:.\Generated_Source\PSoC4/UARTCOMMS_SPI_UART.c ****     {
  26              		.loc 1 240 0
  27              		.cfi_startproc
  28              	.LVL0:
 241:.\Generated_Source\PSoC4/UARTCOMMS_SPI_UART.c ****     #if (UARTCOMMS_INTERNAL_TX_SW_BUFFER_CONST)
 242:.\Generated_Source\PSoC4/UARTCOMMS_SPI_UART.c ****         uint32 locHead;
 243:.\Generated_Source\PSoC4/UARTCOMMS_SPI_UART.c ****     #endif /* (UARTCOMMS_INTERNAL_TX_SW_BUFFER_CONST) */
 244:.\Generated_Source\PSoC4/UARTCOMMS_SPI_UART.c **** 
 245:.\Generated_Source\PSoC4/UARTCOMMS_SPI_UART.c ****         #if (UARTCOMMS_CHECK_TX_SW_BUFFER)
 246:.\Generated_Source\PSoC4/UARTCOMMS_SPI_UART.c ****         {
 247:.\Generated_Source\PSoC4/UARTCOMMS_SPI_UART.c ****             /* Put data directly into the TX FIFO */
 248:.\Generated_Source\PSoC4/UARTCOMMS_SPI_UART.c ****             if ((UARTCOMMS_txBufferHead == UARTCOMMS_txBufferTail) &&
  29              		.loc 1 248 0
  30 0000 144B     		ldr	r3, .L7
  31 0002 1A68     		ldr	r2, [r3]
  32 0004 144B     		ldr	r3, .L7+4
  33 0006 1B68     		ldr	r3, [r3]
  34 0008 9A42     		cmp	r2, r3
  35 000a 08D1     		bne	.L2
 249:.\Generated_Source\PSoC4/UARTCOMMS_SPI_UART.c ****                 (UARTCOMMS_SPI_UART_FIFO_SIZE != UARTCOMMS_GET_TX_FIFO_ENTRIES))
  36              		.loc 1 249 0 discriminator 1
ARM GAS  C:\Users\Tim\AppData\Local\Temp\ccfXo006.s 			page 6


  37 000c 134B     		ldr	r3, .L7+8
  38 000e 1B68     		ldr	r3, [r3]
  39 0010 1F22     		mov	r2, #31
  40 0012 1340     		and	r3, r2
 248:.\Generated_Source\PSoC4/UARTCOMMS_SPI_UART.c ****                 (UARTCOMMS_SPI_UART_FIFO_SIZE != UARTCOMMS_GET_TX_FIFO_ENTRIES))
  41              		.loc 1 248 0 discriminator 1
  42 0014 082B     		cmp	r3, #8
  43 0016 02D0     		beq	.L2
 250:.\Generated_Source\PSoC4/UARTCOMMS_SPI_UART.c ****             {
 251:.\Generated_Source\PSoC4/UARTCOMMS_SPI_UART.c ****                 /* TX software buffer is empty: put data directly in TX FIFO */
 252:.\Generated_Source\PSoC4/UARTCOMMS_SPI_UART.c ****                 UARTCOMMS_TX_FIFO_WR_REG = txData;
  44              		.loc 1 252 0
  45 0018 114B     		ldr	r3, .L7+12
  46 001a 1860     		str	r0, [r3]
  47 001c 19E0     		b	.L1
  48              	.L2:
 253:.\Generated_Source\PSoC4/UARTCOMMS_SPI_UART.c ****             }
 254:.\Generated_Source\PSoC4/UARTCOMMS_SPI_UART.c ****             /* Put data into TX software buffer */
 255:.\Generated_Source\PSoC4/UARTCOMMS_SPI_UART.c ****             else
 256:.\Generated_Source\PSoC4/UARTCOMMS_SPI_UART.c ****             {
 257:.\Generated_Source\PSoC4/UARTCOMMS_SPI_UART.c ****                 /* Head index to put data */
 258:.\Generated_Source\PSoC4/UARTCOMMS_SPI_UART.c ****                 locHead = (UARTCOMMS_txBufferHead + 1u);
  49              		.loc 1 258 0
  50 001e 0D4B     		ldr	r3, .L7
  51 0020 1B68     		ldr	r3, [r3]
  52              	.LVL1:
 259:.\Generated_Source\PSoC4/UARTCOMMS_SPI_UART.c **** 
 260:.\Generated_Source\PSoC4/UARTCOMMS_SPI_UART.c ****                 /* Adjust TX software buffer index */
 261:.\Generated_Source\PSoC4/UARTCOMMS_SPI_UART.c ****                 if (UARTCOMMS_TX_BUFFER_SIZE == locHead)
  53              		.loc 1 261 0
  54 0022 5A1C     		add	r2, r3, #1
  55              	.LVL2:
  56 0024 FF2B     		cmp	r3, #255
  57 0026 00D1     		bne	.L5
 262:.\Generated_Source\PSoC4/UARTCOMMS_SPI_UART.c ****                 {
 263:.\Generated_Source\PSoC4/UARTCOMMS_SPI_UART.c ****                     locHead = 0u;
  58              		.loc 1 263 0
  59 0028 0022     		mov	r2, #0
  60              	.LVL3:
  61              	.L5:
 264:.\Generated_Source\PSoC4/UARTCOMMS_SPI_UART.c ****                 }
 265:.\Generated_Source\PSoC4/UARTCOMMS_SPI_UART.c **** 
 266:.\Generated_Source\PSoC4/UARTCOMMS_SPI_UART.c ****                 /* Wait for space in TX software buffer */
 267:.\Generated_Source\PSoC4/UARTCOMMS_SPI_UART.c ****                 while (locHead == UARTCOMMS_txBufferTail)
  62              		.loc 1 267 0 discriminator 1
  63 002a 0B4B     		ldr	r3, .L7+4
  64 002c 1B68     		ldr	r3, [r3]
  65 002e 9A42     		cmp	r2, r3
  66 0030 FBD0     		beq	.L5
 268:.\Generated_Source\PSoC4/UARTCOMMS_SPI_UART.c ****                 {
 269:.\Generated_Source\PSoC4/UARTCOMMS_SPI_UART.c ****                 }
 270:.\Generated_Source\PSoC4/UARTCOMMS_SPI_UART.c **** 
 271:.\Generated_Source\PSoC4/UARTCOMMS_SPI_UART.c ****                 /* TX software buffer has at least one room */
 272:.\Generated_Source\PSoC4/UARTCOMMS_SPI_UART.c **** 
 273:.\Generated_Source\PSoC4/UARTCOMMS_SPI_UART.c ****                 /* Clear old status of INTR_TX_NOT_FULL. It sets at the end of transfer when TX FIF
 274:.\Generated_Source\PSoC4/UARTCOMMS_SPI_UART.c ****                 UARTCOMMS_ClearTxInterruptSource(UARTCOMMS_INTR_TX_NOT_FULL);
  67              		.loc 1 274 0
ARM GAS  C:\Users\Tim\AppData\Local\Temp\ccfXo006.s 			page 7


  68 0032 0223     		mov	r3, #2
  69 0034 0B49     		ldr	r1, .L7+16
  70 0036 0B60     		str	r3, [r1]
 275:.\Generated_Source\PSoC4/UARTCOMMS_SPI_UART.c **** 
 276:.\Generated_Source\PSoC4/UARTCOMMS_SPI_UART.c ****                 UARTCOMMS_PutWordInTxBuffer(locHead, txData);
  71              		.loc 1 276 0
  72 0038 C0B2     		uxtb	r0, r0
  73              	.LVL4:
  74 003a 0B49     		ldr	r1, .L7+20
  75 003c 8854     		strb	r0, [r1, r2]
 277:.\Generated_Source\PSoC4/UARTCOMMS_SPI_UART.c **** 
 278:.\Generated_Source\PSoC4/UARTCOMMS_SPI_UART.c ****                 UARTCOMMS_txBufferHead = locHead;
  76              		.loc 1 278 0
  77 003e 0549     		ldr	r1, .L7
  78 0040 0A60     		str	r2, [r1]
 279:.\Generated_Source\PSoC4/UARTCOMMS_SPI_UART.c **** 
 280:.\Generated_Source\PSoC4/UARTCOMMS_SPI_UART.c ****                 /* Check if TX Not Full is disabled in interrupt */
 281:.\Generated_Source\PSoC4/UARTCOMMS_SPI_UART.c ****                 if (0u == (UARTCOMMS_INTR_TX_MASK_REG & UARTCOMMS_INTR_TX_NOT_FULL))
  79              		.loc 1 281 0
  80 0042 0A4A     		ldr	r2, .L7+24
  81              	.LVL5:
  82 0044 1268     		ldr	r2, [r2]
  83 0046 1342     		tst	r3, r2
  84 0048 03D1     		bne	.L1
 282:.\Generated_Source\PSoC4/UARTCOMMS_SPI_UART.c ****                 {
 283:.\Generated_Source\PSoC4/UARTCOMMS_SPI_UART.c ****                     /* Enable TX Not Full interrupt source to transmit from software buffer */
 284:.\Generated_Source\PSoC4/UARTCOMMS_SPI_UART.c ****                     UARTCOMMS_INTR_TX_MASK_REG |= (uint32) UARTCOMMS_INTR_TX_NOT_FULL;
  85              		.loc 1 284 0
  86 004a 084A     		ldr	r2, .L7+24
  87 004c 1168     		ldr	r1, [r2]
  88 004e 0B43     		orr	r3, r1
  89 0050 1360     		str	r3, [r2]
  90              	.LVL6:
  91              	.L1:
 285:.\Generated_Source\PSoC4/UARTCOMMS_SPI_UART.c ****                 }
 286:.\Generated_Source\PSoC4/UARTCOMMS_SPI_UART.c ****             }
 287:.\Generated_Source\PSoC4/UARTCOMMS_SPI_UART.c ****         }
 288:.\Generated_Source\PSoC4/UARTCOMMS_SPI_UART.c ****         #else
 289:.\Generated_Source\PSoC4/UARTCOMMS_SPI_UART.c ****         {
 290:.\Generated_Source\PSoC4/UARTCOMMS_SPI_UART.c ****             /* Wait until TX FIFO has space to put data element */
 291:.\Generated_Source\PSoC4/UARTCOMMS_SPI_UART.c ****             while (UARTCOMMS_SPI_UART_FIFO_SIZE == UARTCOMMS_GET_TX_FIFO_ENTRIES)
 292:.\Generated_Source\PSoC4/UARTCOMMS_SPI_UART.c ****             {
 293:.\Generated_Source\PSoC4/UARTCOMMS_SPI_UART.c ****             }
 294:.\Generated_Source\PSoC4/UARTCOMMS_SPI_UART.c **** 
 295:.\Generated_Source\PSoC4/UARTCOMMS_SPI_UART.c ****             UARTCOMMS_TX_FIFO_WR_REG = txData;
 296:.\Generated_Source\PSoC4/UARTCOMMS_SPI_UART.c ****         }
 297:.\Generated_Source\PSoC4/UARTCOMMS_SPI_UART.c ****         #endif
 298:.\Generated_Source\PSoC4/UARTCOMMS_SPI_UART.c ****     }
  92              		.loc 1 298 0
  93              		@ sp needed
  94 0052 7047     		bx	lr
  95              	.L8:
  96              		.align	2
  97              	.L7:
  98 0054 00000000 		.word	UARTCOMMS_txBufferHead
  99 0058 00000000 		.word	UARTCOMMS_txBufferTail
 100 005c 08022440 		.word	1076101640
ARM GAS  C:\Users\Tim\AppData\Local\Temp\ccfXo006.s 			page 8


 101 0060 40022440 		.word	1076101696
 102 0064 800F2440 		.word	1076105088
 103 0068 00000000 		.word	UARTCOMMS_txBufferInternal
 104 006c 880F2440 		.word	1076105096
 105              		.cfi_endproc
 106              	.LFE2:
 107              		.size	UARTCOMMS_SpiUartWriteTxData, .-UARTCOMMS_SpiUartWriteTxData
 108              		.section	.text.UARTCOMMS_SpiUartPutArray,"ax",%progbits
 109              		.align	2
 110              		.global	UARTCOMMS_SpiUartPutArray
 111              		.code	16
 112              		.thumb_func
 113              		.type	UARTCOMMS_SpiUartPutArray, %function
 114              	UARTCOMMS_SpiUartPutArray:
 115              	.LFB3:
 299:.\Generated_Source\PSoC4/UARTCOMMS_SPI_UART.c **** 
 300:.\Generated_Source\PSoC4/UARTCOMMS_SPI_UART.c **** 
 301:.\Generated_Source\PSoC4/UARTCOMMS_SPI_UART.c ****     /*******************************************************************************
 302:.\Generated_Source\PSoC4/UARTCOMMS_SPI_UART.c ****     * Function Name: UARTCOMMS_SpiUartPutArray
 303:.\Generated_Source\PSoC4/UARTCOMMS_SPI_UART.c ****     ********************************************************************************
 304:.\Generated_Source\PSoC4/UARTCOMMS_SPI_UART.c ****     *
 305:.\Generated_Source\PSoC4/UARTCOMMS_SPI_UART.c ****     * Summary:
 306:.\Generated_Source\PSoC4/UARTCOMMS_SPI_UART.c ****     *  Places an array of data into the transmit buffer to be sent.
 307:.\Generated_Source\PSoC4/UARTCOMMS_SPI_UART.c ****     *  This function is blocking and waits until there is a space available to put
 308:.\Generated_Source\PSoC4/UARTCOMMS_SPI_UART.c ****     *  all the requested data in the transmit buffer. The array size can be greater
 309:.\Generated_Source\PSoC4/UARTCOMMS_SPI_UART.c ****     *  than transmit buffer size.
 310:.\Generated_Source\PSoC4/UARTCOMMS_SPI_UART.c ****     *
 311:.\Generated_Source\PSoC4/UARTCOMMS_SPI_UART.c ****     * Parameters:
 312:.\Generated_Source\PSoC4/UARTCOMMS_SPI_UART.c ****     *  wrBuf:  pointer to an array with data to be placed in transmit buffer.
 313:.\Generated_Source\PSoC4/UARTCOMMS_SPI_UART.c ****     *  count:  number of data elements to be placed in the transmit buffer.
 314:.\Generated_Source\PSoC4/UARTCOMMS_SPI_UART.c ****     *
 315:.\Generated_Source\PSoC4/UARTCOMMS_SPI_UART.c ****     * Return:
 316:.\Generated_Source\PSoC4/UARTCOMMS_SPI_UART.c ****     *  None
 317:.\Generated_Source\PSoC4/UARTCOMMS_SPI_UART.c ****     *
 318:.\Generated_Source\PSoC4/UARTCOMMS_SPI_UART.c ****     *******************************************************************************/
 319:.\Generated_Source\PSoC4/UARTCOMMS_SPI_UART.c ****     void UARTCOMMS_SpiUartPutArray(const uint8 wrBuf[], uint32 count)
 320:.\Generated_Source\PSoC4/UARTCOMMS_SPI_UART.c ****     {
 116              		.loc 1 320 0
 117              		.cfi_startproc
 118              	.LVL7:
 119 0000 70B5     		push	{r4, r5, r6, lr}
 120              		.cfi_def_cfa_offset 16
 121              		.cfi_offset 4, -16
 122              		.cfi_offset 5, -12
 123              		.cfi_offset 6, -8
 124              		.cfi_offset 14, -4
 125 0002 061C     		mov	r6, r0
 126 0004 0D1C     		mov	r5, r1
 127              	.LVL8:
 321:.\Generated_Source\PSoC4/UARTCOMMS_SPI_UART.c ****         uint32 i;
 322:.\Generated_Source\PSoC4/UARTCOMMS_SPI_UART.c **** 
 323:.\Generated_Source\PSoC4/UARTCOMMS_SPI_UART.c ****         for (i=0u; i < count; i++)
 128              		.loc 1 323 0
 129 0006 0024     		mov	r4, #0
 130 0008 03E0     		b	.L10
 131              	.LVL9:
 132              	.L11:
ARM GAS  C:\Users\Tim\AppData\Local\Temp\ccfXo006.s 			page 9


 324:.\Generated_Source\PSoC4/UARTCOMMS_SPI_UART.c ****         {
 325:.\Generated_Source\PSoC4/UARTCOMMS_SPI_UART.c ****             UARTCOMMS_SpiUartWriteTxData((uint32) wrBuf[i]);
 133              		.loc 1 325 0 discriminator 3
 134 000a 305D     		ldrb	r0, [r6, r4]
 135 000c FFF7FEFF 		bl	UARTCOMMS_SpiUartWriteTxData
 136              	.LVL10:
 323:.\Generated_Source\PSoC4/UARTCOMMS_SPI_UART.c ****         {
 137              		.loc 1 323 0 discriminator 3
 138 0010 0134     		add	r4, r4, #1
 139              	.LVL11:
 140              	.L10:
 323:.\Generated_Source\PSoC4/UARTCOMMS_SPI_UART.c ****         {
 141              		.loc 1 323 0 is_stmt 0 discriminator 1
 142 0012 AC42     		cmp	r4, r5
 143 0014 F9D3     		bcc	.L11
 326:.\Generated_Source\PSoC4/UARTCOMMS_SPI_UART.c ****         }
 327:.\Generated_Source\PSoC4/UARTCOMMS_SPI_UART.c ****     }
 144              		.loc 1 327 0 is_stmt 1
 145              		@ sp needed
 146              	.LVL12:
 147              	.LVL13:
 148              	.LVL14:
 149 0016 70BD     		pop	{r4, r5, r6, pc}
 150              		.cfi_endproc
 151              	.LFE3:
 152              		.size	UARTCOMMS_SpiUartPutArray, .-UARTCOMMS_SpiUartPutArray
 153              		.section	.text.UARTCOMMS_SpiUartGetTxBufferSize,"ax",%progbits
 154              		.align	2
 155              		.global	UARTCOMMS_SpiUartGetTxBufferSize
 156              		.code	16
 157              		.thumb_func
 158              		.type	UARTCOMMS_SpiUartGetTxBufferSize, %function
 159              	UARTCOMMS_SpiUartGetTxBufferSize:
 160              	.LFB4:
 328:.\Generated_Source\PSoC4/UARTCOMMS_SPI_UART.c **** 
 329:.\Generated_Source\PSoC4/UARTCOMMS_SPI_UART.c **** 
 330:.\Generated_Source\PSoC4/UARTCOMMS_SPI_UART.c ****     /*******************************************************************************
 331:.\Generated_Source\PSoC4/UARTCOMMS_SPI_UART.c ****     * Function Name: UARTCOMMS_SpiUartGetTxBufferSize
 332:.\Generated_Source\PSoC4/UARTCOMMS_SPI_UART.c ****     ********************************************************************************
 333:.\Generated_Source\PSoC4/UARTCOMMS_SPI_UART.c ****     *
 334:.\Generated_Source\PSoC4/UARTCOMMS_SPI_UART.c ****     * Summary:
 335:.\Generated_Source\PSoC4/UARTCOMMS_SPI_UART.c ****     * Returns the number of elements currently in the transmit buffer.
 336:.\Generated_Source\PSoC4/UARTCOMMS_SPI_UART.c ****     *  - TX software buffer is disabled: returns the number of used entries in
 337:.\Generated_Source\PSoC4/UARTCOMMS_SPI_UART.c ****     *    TX FIFO.
 338:.\Generated_Source\PSoC4/UARTCOMMS_SPI_UART.c ****     *  - TX software buffer is enabled: returns the number of elements currently
 339:.\Generated_Source\PSoC4/UARTCOMMS_SPI_UART.c ****     *    used in the transmit buffer. This number does not include used entries in
 340:.\Generated_Source\PSoC4/UARTCOMMS_SPI_UART.c ****     *    the TX FIFO. The transmit buffer size is zero until the TX FIFO is
 341:.\Generated_Source\PSoC4/UARTCOMMS_SPI_UART.c ****     *    not full.
 342:.\Generated_Source\PSoC4/UARTCOMMS_SPI_UART.c ****     *
 343:.\Generated_Source\PSoC4/UARTCOMMS_SPI_UART.c ****     * Parameters:
 344:.\Generated_Source\PSoC4/UARTCOMMS_SPI_UART.c ****     *  None
 345:.\Generated_Source\PSoC4/UARTCOMMS_SPI_UART.c ****     *
 346:.\Generated_Source\PSoC4/UARTCOMMS_SPI_UART.c ****     * Return:
 347:.\Generated_Source\PSoC4/UARTCOMMS_SPI_UART.c ****     *  Number of data elements ready to transmit.
 348:.\Generated_Source\PSoC4/UARTCOMMS_SPI_UART.c ****     *
 349:.\Generated_Source\PSoC4/UARTCOMMS_SPI_UART.c ****     *******************************************************************************/
 350:.\Generated_Source\PSoC4/UARTCOMMS_SPI_UART.c ****     uint32 UARTCOMMS_SpiUartGetTxBufferSize(void)
ARM GAS  C:\Users\Tim\AppData\Local\Temp\ccfXo006.s 			page 10


 351:.\Generated_Source\PSoC4/UARTCOMMS_SPI_UART.c ****     {
 161              		.loc 1 351 0
 162              		.cfi_startproc
 352:.\Generated_Source\PSoC4/UARTCOMMS_SPI_UART.c ****         uint32 size;
 353:.\Generated_Source\PSoC4/UARTCOMMS_SPI_UART.c ****     #if (UARTCOMMS_INTERNAL_TX_SW_BUFFER_CONST)
 354:.\Generated_Source\PSoC4/UARTCOMMS_SPI_UART.c ****         uint32 locTail;
 355:.\Generated_Source\PSoC4/UARTCOMMS_SPI_UART.c ****     #endif /* (UARTCOMMS_INTERNAL_TX_SW_BUFFER_CONST) */
 356:.\Generated_Source\PSoC4/UARTCOMMS_SPI_UART.c **** 
 357:.\Generated_Source\PSoC4/UARTCOMMS_SPI_UART.c ****         #if (UARTCOMMS_CHECK_TX_SW_BUFFER)
 358:.\Generated_Source\PSoC4/UARTCOMMS_SPI_UART.c ****         {
 359:.\Generated_Source\PSoC4/UARTCOMMS_SPI_UART.c ****             /* Get current Tail index */
 360:.\Generated_Source\PSoC4/UARTCOMMS_SPI_UART.c ****             locTail = UARTCOMMS_txBufferTail;
 163              		.loc 1 360 0
 164 0000 074B     		ldr	r3, .L15
 165 0002 1868     		ldr	r0, [r3]
 166              	.LVL15:
 361:.\Generated_Source\PSoC4/UARTCOMMS_SPI_UART.c **** 
 362:.\Generated_Source\PSoC4/UARTCOMMS_SPI_UART.c ****             if (UARTCOMMS_txBufferHead >= locTail)
 167              		.loc 1 362 0
 168 0004 074B     		ldr	r3, .L15+4
 169 0006 1B68     		ldr	r3, [r3]
 170 0008 8342     		cmp	r3, r0
 171 000a 03D3     		bcc	.L13
 363:.\Generated_Source\PSoC4/UARTCOMMS_SPI_UART.c ****             {
 364:.\Generated_Source\PSoC4/UARTCOMMS_SPI_UART.c ****                 size = (UARTCOMMS_txBufferHead - locTail);
 172              		.loc 1 364 0
 173 000c 054B     		ldr	r3, .L15+4
 174 000e 1B68     		ldr	r3, [r3]
 175 0010 181A     		sub	r0, r3, r0
 176              	.LVL16:
 177 0012 04E0     		b	.L14
 178              	.LVL17:
 179              	.L13:
 365:.\Generated_Source\PSoC4/UARTCOMMS_SPI_UART.c ****             }
 366:.\Generated_Source\PSoC4/UARTCOMMS_SPI_UART.c ****             else
 367:.\Generated_Source\PSoC4/UARTCOMMS_SPI_UART.c ****             {
 368:.\Generated_Source\PSoC4/UARTCOMMS_SPI_UART.c ****                 size = (UARTCOMMS_txBufferHead + (UARTCOMMS_TX_BUFFER_SIZE - locTail));
 180              		.loc 1 368 0
 181 0014 034B     		ldr	r3, .L15+4
 182 0016 1B68     		ldr	r3, [r3]
 183 0018 181A     		sub	r0, r3, r0
 184              	.LVL18:
 185 001a 0130     		add	r0, r0, #1
 186 001c FF30     		add	r0, r0, #255
 187              	.LVL19:
 188              	.L14:
 369:.\Generated_Source\PSoC4/UARTCOMMS_SPI_UART.c ****             }
 370:.\Generated_Source\PSoC4/UARTCOMMS_SPI_UART.c ****         }
 371:.\Generated_Source\PSoC4/UARTCOMMS_SPI_UART.c ****         #else
 372:.\Generated_Source\PSoC4/UARTCOMMS_SPI_UART.c ****         {
 373:.\Generated_Source\PSoC4/UARTCOMMS_SPI_UART.c ****             size = UARTCOMMS_GET_TX_FIFO_ENTRIES;
 374:.\Generated_Source\PSoC4/UARTCOMMS_SPI_UART.c ****         }
 375:.\Generated_Source\PSoC4/UARTCOMMS_SPI_UART.c ****         #endif
 376:.\Generated_Source\PSoC4/UARTCOMMS_SPI_UART.c **** 
 377:.\Generated_Source\PSoC4/UARTCOMMS_SPI_UART.c ****         return (size);
 378:.\Generated_Source\PSoC4/UARTCOMMS_SPI_UART.c ****     }
 189              		.loc 1 378 0
ARM GAS  C:\Users\Tim\AppData\Local\Temp\ccfXo006.s 			page 11


 190              		@ sp needed
 191 001e 7047     		bx	lr
 192              	.L16:
 193              		.align	2
 194              	.L15:
 195 0020 00000000 		.word	UARTCOMMS_txBufferTail
 196 0024 00000000 		.word	UARTCOMMS_txBufferHead
 197              		.cfi_endproc
 198              	.LFE4:
 199              		.size	UARTCOMMS_SpiUartGetTxBufferSize, .-UARTCOMMS_SpiUartGetTxBufferSize
 200              		.section	.text.UARTCOMMS_SpiUartClearTxBuffer,"ax",%progbits
 201              		.align	2
 202              		.global	UARTCOMMS_SpiUartClearTxBuffer
 203              		.code	16
 204              		.thumb_func
 205              		.type	UARTCOMMS_SpiUartClearTxBuffer, %function
 206              	UARTCOMMS_SpiUartClearTxBuffer:
 207              	.LFB5:
 379:.\Generated_Source\PSoC4/UARTCOMMS_SPI_UART.c **** 
 380:.\Generated_Source\PSoC4/UARTCOMMS_SPI_UART.c **** 
 381:.\Generated_Source\PSoC4/UARTCOMMS_SPI_UART.c ****     /*******************************************************************************
 382:.\Generated_Source\PSoC4/UARTCOMMS_SPI_UART.c ****     * Function Name: UARTCOMMS_SpiUartClearTxBuffer
 383:.\Generated_Source\PSoC4/UARTCOMMS_SPI_UART.c ****     ********************************************************************************
 384:.\Generated_Source\PSoC4/UARTCOMMS_SPI_UART.c ****     *
 385:.\Generated_Source\PSoC4/UARTCOMMS_SPI_UART.c ****     * Summary:
 386:.\Generated_Source\PSoC4/UARTCOMMS_SPI_UART.c ****     *  Clears the transmit buffer and TX FIFO.
 387:.\Generated_Source\PSoC4/UARTCOMMS_SPI_UART.c ****     *
 388:.\Generated_Source\PSoC4/UARTCOMMS_SPI_UART.c ****     * Parameters:
 389:.\Generated_Source\PSoC4/UARTCOMMS_SPI_UART.c ****     *  None
 390:.\Generated_Source\PSoC4/UARTCOMMS_SPI_UART.c ****     *
 391:.\Generated_Source\PSoC4/UARTCOMMS_SPI_UART.c ****     * Return:
 392:.\Generated_Source\PSoC4/UARTCOMMS_SPI_UART.c ****     *  None
 393:.\Generated_Source\PSoC4/UARTCOMMS_SPI_UART.c ****     *
 394:.\Generated_Source\PSoC4/UARTCOMMS_SPI_UART.c ****     *******************************************************************************/
 395:.\Generated_Source\PSoC4/UARTCOMMS_SPI_UART.c ****     void UARTCOMMS_SpiUartClearTxBuffer(void)
 396:.\Generated_Source\PSoC4/UARTCOMMS_SPI_UART.c ****     {
 208              		.loc 1 396 0
 209              		.cfi_startproc
 210 0000 08B5     		push	{r3, lr}
 211              		.cfi_def_cfa_offset 8
 212              		.cfi_offset 3, -8
 213              		.cfi_offset 14, -4
 397:.\Generated_Source\PSoC4/UARTCOMMS_SPI_UART.c ****         #if (UARTCOMMS_CHECK_TX_SW_BUFFER)
 398:.\Generated_Source\PSoC4/UARTCOMMS_SPI_UART.c ****         {
 399:.\Generated_Source\PSoC4/UARTCOMMS_SPI_UART.c ****             /* Lock from component interruption */
 400:.\Generated_Source\PSoC4/UARTCOMMS_SPI_UART.c ****             UARTCOMMS_DisableInt();
 214              		.loc 1 400 0
 215 0002 0920     		mov	r0, #9
 216 0004 FFF7FEFF 		bl	CyIntDisable
 217              	.LVL20:
 401:.\Generated_Source\PSoC4/UARTCOMMS_SPI_UART.c **** 
 402:.\Generated_Source\PSoC4/UARTCOMMS_SPI_UART.c ****             /* Flush TX software buffer */
 403:.\Generated_Source\PSoC4/UARTCOMMS_SPI_UART.c ****             UARTCOMMS_txBufferHead = UARTCOMMS_txBufferTail;
 218              		.loc 1 403 0
 219 0008 0C4B     		ldr	r3, .L18
 220 000a 1A68     		ldr	r2, [r3]
 221 000c 0C4B     		ldr	r3, .L18+4
ARM GAS  C:\Users\Tim\AppData\Local\Temp\ccfXo006.s 			page 12


 222 000e 1A60     		str	r2, [r3]
 404:.\Generated_Source\PSoC4/UARTCOMMS_SPI_UART.c **** 
 405:.\Generated_Source\PSoC4/UARTCOMMS_SPI_UART.c ****             UARTCOMMS_INTR_TX_MASK_REG &= (uint32) ~UARTCOMMS_INTR_TX_NOT_FULL;
 223              		.loc 1 405 0
 224 0010 0C4A     		ldr	r2, .L18+8
 225 0012 1368     		ldr	r3, [r2]
 226 0014 0221     		mov	r1, #2
 227 0016 8B43     		bic	r3, r1
 228 0018 1360     		str	r3, [r2]
 406:.\Generated_Source\PSoC4/UARTCOMMS_SPI_UART.c ****             UARTCOMMS_CLEAR_TX_FIFO;
 229              		.loc 1 406 0
 230 001a 0B4B     		ldr	r3, .L18+12
 231 001c 1A68     		ldr	r2, [r3]
 232 001e 8021     		mov	r1, #128
 233 0020 4902     		lsl	r1, r1, #9
 234 0022 0A43     		orr	r2, r1
 235 0024 1A60     		str	r2, [r3]
 236 0026 1968     		ldr	r1, [r3]
 237 0028 084A     		ldr	r2, .L18+16
 238 002a 0A40     		and	r2, r1
 239 002c 1A60     		str	r2, [r3]
 407:.\Generated_Source\PSoC4/UARTCOMMS_SPI_UART.c ****             UARTCOMMS_ClearTxInterruptSource(UARTCOMMS_INTR_TX_ALL);
 240              		.loc 1 407 0
 241 002e 084A     		ldr	r2, .L18+20
 242 0030 084B     		ldr	r3, .L18+24
 243 0032 1A60     		str	r2, [r3]
 408:.\Generated_Source\PSoC4/UARTCOMMS_SPI_UART.c **** 
 409:.\Generated_Source\PSoC4/UARTCOMMS_SPI_UART.c ****             /* Release lock */
 410:.\Generated_Source\PSoC4/UARTCOMMS_SPI_UART.c ****             UARTCOMMS_EnableInt();
 244              		.loc 1 410 0
 245 0034 0920     		mov	r0, #9
 246 0036 FFF7FEFF 		bl	CyIntEnable
 247              	.LVL21:
 411:.\Generated_Source\PSoC4/UARTCOMMS_SPI_UART.c ****         }
 412:.\Generated_Source\PSoC4/UARTCOMMS_SPI_UART.c ****         #else
 413:.\Generated_Source\PSoC4/UARTCOMMS_SPI_UART.c ****         {
 414:.\Generated_Source\PSoC4/UARTCOMMS_SPI_UART.c ****             UARTCOMMS_CLEAR_TX_FIFO;
 415:.\Generated_Source\PSoC4/UARTCOMMS_SPI_UART.c ****         }
 416:.\Generated_Source\PSoC4/UARTCOMMS_SPI_UART.c ****         #endif
 417:.\Generated_Source\PSoC4/UARTCOMMS_SPI_UART.c ****     }
 248              		.loc 1 417 0
 249              		@ sp needed
 250 003a 08BD     		pop	{r3, pc}
 251              	.L19:
 252              		.align	2
 253              	.L18:
 254 003c 00000000 		.word	UARTCOMMS_txBufferTail
 255 0040 00000000 		.word	UARTCOMMS_txBufferHead
 256 0044 880F2440 		.word	1076105096
 257 0048 04022440 		.word	1076101636
 258 004c FFFFFEFF 		.word	-65537
 259 0050 F3070000 		.word	2035
 260 0054 800F2440 		.word	1076105088
 261              		.cfi_endproc
 262              	.LFE5:
 263              		.size	UARTCOMMS_SpiUartClearTxBuffer, .-UARTCOMMS_SpiUartClearTxBuffer
 264              		.section	.text.UARTCOMMS_SpiUartDisableIntRx,"ax",%progbits
ARM GAS  C:\Users\Tim\AppData\Local\Temp\ccfXo006.s 			page 13


 265              		.align	2
 266              		.global	UARTCOMMS_SpiUartDisableIntRx
 267              		.code	16
 268              		.thumb_func
 269              		.type	UARTCOMMS_SpiUartDisableIntRx, %function
 270              	UARTCOMMS_SpiUartDisableIntRx:
 271              	.LFB6:
 418:.\Generated_Source\PSoC4/UARTCOMMS_SPI_UART.c **** 
 419:.\Generated_Source\PSoC4/UARTCOMMS_SPI_UART.c **** #endif /* (UARTCOMMS_TX_DIRECTION) */
 420:.\Generated_Source\PSoC4/UARTCOMMS_SPI_UART.c **** 
 421:.\Generated_Source\PSoC4/UARTCOMMS_SPI_UART.c **** 
 422:.\Generated_Source\PSoC4/UARTCOMMS_SPI_UART.c **** /*******************************************************************************
 423:.\Generated_Source\PSoC4/UARTCOMMS_SPI_UART.c **** * Function Name: UARTCOMMS_SpiUartDisableIntRx
 424:.\Generated_Source\PSoC4/UARTCOMMS_SPI_UART.c **** ********************************************************************************
 425:.\Generated_Source\PSoC4/UARTCOMMS_SPI_UART.c **** *
 426:.\Generated_Source\PSoC4/UARTCOMMS_SPI_UART.c **** * Summary:
 427:.\Generated_Source\PSoC4/UARTCOMMS_SPI_UART.c **** *  Disables the RX interrupt sources.
 428:.\Generated_Source\PSoC4/UARTCOMMS_SPI_UART.c **** *
 429:.\Generated_Source\PSoC4/UARTCOMMS_SPI_UART.c **** * Parameters:
 430:.\Generated_Source\PSoC4/UARTCOMMS_SPI_UART.c **** *  None
 431:.\Generated_Source\PSoC4/UARTCOMMS_SPI_UART.c **** *
 432:.\Generated_Source\PSoC4/UARTCOMMS_SPI_UART.c **** * Return:
 433:.\Generated_Source\PSoC4/UARTCOMMS_SPI_UART.c **** *  Returns the RX interrupt sources enabled before the function call.
 434:.\Generated_Source\PSoC4/UARTCOMMS_SPI_UART.c **** *
 435:.\Generated_Source\PSoC4/UARTCOMMS_SPI_UART.c **** *******************************************************************************/
 436:.\Generated_Source\PSoC4/UARTCOMMS_SPI_UART.c **** uint32 UARTCOMMS_SpiUartDisableIntRx(void)
 437:.\Generated_Source\PSoC4/UARTCOMMS_SPI_UART.c **** {
 272              		.loc 1 437 0
 273              		.cfi_startproc
 438:.\Generated_Source\PSoC4/UARTCOMMS_SPI_UART.c ****     uint32 intSource;
 439:.\Generated_Source\PSoC4/UARTCOMMS_SPI_UART.c **** 
 440:.\Generated_Source\PSoC4/UARTCOMMS_SPI_UART.c ****     intSource = UARTCOMMS_GetRxInterruptMode();
 274              		.loc 1 440 0
 275 0000 024B     		ldr	r3, .L21
 276 0002 1868     		ldr	r0, [r3]
 277              	.LVL22:
 441:.\Generated_Source\PSoC4/UARTCOMMS_SPI_UART.c **** 
 442:.\Generated_Source\PSoC4/UARTCOMMS_SPI_UART.c ****     UARTCOMMS_SetRxInterruptMode(UARTCOMMS_NO_INTR_SOURCES);
 278              		.loc 1 442 0
 279 0004 0022     		mov	r2, #0
 280 0006 1A60     		str	r2, [r3]
 443:.\Generated_Source\PSoC4/UARTCOMMS_SPI_UART.c **** 
 444:.\Generated_Source\PSoC4/UARTCOMMS_SPI_UART.c ****     return (intSource);
 445:.\Generated_Source\PSoC4/UARTCOMMS_SPI_UART.c **** }
 281              		.loc 1 445 0
 282              		@ sp needed
 283 0008 7047     		bx	lr
 284              	.L22:
 285 000a C046     		.align	2
 286              	.L21:
 287 000c C80F2440 		.word	1076105160
 288              		.cfi_endproc
 289              	.LFE6:
 290              		.size	UARTCOMMS_SpiUartDisableIntRx, .-UARTCOMMS_SpiUartDisableIntRx
 291              		.section	.text.UARTCOMMS_SpiUartDisableIntTx,"ax",%progbits
 292              		.align	2
 293              		.global	UARTCOMMS_SpiUartDisableIntTx
ARM GAS  C:\Users\Tim\AppData\Local\Temp\ccfXo006.s 			page 14


 294              		.code	16
 295              		.thumb_func
 296              		.type	UARTCOMMS_SpiUartDisableIntTx, %function
 297              	UARTCOMMS_SpiUartDisableIntTx:
 298              	.LFB7:
 446:.\Generated_Source\PSoC4/UARTCOMMS_SPI_UART.c **** 
 447:.\Generated_Source\PSoC4/UARTCOMMS_SPI_UART.c **** 
 448:.\Generated_Source\PSoC4/UARTCOMMS_SPI_UART.c **** /*******************************************************************************
 449:.\Generated_Source\PSoC4/UARTCOMMS_SPI_UART.c **** * Function Name: UARTCOMMS_SpiUartDisableIntTx
 450:.\Generated_Source\PSoC4/UARTCOMMS_SPI_UART.c **** ********************************************************************************
 451:.\Generated_Source\PSoC4/UARTCOMMS_SPI_UART.c **** *
 452:.\Generated_Source\PSoC4/UARTCOMMS_SPI_UART.c **** * Summary:
 453:.\Generated_Source\PSoC4/UARTCOMMS_SPI_UART.c **** *  Disables TX interrupt sources.
 454:.\Generated_Source\PSoC4/UARTCOMMS_SPI_UART.c **** *
 455:.\Generated_Source\PSoC4/UARTCOMMS_SPI_UART.c **** * Parameters:
 456:.\Generated_Source\PSoC4/UARTCOMMS_SPI_UART.c **** *  None
 457:.\Generated_Source\PSoC4/UARTCOMMS_SPI_UART.c **** *
 458:.\Generated_Source\PSoC4/UARTCOMMS_SPI_UART.c **** * Return:
 459:.\Generated_Source\PSoC4/UARTCOMMS_SPI_UART.c **** *  Returns TX interrupt sources enabled before function call.
 460:.\Generated_Source\PSoC4/UARTCOMMS_SPI_UART.c **** *
 461:.\Generated_Source\PSoC4/UARTCOMMS_SPI_UART.c **** *******************************************************************************/
 462:.\Generated_Source\PSoC4/UARTCOMMS_SPI_UART.c **** uint32 UARTCOMMS_SpiUartDisableIntTx(void)
 463:.\Generated_Source\PSoC4/UARTCOMMS_SPI_UART.c **** {
 299              		.loc 1 463 0
 300              		.cfi_startproc
 464:.\Generated_Source\PSoC4/UARTCOMMS_SPI_UART.c ****     uint32 intSourceMask;
 465:.\Generated_Source\PSoC4/UARTCOMMS_SPI_UART.c **** 
 466:.\Generated_Source\PSoC4/UARTCOMMS_SPI_UART.c ****     intSourceMask = UARTCOMMS_GetTxInterruptMode();
 301              		.loc 1 466 0
 302 0000 024B     		ldr	r3, .L24
 303 0002 1868     		ldr	r0, [r3]
 304              	.LVL23:
 467:.\Generated_Source\PSoC4/UARTCOMMS_SPI_UART.c **** 
 468:.\Generated_Source\PSoC4/UARTCOMMS_SPI_UART.c ****     UARTCOMMS_SetTxInterruptMode(UARTCOMMS_NO_INTR_SOURCES);
 305              		.loc 1 468 0
 306 0004 0022     		mov	r2, #0
 307 0006 1A60     		str	r2, [r3]
 469:.\Generated_Source\PSoC4/UARTCOMMS_SPI_UART.c **** 
 470:.\Generated_Source\PSoC4/UARTCOMMS_SPI_UART.c ****     return (intSourceMask);
 471:.\Generated_Source\PSoC4/UARTCOMMS_SPI_UART.c **** }
 308              		.loc 1 471 0
 309              		@ sp needed
 310 0008 7047     		bx	lr
 311              	.L25:
 312 000a C046     		.align	2
 313              	.L24:
 314 000c 880F2440 		.word	1076105096
 315              		.cfi_endproc
 316              	.LFE7:
 317              		.size	UARTCOMMS_SpiUartDisableIntTx, .-UARTCOMMS_SpiUartDisableIntTx
 318              		.comm	UARTCOMMS_txBufferInternal,256,4
 319              		.comm	UARTCOMMS_txBufferTail,4,4
 320              		.comm	UARTCOMMS_txBufferHead,4,4
 321              		.text
 322              	.Letext0:
 323              		.file 2 "Generated_Source\\PSoC4/cytypes.h"
 324              		.file 3 "Generated_Source\\PSoC4/CyLib.h"
ARM GAS  C:\Users\Tim\AppData\Local\Temp\ccfXo006.s 			page 15

